(dp1
I0
(lp2
sI1
(lp3
sI2
(lp4
sI3
(lp5
sI4
(lp6
sI5
(lp7
sI6
(lp8
sI7
(lp9
sI8
(lp10
(lp11
S'choices'
p12
aVflash
p13
aasI9
(lp14
(lp15
S'combination'
p16
aVpictures
p17
aasI10
(lp18
sI11
(lp19
sI12
(lp20
sI13
(lp21
sI14
(lp22
(lp23
S'control'
p24
aVmegapixel
p25
aasI15
(lp26
(lp27
S'functionality'
p28
aVuse
p29
aasI16
(lp30
sI17
(lp31
(lp32
S'movies'
p33
aVimages
p34
aasI18
(lp35
sI19
(lp36
sI20
(lp37
(lp38
S'hey'
p39
aVthings
p40
aasI21
(lp41
sI22
(lp42
sI23
(lp43
sI24
(lp44
sI25
(lp45
sI26
(lp46
sI27
(lp47
sI28
(lp48
sI29
(lp49
(lp50
S'speed'
p51
aVfeatures
p52
aa(lp53
S'quality'
p54
aVspeed
p55
aa(lp56
S'flexibility'
p57
aVquality
p58
aa(lp59
S'automation'
p60
aVflexibility
p61
aasI30
(lp62
sI31
(lp63
sI32
(lp64
sI33
(lp65
sI34
(lp66
sI35
(lp67
sI36
(lp68
sI37
(lp69
sI38
(lp70
sI39
(lp71
sI40
(lp72
sI41
(lp73
sI42
(lp74
sI43
(lp75
sI44
(lp76
sI45
(lp77
sI46
(lp78
sI47
(lp79
sI48
(lp80
(lp81
S'settings'
p82
aVprogram
p83
aasI49
(lp84
sI50
(lp85
sI51
(lp86
sI52
(lp87
sI53
(lp88
sI54
(lp89
sI55
(lp90
sI56
(lp91
sI57
(lp92
sI58
(lp93
sI59
(lp94
sI60
(lp95
sI61
(lp96
sI62
(lp97
sI63
(lp98
sI64
(lp99
sI65
(lp100
sI66
(lp101
sI67
(lp102
(lp103
S'views'
p104
aVviewfinder
p105
aasI68
(lp106
sI69
(lp107
sI70
(lp108
sI71
(lp109
sI72
(lp110
sI73
(lp111
sI74
(lp112
sI75
(lp113
sI76
(lp114
sI77
(lp115
(lp116
S'shoot'
p117
aVpoint
p118
aasI78
(lp119
sI79
(lp120
sI80
(lp121
sI81
(lp122
sI82
(lp123
sI83
(lp124
sI84
(lp125
sI85
(lp126
sI86
(lp127
sI87
(lp128
sI88
(lp129
sI89
(lp130
sI90
(lp131
(lp132
S'buttons'
p133
aVknobs
p134
aasI91
(lp135
sI92
(lp136
sI93
(lp137
sI94
(lp138
sI95
(lp139
sI96
(lp140
sI97
(lp141
sI98
(lp142
sI99
(lp143
sI100
(lp144
sI101
(lp145
(lp146
S'speed'
p147
aVstop
p148
aasI102
(lp149
sI103
(lp150
sI104
(lp151
sI105
(lp152
sI106
(lp153
(lp154
S'priority'
p155
aVsubjects
p156
aa(lp157
S'mode'
p158
aVlength
p159
aasI107
(lp160
(lp161
S'aperture'
p162
aVspeed
p163
aasI108
(lp164
sI109
(lp165
(lp166
S'weight'
p167
aVfeel
p168
aasI110
(lp169
sI111
(lp170
sI112
(lp171
sI113
(lp172
(lp173
S'ease'
p174
aVquality
p175
aasI114
(lp176
sI115
(lp177
(lp178
S'knowledge'
p179
aVskill
p180
aasI116
(lp181
sI117
(lp182
sI118
(lp183
sI119
(lp184
sI120
(lp185
sI121
(lp186
(lp187
S'camera'
p188
aVpoint
p189
aasI122
(lp190
sI123
(lp191
sI124
(lp192
sI125
(lp193
sI126
(lp194
sI127
(lp195
sI128
(lp196
sI129
(lp197
sI130
(lp198
sI131
(lp199
sI132
(lp200
sI133
(lp201
sI134
(lp202
sI135
(lp203
sI136
(lp204
(lp205
S'sharpness'
p206
aVcolor
p207
aasI137
(lp208
(lp209
S'damage'
p210
aVtigt
p211
aasI138
(lp212
sI139
(lp213
sI140
(lp214
sI141
(lp215
sI142
(lp216
sI143
(lp217
sI144
(lp218
sI145
(lp219
(lp220
S'pictures'
p221
aVcolors
p222
aa(lp223
S'balance'
p224
aVpictures
p225
aasI146
(lp226
sI147
(lp227
sI148
(lp228
sI149
(lp229
sI150
(lp230
sI151
(lp231
sI152
(lp232
(lp233
S's'
aVp
aasI153
(lp234
sI154
(lp235
sI155
(lp236
sI156
(lp237
sI157
(lp238
sI158
(lp239
sI159
(lp240
sI160
(lp241
sI161
(lp242
(lp243
S'objects'
p244
aVlight
p245
aasI162
(lp246
sI163
(lp247
sI164
(lp248
sI165
(lp249
(lp250
S'photography'
p251
aVpoint
p252
aasI166
(lp253
(lp254
S'cost'
p255
aVresolution
p256
aasI167
(lp257
sI168
(lp258
(lp259
S'quality'
p260
aVlight
p261
aasI169
(lp262
sI170
(lp263
sI171
(lp264
sI172
(lp265
sI173
(lp266
sI174
(lp267
sI175
(lp268
sI176
(lp269
sI177
(lp270
sI178
(lp271
sI179
(lp272
sI180
(lp273
(lp274
S'anyone'
p275
aVdigicams
p276
aasI181
(lp277
sI182
(lp278
(lp279
S'digicams'
p280
aVpoint
p281
aasI183
(lp282
sI184
(lp283
sI185
(lp284
sI186
(lp285
sI187
(lp286
sI188
(lp287
sI189
(lp288
sI190
(lp289
sI191
(lp290
sI192
(lp291
sI193
(lp292
sI194
(lp293
sI195
(lp294
sI196
(lp295
sI197
(lp296
sI198
(lp297
sI199
(lp298
sI200
(lp299
sI201
(lp300
sI202
(lp301
sI203
(lp302
sI204
(lp303
sI205
(lp304
sI206
(lp305
sI207
(lp306
sI208
(lp307
sI209
(lp308
sI210
(lp309
sI211
(lp310
sI212
(lp311
sI213
(lp312
sI214
(lp313
sI215
(lp314
(lp315
S'shoot'
p316
aVpoint
p317
aasI216
(lp318
sI217
(lp319
sI218
(lp320
(lp321
S'quality'
p322
aVbreeze
p323
aasI219
(lp324
sI220
(lp325
sI221
(lp326
sI222
(lp327
sI223
(lp328
sI224
(lp329
sI225
(lp330
sI226
(lp331
sI227
(lp332
sI228
(lp333
sI229
(lp334
sI230
(lp335
sI231
(lp336
sI232
(lp337
(lp338
S'modes'
p339
aVpriority
p340
aasI233
(lp341
sI234
(lp342
sI235
(lp343
sI236
(lp344
sI237
(lp345
sI238
(lp346
sI239
(lp347
sI240
(lp348
sI241
(lp349
sI242
(lp350
sI243
(lp351
(lp352
S'hours'
p353
aVg2
p354
aasI244
(lp355
(lp356
S'software'
p357
aVcapture
p358
aasI245
(lp359
sI246
(lp360
sI247
(lp361
sI248
(lp362
sI249
(lp363
sI250
(lp364
sI251
(lp365
sI252
(lp366
sI253
(lp367
sI254
(lp368
sI255
(lp369
sI256
(lp370
sI257
(lp371
sI258
(lp372
sI259
(lp373
sI260
(lp374
(lp375
S'balance'
p376
aVdetail
p377
aa(lp378
S'view'
p379
aVbalance
p380
aasI261
(lp381
sI262
(lp382
(lp383
S'd100s'
p384
aVcanon
p385
aasI263
(lp386
sI264
(lp387
sI265
(lp388
sI266
(lp389
sI267
(lp390
sI268
(lp391
sI269
(lp392
(lp393
S'g3'
p394
aVcp5000
p395
aasI270
(lp396
sI271
(lp397
sI272
(lp398
sI273
(lp399
sI274
(lp400
(lp401
S'features'
p402
aVzoom
p403
aasI275
(lp404
sI276
(lp405
sI277
(lp406
sI278
(lp407
sI279
(lp408
(lp409
S'noise'
p410
aVartifacts
p411
aasI280
(lp412
sI281
(lp413
sI282
(lp414
sI283
(lp415
sI284
(lp416
sI285
(lp417
sI286
(lp418
(lp419
S'hands'
p420
aVpurchase
p421
aasI287
(lp422
sI288
(lp423
sI289
(lp424
sI290
(lp425
sI291
(lp426
sI292
(lp427
sI293
(lp428
sI294
(lp429
sI295
(lp430
sI296
(lp431
sI297
(lp432
(lp433
S'camera'
p434
aVbutton
p435
aasI298
(lp436
sI299
(lp437
sI300
(lp438
(lp439
S'fun'
p440
aVcool
p441
aasI301
(lp442
sI302
(lp443
sI303
(lp444
sI304
(lp445
sI305
(lp446
sI306
(lp447
sI307
(lp448
sI308
(lp449
sI309
(lp450
sI310
(lp451
sI311
(lp452
sI312
(lp453
sI313
(lp454
sI314
(lp455
sI315
(lp456
sI316
(lp457
sI317
(lp458
sI318
(lp459
sI319
(lp460
sI320
(lp461
sI321
(lp462
sI322
(lp463
sI323
(lp464
sI324
(lp465
sI325
(lp466
sI326
(lp467
sI327
(lp468
sI328
(lp469
sI329
(lp470
sI330
(lp471
sI331
(lp472
sI332
(lp473
sI333
(lp474
sI334
(lp475
sI335
(lp476
sI336
(lp477
sI337
(lp478
sI338
(lp479
sI339
(lp480
sI340
(lp481
sI341
(lp482
sI342
(lp483
sI343
(lp484
sI344
(lp485
sI345
(lp486
sI346
(lp487
sI347
(lp488
sI348
(lp489
sI349
(lp490
sI350
(lp491
sI351
(lp492
sI352
(lp493
sI353
(lp494
sI354
(lp495
sI355
(lp496
sI356
(lp497
sI357
(lp498
sI358
(lp499
sI359
(lp500
sI360
(lp501
sI361
(lp502
sI362
(lp503
sI363
(lp504
sI364
(lp505
sI365
(lp506
sI366
(lp507
sI367
(lp508
sI368
(lp509
sI369
(lp510
sI370
(lp511
sI371
(lp512
sI372
(lp513
sI373
(lp514
sI374
(lp515
sI375
(lp516
sI376
(lp517
sI377
(lp518
sI378
(lp519
sI379
(lp520
sI380
(lp521
sI381
(lp522
sI382
(lp523
sI383
(lp524
sI384
(lp525
sI385
(lp526
(lp527
S'phones'
p528
aVpc
p529
aasI386
(lp530
sI387
(lp531
sI388
(lp532
sI389
(lp533
(lp534
S'opinions'
p535
aVspecs
p536
aasI390
(lp537
sI391
(lp538
sI392
(lp539
sI393
(lp540
sI394
(lp541
sI395
(lp542
sI396
(lp543
sI397
(lp544
sI398
(lp545
sI399
(lp546
sI400
(lp547
sI401
(lp548
sI402
(lp549
sI403
(lp550
sI404
(lp551
sI405
(lp552
sI406
(lp553
sI407
(lp554
sI408
(lp555
sI409
(lp556
sI410
(lp557
sI411
(lp558
sI412
(lp559
sI413
(lp560
sI414
(lp561
sI415
(lp562
sI416
(lp563
sI417
(lp564
sI418
(lp565
sI419
(lp566
sI420
(lp567
sI421
(lp568
sI422
(lp569
sI423
(lp570
sI424
(lp571
sI425
(lp572
sI426
(lp573
(lp574
S'money'
p575
aVtime
p576
aasI427
(lp577
(lp578
S'time'
p579
aVcost
p580
aasI428
(lp581
sI429
(lp582
sI430
(lp583
sI431
(lp584
sI432
(lp585
sI433
(lp586
sI434
(lp587
sI435
(lp588
(lp589
S'flash'
p590
aVprinter
p591
aasI436
(lp592
(lp593
S'point'
p594
aVlens
p595
aasI437
(lp596
sI438
(lp597
sI439
(lp598
sI440
(lp599
sI441
(lp600
sI442
(lp601
sI443
(lp602
sI444
(lp603
sI445
(lp604
sI446
(lp605
sI447
(lp606
sI448
(lp607
sI449
(lp608
sI450
(lp609
sI451
(lp610
sI452
(lp611
sI453
(lp612
sI454
(lp613
sI455
(lp614
sI456
(lp615
sI457
(lp616
(lp617
S'range'
p618
aVslr
p619
aasI458
(lp620
sI459
(lp621
sI460
(lp622
sI461
(lp623
sI462
(lp624
sI463
(lp625
sI464
(lp626
sI465
(lp627
sI466
(lp628
sI467
(lp629
(lp630
S'pockets'
p631
aVhandbags
p632
aasI468
(lp633
sI469
(lp634
sI470
(lp635
sI471
(lp636
sI472
(lp637
sI473
(lp638
sI474
(lp639
sI475
(lp640
(lp641
S'options'
p642
aVlot
p643
aasI476
(lp644
sI477
(lp645
sI478
(lp646
sI479
(lp647
sI480
(lp648
(lp649
S'shoot'
p650
aVpoint
p651
aasI481
(lp652
sI482
(lp653
sI483
(lp654
sI484
(lp655
(lp656
S'category'
p657
aVprice
p658
aasI485
(lp659
sI486
(lp660
(lp661
S'shoot'
p662
aVpoint
p663
aasI487
(lp664
sI488
(lp665
sI489
(lp666
sI490
(lp667
sI491
(lp668
sI492
(lp669
sI493
(lp670
sI494
(lp671
sI495
(lp672
sI496
(lp673
sI497
(lp674
sI498
(lp675
sI499
(lp676
sI500
(lp677
sI501
(lp678
sI502
(lp679
(lp680
S'quality'
p681
aVresolution
p682
aa(lp683
S'subnotebook'
p684
aVquality
p685
aa(lp686
S'tons'
p687
aVconnection
p688
aasI503
(lp689
sI504
(lp690
sI505
(lp691
sI506
(lp692
(lp693
S'durability'
p694
aVquality
p695
aa(lp696
S'car'
p697
aVsnow
p698
aa(lp699
S'boat'
p700
aVcar
p701
aa(lp702
S'wind'
p703
aVboat
p704
aasI507
(lp705
(lp706
S'filter'
p707
aVadapter
p708
aasI508
(lp709
sI509
(lp710
sI510
(lp711
sI511
(lp712
sI512
(lp713
sI513
(lp714
(lp715
S'g3'
p716
aVg2
p717
aa(lp718
S'lens'
p719
aVshooting
p720
aa(lp721
S'layout'
p722
aVlens
p723
aa(lp724
S'zoom'
p725
aVlayout
p726
aa(lp727
S'processing'
p728
aVzoom
p729
aasI514
(lp730
sI515
(lp731
sI516
(lp732
sI517
(lp733
sI518
(lp734
sI519
(lp735
sI520
(lp736
sI521
(lp737
sI522
(lp738
sI523
(lp739
sI524
(lp740
sI525
(lp741
sI526
(lp742
sI527
(lp743
sI528
(lp744
sI529
(lp745
sI530
(lp746
sI531
(lp747
sI532
(lp748
sI533
(lp749
sI534
(lp750
sI535
(lp751
sI536
(lp752
(lp753
S'adjustability'
p754
aVzoom
p755
aa(lp756
S'control'
p757
aVshoe
p758
aasI537
(lp759
(lp760
S'g3'
p761
aVcoolpix
p762
aa(lp763
S'price'
p764
aVuse
p765
aasI538
(lp766
(lp767
S'hundreds'
p768
aVweeks
p769
aasI539
(lp770
sI540
(lp771
sI541
(lp772
sI542
(lp773
sI543
(lp774
sI544
(lp775
sI545
(lp776
sI546
(lp777
sI547
(lp778
sI548
(lp779
(lp780
S'eye'
p781
aVphotos
p782
aasI549
(lp783
sI550
(lp784
sI551
(lp785
(lp786
S'system'
p787
aVcamera
p788
aasI552
(lp789
(lp790
S'controls'
p791
aVlight
p792
aasI553
(lp793
sI554
(lp794
sI555
(lp795
sI556
(lp796
sI557
(lp797
sI558
(lp798
sI559
(lp799
sI560
(lp800
sI561
(lp801
sI562
(lp802
sI563
(lp803
sI564
(lp804
sI565
(lp805
sI566
(lp806
sI567
(lp807
sI568
(lp808
sI569
(lp809
sI570
(lp810
sI571
(lp811
sI572
(lp812
sI573
(lp813
sI574
(lp814
sI575
(lp815
(lp816
S'extension'
p817
aVlens
p818
aasI576
(lp819
sI577
(lp820
sI578
(lp821
sI579
(lp822
sI580
(lp823
(lp824
S'feel'
p825
aVquality
p826
aa(lp827
S'features'
p828
aVfeel
p829
aa(lp830
S'coloration'
p831
aVresolution
p832
aasI581
(lp833
(lp834
S'features'
p835
aVlife
p836
aa(lp837
S'formats'
p838
aVtypes
p839
aasI582
(lp840
sI583
(lp841
sI584
(lp842
sI585
(lp843
(lp844
S'life'
p845
aVquality
p846
aasI586
(lp847
sI587
(lp848
sI588
(lp849
sI589
(lp850
sI590
(lp851
sI591
(lp852
sI592
(lp853
sI593
(lp854
sI594
(lp855
(lp856
S'lens'
p857
aVquality
p858
aasI595
(lp859
sI596
(lp860
(lp861
S'shoot'
p862
aVpoint
p863
aasI597
(lp864
sI598
(lp865
sI599
(lp866
sI600
(lp867
sI601
(lp868
sI602
(lp869
sI603
(lp870
sI604
(lp871
sI605
(lp872
(lp873
S'battery'
p874
aVcf
p875
aasI606
(lp876
sI607
(lp877
sI608
(lp878
(lp879
S'model'
p880
aVproduction
p881
aasI609
(lp882
sI610
(lp883
sI611
(lp884
sI612
(lp885
sI613
(lp886
sI614
(lp887
sI615
(lp888
sI616
(lp889
(lp890
S'camera'
p891
aVpoint
p892
aasI617
(lp893
sI618
(lp894
(lp895
S'power'
p896
aVoptions
p897
aasI619
(lp898
sI620
(lp899
sI621
(lp900
sI622
(lp901
sI623
(lp902
sI624
(lp903
(lp904
S'pricing'
p905
aVfunctionality
p906
aasI625
(lp907
sI626
(lp908
sI627
(lp909
sI628
(lp910
sI629
(lp911
sI630
(lp912
sI631
(lp913
sI632
(lp914
sI633
(lp915
sI634
(lp916
sI635
(lp917
sI636
(lp918
sI637
(lp919
sI638
(lp920
sI639
(lp921
sI640
(lp922
sI641
(lp923
sI642
(lp924
sI643
(lp925
sI644
(lp926
sI645
(lp927
sI646
(lp928
sI647
(lp929
sI648
(lp930
sI649
(lp931
sI650
(lp932
sI651
(lp933
sI652
(lp934
sI653
(lp935
sI654
(lp936
sI655
(lp937
(lp938
S'quality'
p939
aVfunction
p940
aasI656
(lp941
sI657
(lp942
sI658
(lp943
sI659
(lp944
sI660
(lp945
sI661
(lp946
sI662
(lp947
sI663
(lp948
sI664
(lp949
(lp950
S'price'
p951
aVfeatures
p952
aasI665
(lp953
sI666
(lp954
sI667
(lp955
sI668
(lp956
sI669
(lp957
sI670
(lp958
sI671
(lp959
(lp960
S'models'
p961
aVnikon
p962
aasI672
(lp963
(lp964
S'manual'
p965
aVauto
p966
aa(lp967
S'price'
p968
aVsize
p969
aa(lp970
S'name'
p971
aVprice
p972
aasI673
(lp973
sI674
(lp974
sI675
(lp975
sI676
(lp976
sI677
(lp977
sI678
(lp978
sI679
(lp979
sI680
(lp980
sI681
(lp981
(lp982
S'reader'
p983
aVcard
p984
aa(lp985
S'bag'
p986
aVreader
p987
aa(lp988
S'warranty'
p989
aVbag
p990
aasI682
(lp991
(lp992
S'brightness'
p993
aVclarity
p994
aasI683
(lp995
sI684
(lp996
sI685
(lp997
sI686
(lp998
sI687
(lp999
sI688
(lp1000
sI689
(lp1001
(lp1002
S'manual'
p1003
aVauto
p1004
aasI690
(lp1005
sI691
(lp1006
(lp1007
S'charger'
p1008
aVproblem
p1009
aa(lp1010
S'usb'
p1011
aVcharger
p1012
aa(lp1013
S'cable'
p1014
aVusb
p1015
aa(lp1016
S'win98'
p1017
aVxp
p1018
aasI692
(lp1019
sI693
(lp1020
(lp1021
S'retailers'
p1022
aVbrick
p1023
aasI694
(lp1024
sI695
(lp1025
sI696
(lp1026
sI697
(lp1027
sI698
(lp1028
(lp1029
S'charger'
p1030
aVcables
p1031
aasI699
(lp1032
(lp1033
S'folder'
p1034
aVreader
p1035
aa(lp1036
S'lense'
p1037
aVfolder
p1038
aa(lp1039
S'adapter'
p1040
aVlense
p1041
aasI700
(lp1042
sI701
(lp1043
sI702
(lp1044
sI703
(lp1045
sI704
(lp1046
sI705
(lp1047
sI706
(lp1048
sI707
(lp1049
sI708
(lp1050
sI709
(lp1051
sI710
(lp1052
sI711
(lp1053
sI712
(lp1054
sI713
(lp1055
(lp1056
S'name'
p1057
aVvalue
p1058
aa(lp1059
S'resolution'
p1060
aVname
p1061
aasI714
(lp1062
sI715
(lp1063
sI716
(lp1064
sI717
(lp1065
(lp1066
S'presets'
p1067
aVfeatures
p1068
aasI718
(lp1069
sI719
(lp1070
sI720
(lp1071
sI721
(lp1072
sI722
(lp1073
sI723
(lp1074
sI724
(lp1075
sI725
(lp1076
sI726
(lp1077
sI727
(lp1078
sI728
(lp1079
sI729
(lp1080
(lp1081
S'models'
p1082
aVnikon
p1083
aasI730
(lp1084
(lp1085
S'compact'
p1086
aVquality
p1087
aasI731
(lp1088
(lp1089
S'couple'
p1090
aVbattery
p1091
aasI732
(lp1092
sI733
(lp1093
sI734
(lp1094
sI735
(lp1095
sI736
(lp1096
sI737
(lp1097
sI738
(lp1098
(lp1099
S'everyone'
p1100
aVdaylight
p1101
aasI739
(lp1102
sI740
(lp1103
sI741
(lp1104
sI742
(lp1105
sI743
(lp1106
sI744
(lp1107
sI745
(lp1108
sI746
(lp1109
sI747
(lp1110
sI748
(lp1111
sI749
(lp1112
sI750
(lp1113
sI751
(lp1114
sI752
(lp1115
sI753
(lp1116
sI754
(lp1117
sI755
(lp1118
sI756
(lp1119
sI757
(lp1120
(lp1121
S'time'
p1122
aVthought
p1123
aasI758
(lp1124
sI759
(lp1125
sI760
(lp1126
(lp1127
S'shoot'
p1128
aVpoint
p1129
aa(lp1130
S'photos'
p1131
aVshoot
p1132
aasI761
(lp1133
sI762
(lp1134
sI763
(lp1135
sI764
(lp1136
sI765
(lp1137
sI766
(lp1138
sI767
(lp1139
sI768
(lp1140
sI769
(lp1141
sI770
(lp1142
sI771
(lp1143
sI772
(lp1144
sI773
(lp1145
sI774
(lp1146
sI775
(lp1147
sI776
(lp1148
sI777
(lp1149
sI778
(lp1150
sI779
(lp1151
sI780
(lp1152
sI781
(lp1153
sI782
(lp1154
sI783
(lp1155
sI784
(lp1156
sI785
(lp1157
sI786
(lp1158
sI787
(lp1159
sI788
(lp1160
sI789
(lp1161
sI790
(lp1162
sI791
(lp1163
sI792
(lp1164
sI793
(lp1165
(lp1166
S'size'
p1167
aVweight
p1168
aa(lp1169
S'length'
p1170
aVglass
p1171
aasI794
(lp1172
sI795
(lp1173
sI796
(lp1174
sI797
(lp1175
(lp1176
S'features'
p1177
aVmenus
p1178
aasI798
(lp1179
sI799
(lp1180
sI800
(lp1181
sI801
(lp1182
sI802
(lp1183
sI803
(lp1184
(lp1185
S'features'
p1186
aVmenus
p1187
aasI804
(lp1188
sI805
(lp1189
sI806
(lp1190
sI807
(lp1191
sI808
(lp1192
sI809
(lp1193
sI810
(lp1194
sI811
(lp1195
sI812
(lp1196
sI813
(lp1197
sI814
(lp1198
sI815
(lp1199
sI816
(lp1200
(lp1201
S'pictures'
p1202
aVfine
p1203
aasI817
(lp1204
sI818
(lp1205
sI819
(lp1206
sI820
(lp1207
sI821
(lp1208
(lp1209
S'number'
p1210
aVpictures
p1211
aasI822
(lp1212
sI823
(lp1213
(lp1214
S'color'
p1215
aVclarity
p1216
aasI824
(lp1217
(lp1218
S'magazines'
p1219
aVinternet
p1220
aasI825
(lp1221
sI826
(lp1222
sI827
(lp1223
sI828
(lp1224
(lp1225
S'advance'
p1226
aVcameras
p1227
aasI829
(lp1228
sI830
(lp1229
(lp1230
S'color'
p1231
aVcontrast
p1232
aasI831
(lp1233
sI832
(lp1234
sI833
(lp1235
sI834
(lp1236
sI835
(lp1237
sI836
(lp1238
sI837
(lp1239
sI838
(lp1240
sI839
(lp1241
(lp1242
S'camera'
p1243
aVpoint
p1244
aasI840
(lp1245
sI841
(lp1246
sI842
(lp1247
sI843
(lp1248
sI844
(lp1249
sI845
(lp1250
sI846
(lp1251
(lp1252
S'filter'
p1253
aVadapter
p1254
aasI847
(lp1255
sI848
(lp1256
sI849
(lp1257
sI850
(lp1258
sI851
(lp1259
sI852
(lp1260
sI853
(lp1261
sI854
(lp1262
sI855
(lp1263
sI856
(lp1264
sI857
(lp1265
sI858
(lp1266
sI859
(lp1267
sI860
(lp1268
sI861
(lp1269
(lp1270
S'mode'
p1271
aVscene
p1272
aasI862
(lp1273
sI863
(lp1274
sI864
(lp1275
sI865
(lp1276
(lp1277
S'epinions.com'
p1278
aVsite
p1279
aasI866
(lp1280
sI867
(lp1281
sI868
(lp1282
sI869
(lp1283
sI870
(lp1284
sI871
(lp1285
sI872
(lp1286
sI873
(lp1287
sI874
(lp1288
sI875
(lp1289
sI876
(lp1290
sI877
(lp1291
sI878
(lp1292
sI879
(lp1293
sI880
(lp1294
sI881
(lp1295
sI882
(lp1296
sI883
(lp1297
sI884
(lp1298
sI885
(lp1299
(lp1300
S'fun'
p1301
aVuse
p1302
aa(lp1303
S'lenses'
p1304
aVtelephoto
p1305
aasI886
(lp1306
(lp1307
S'features'
p1308
aVquality
p1309
aasI887
(lp1310
(lp1311
S'construction'
p1312
aVdesign
p1313
aasI888
(lp1314
sI889
(lp1315
sI890
(lp1316
sI891
(lp1317
sI892
(lp1318
sI893
(lp1319
sI894
(lp1320
sI895
(lp1321
sI896
(lp1322
sI897
(lp1323
sI898
(lp1324
sI899
(lp1325
sI900
(lp1326
sI901
(lp1327
sI902
(lp1328
sI903
(lp1329
sI904
(lp1330
sI905
(lp1331
sI906
(lp1332
sI907
(lp1333
sI908
(lp1334
sI909
(lp1335
sI910
(lp1336
sI911
(lp1337
sI912
(lp1338
sI913
(lp1339
sI914
(lp1340
sI915
(lp1341
sI916
(lp1342
sI917
(lp1343
sI918
(lp1344
sI919
(lp1345
sI920
(lp1346
sI921
(lp1347
sI922
(lp1348
sI923
(lp1349
sI924
(lp1350
sI925
(lp1351
sI926
(lp1352
sI927
(lp1353
sI928
(lp1354
sI929
(lp1355
sI930
(lp1356
sI931
(lp1357
sI932
(lp1358
sI933
(lp1359
sI934
(lp1360
sI935
(lp1361
sI936
(lp1362
sI937
(lp1363
sI938
(lp1364
sI939
(lp1365
sI940
(lp1366
sI941
(lp1367
sI942
(lp1368
sI943
(lp1369
sI944
(lp1370
sI945
(lp1371
sI946
(lp1372
sI947
(lp1373
(lp1374
S'reception'
p1375
aVsignal
p1376
aasI948
(lp1377
(lp1378
S'phones'
p1379
aVpanasonic
p1380
aasI949
(lp1381
(lp1382
S'radio'
p1383
aVphone
p1384
aa(lp1385
S'infrared'
p1386
aVradio
p1387
aasI950
(lp1388
sI951
(lp1389
sI952
(lp1390
(lp1391
S'signal'
p1392
aVnokia
p1393
aasI953
(lp1394
sI954
(lp1395
(lp1396
S'service'
p1397
aVplans
p1398
aasI955
(lp1399
sI956
(lp1400
sI957
(lp1401
(lp1402
S'favorite'
p1403
aVfeatures
p1404
aa(lp1405
S'information'
p1406
aVgames
p1407
aa(lp1408
S'radio'
p1409
aVorganizer
p1410
aasI958
(lp1411
sI959
(lp1412
sI960
(lp1413
sI961
(lp1414
sI962
(lp1415
sI963
(lp1416
sI964
(lp1417
sI965
(lp1418
sI966
(lp1419
sI967
(lp1420
sI968
(lp1421
sI969
(lp1422
sI970
(lp1423
sI971
(lp1424
sI972
(lp1425
sI973
(lp1426
sI974
(lp1427
sI975
(lp1428
sI976
(lp1429
sI977
(lp1430
sI978
(lp1431
sI979
(lp1432
sI980
(lp1433
sI981
(lp1434
sI982
(lp1435
sI983
(lp1436
sI984
(lp1437
sI985
(lp1438
sI986
(lp1439
sI987
(lp1440
sI988
(lp1441
sI989
(lp1442
sI990
(lp1443
sI991
(lp1444
sI992
(lp1445
sI993
(lp1446
sI994
(lp1447
sI995
(lp1448
sI996
(lp1449
sI997
(lp1450
sI998
(lp1451
sI999
(lp1452
sI1000
(lp1453
sI1001
(lp1454
sI1002
(lp1455
sI1003
(lp1456
sI1004
(lp1457
sI1005
(lp1458
sI1006
(lp1459
sI1007
(lp1460
sI1008
(lp1461
sI1009
(lp1462
(lp1463
S'hands'
p1464
aVmenus
p1465
aasI1010
(lp1466
sI1011
(lp1467
sI1012
(lp1468
sI1013
(lp1469
sI1014
(lp1470
sI1015
(lp1471
sI1016
(lp1472
sI1017
(lp1473
sI1018
(lp1474
sI1019
(lp1475
sI1020
(lp1476
sI1021
(lp1477
sI1022
(lp1478
sI1023
(lp1479
sI1024
(lp1480
sI1025
(lp1481
sI1026
(lp1482
sI1027
(lp1483
sI1028
(lp1484
sI1029
(lp1485
sI1030
(lp1486
sI1031
(lp1487
(lp1488
S'tid'
p1489
aVsize
p1490
aasI1032
(lp1491
sI1033
(lp1492
sI1034
(lp1493
sI1035
(lp1494
sI1036
(lp1495
sI1037
(lp1496
sI1038
(lp1497
sI1039
(lp1498
sI1040
(lp1499
sI1041
(lp1500
sI1042
(lp1501
sI1043
(lp1502
sI1044
(lp1503
sI1045
(lp1504
sI1046
(lp1505
(lp1506
S'report'
p1507
aVamazon
p1508
aasI1047
(lp1509
sI1048
(lp1510
(lp1511
S'email'
p1512
aVtext
p1513
aasI1049
(lp1514
sI1050
(lp1515
sI1051
(lp1516
sI1052
(lp1517
sI1053
(lp1518
sI1054
(lp1519
(lp1520
S'earpiece'
p1521
aVphone
p1522
aasI1055
(lp1523
sI1056
(lp1524
sI1057
(lp1525
sI1058
(lp1526
sI1059
(lp1527
sI1060
(lp1528
sI1061
(lp1529
sI1062
(lp1530
sI1063
(lp1531
sI1064
(lp1532
sI1065
(lp1533
sI1066
(lp1534
sI1067
(lp1535
sI1068
(lp1536
sI1069
(lp1537
sI1070
(lp1538
sI1071
(lp1539
sI1072
(lp1540
sI1073
(lp1541
sI1074
(lp1542
sI1075
(lp1543
sI1076
(lp1544
sI1077
(lp1545
sI1078
(lp1546
sI1079
(lp1547
sI1080
(lp1548
sI1081
(lp1549
sI1082
(lp1550
sI1083
(lp1551
sI1084
(lp1552
sI1085
(lp1553
(lp1554
S'company'
p1555
aVphone
p1556
aasI1086
(lp1557
sI1087
(lp1558
sI1088
(lp1559
sI1089
(lp1560
(lp1561
S'weight'
p1562
aVsize
p1563
aasI1090
(lp1564
sI1091
(lp1565
sI1092
(lp1566
sI1093
(lp1567
sI1094
(lp1568
sI1095
(lp1569
sI1096
(lp1570
sI1097
(lp1571
sI1098
(lp1572
sI1099
(lp1573
sI1100
(lp1574
sI1101
(lp1575
(lp1576
S'reviews'
p1577
aVpros
p1578
aasI1102
(lp1579
sI1103
(lp1580
sI1104
(lp1581
sI1105
(lp1582
(lp1583
S'stopwatch'
p1584
aVconverter
p1585
aasI1106
(lp1586
sI1107
(lp1587
sI1108
(lp1588
sI1109
(lp1589
sI1110
(lp1590
sI1111
(lp1591
sI1112
(lp1592
sI1113
(lp1593
sI1114
(lp1594
sI1115
(lp1595
sI1116
(lp1596
sI1117
(lp1597
sI1118
(lp1598
sI1119
(lp1599
sI1120
(lp1600
(lp1601
S'weight'
p1602
aVsize
p1603
aasI1121
(lp1604
sI1122
(lp1605
sI1123
(lp1606
sI1124
(lp1607
sI1125
(lp1608
sI1126
(lp1609
sI1127
(lp1610
sI1128
(lp1611
sI1129
(lp1612
sI1130
(lp1613
sI1131
(lp1614
sI1132
(lp1615
sI1133
(lp1616
sI1134
(lp1617
sI1135
(lp1618
sI1136
(lp1619
sI1137
(lp1620
sI1138
(lp1621
sI1139
(lp1622
sI1140
(lp1623
sI1141
(lp1624
sI1142
(lp1625
sI1143
(lp1626
sI1144
(lp1627
sI1145
(lp1628
sI1146
(lp1629
sI1147
(lp1630
sI1148
(lp1631
(lp1632
S'ringtones'
p1633
aVpictures
p1634
aasI1149
(lp1635
sI1150
(lp1636
sI1151
(lp1637
sI1152
(lp1638
(lp1639
S'stuff'
p1640
aVphone
p1641
aasI1153
(lp1642
sI1154
(lp1643
sI1155
(lp1644
sI1156
(lp1645
sI1157
(lp1646
sI1158
(lp1647
sI1159
(lp1648
(lp1649
S'durability'
p1650
aVquality
p1651
aasI1160
(lp1652
sI1161
(lp1653
sI1162
(lp1654
sI1163
(lp1655
sI1164
(lp1656
sI1165
(lp1657
sI1166
(lp1658
sI1167
(lp1659
(lp1660
S'recommendations'
p1661
aVhandsets
p1662
aasI1168
(lp1663
sI1169
(lp1664
sI1170
(lp1665
sI1171
(lp1666
sI1172
(lp1667
sI1173
(lp1668
sI1174
(lp1669
sI1175
(lp1670
sI1176
(lp1671
sI1177
(lp1672
sI1178
(lp1673
sI1179
(lp1674
sI1180
(lp1675
sI1181
(lp1676
sI1182
(lp1677
sI1183
(lp1678
sI1184
(lp1679
sI1185
(lp1680
sI1186
(lp1681
sI1187
(lp1682
sI1188
(lp1683
sI1189
(lp1684
sI1190
(lp1685
sI1191
(lp1686
sI1192
(lp1687
(lp1688
S'flaw'
p1689
aVdesign
p1690
aasI1193
(lp1691
sI1194
(lp1692
sI1195
(lp1693
sI1196
(lp1694
sI1197
(lp1695
sI1198
(lp1696
sI1199
(lp1697
sI1200
(lp1698
sI1201
(lp1699
sI1202
(lp1700
(lp1701
S'series'
p1702
aVphone
p1703
aasI1203
(lp1704
sI1204
(lp1705
sI1205
(lp1706
sI1206
(lp1707
(lp1708
S'phones'
p1709
aVmotorolla
p1710
aasI1207
(lp1711
sI1208
(lp1712
sI1209
(lp1713
sI1210
(lp1714
sI1211
(lp1715
sI1212
(lp1716
sI1213
(lp1717
sI1214
(lp1718
(lp1719
S'bells'
p1720
aVwhistles
p1721
aasI1215
(lp1722
sI1216
(lp1723
(lp1724
S'samsung'
p1725
aVnokia
p1726
aasI1217
(lp1727
sI1218
(lp1728
sI1219
(lp1729
sI1220
(lp1730
sI1221
(lp1731
sI1222
(lp1732
sI1223
(lp1733
sI1224
(lp1734
sI1225
(lp1735
sI1226
(lp1736
sI1227
(lp1737
sI1228
(lp1738
sI1229
(lp1739
sI1230
(lp1740
sI1231
(lp1741
sI1232
(lp1742
(lp1743
S'phones'
p1744
aVsamsung
p1745
aasI1233
(lp1746
sI1234
(lp1747
sI1235
(lp1748
sI1236
(lp1749
sI1237
(lp1750
sI1238
(lp1751
sI1239
(lp1752
sI1240
(lp1753
sI1241
(lp1754
(lp1755
S'applications'
p1756
aVcustomization
p1757
aasI1242
(lp1758
(lp1759
S'cable'
p1760
aVsuite
p1761
aa(lp1762
S'bluetooth'
p1763
aVirda
p1764
aasI1243
(lp1765
sI1244
(lp1766
sI1245
(lp1767
sI1246
(lp1768
(lp1769
S'graphics'
p1770
aVgames
p1771
aa(lp1772
S'ringtones'
p1773
aVgraphics
p1774
aasI1247
(lp1775
sI1248
(lp1776
sI1249
(lp1777
(lp1778
S'handset'
p1779
aVstation
p1780
aasI1250
(lp1781
sI1251
(lp1782
sI1252
(lp1783
sI1253
(lp1784
sI1254
(lp1785
sI1255
(lp1786
sI1256
(lp1787
sI1257
(lp1788
(lp1789
S'band'
p1790
aVgsm
p1791
aasI1258
(lp1792
sI1259
(lp1793
sI1260
(lp1794
(lp1795
S'screen'
p1796
aVfeatures
p1797
aasI1261
(lp1798
sI1262
(lp1799
sI1263
(lp1800
sI1264
(lp1801
sI1265
(lp1802
sI1266
(lp1803
sI1267
(lp1804
sI1268
(lp1805
sI1269
(lp1806
sI1270
(lp1807
sI1271
(lp1808
sI1272
(lp1809
sI1273
(lp1810
sI1274
(lp1811
sI1275
(lp1812
sI1276
(lp1813
sI1277
(lp1814
sI1278
(lp1815
sI1279
(lp1816
sI1280
(lp1817
sI1281
(lp1818
sI1282
(lp1819
sI1283
(lp1820
sI1284
(lp1821
sI1285
(lp1822
sI1286
(lp1823
(lp1824
S'features'
p1825
aVsister
p1826
aasI1287
(lp1827
sI1288
(lp1828
sI1289
(lp1829
sI1290
(lp1830
sI1291
(lp1831
sI1292
(lp1832
sI1293
(lp1833
sI1294
(lp1834
sI1295
(lp1835
sI1296
(lp1836
(lp1837
S'port'
p1838
aVcable
p1839
aasI1297
(lp1840
sI1298
(lp1841
(lp1842
S'list'
p1843
aVcalendar
p1844
aasI1299
(lp1845
sI1300
(lp1846
sI1301
(lp1847
sI1302
(lp1848
sI1303
(lp1849
sI1304
(lp1850
sI1305
(lp1851
sI1306
(lp1852
sI1307
(lp1853
sI1308
(lp1854
sI1309
(lp1855
sI1310
(lp1856
sI1311
(lp1857
sI1312
(lp1858
sI1313
(lp1859
sI1314
(lp1860
sI1315
(lp1861
sI1316
(lp1862
sI1317
(lp1863
sI1318
(lp1864
sI1319
(lp1865
sI1320
(lp1866
sI1321
(lp1867
sI1322
(lp1868
sI1323
(lp1869
sI1324
(lp1870
sI1325
(lp1871
sI1326
(lp1872
sI1327
(lp1873
sI1328
(lp1874
sI1329
(lp1875
sI1330
(lp1876
sI1331
(lp1877
(lp1878
S'renewal'
p1879
aVmoney
p1880
aasI1332
(lp1881
sI1333
(lp1882
sI1334
(lp1883
sI1335
(lp1884
(lp1885
S'apps'
p1886
aVfunction
p1887
aasI1336
(lp1888
(lp1889
S'edge'
p1890
aVbluetooth
p1891
aasI1337
(lp1892
sI1338
(lp1893
sI1339
(lp1894
sI1340
(lp1895
sI1341
(lp1896
sI1342
(lp1897
sI1343
(lp1898
(lp1899
S'option'
p1900
aVsize
p1901
aa(lp1902
S'access'
p1903
aVplan
p1904
aasI1344
(lp1905
sI1345
(lp1906
sI1346
(lp1907
sI1347
(lp1908
sI1348
(lp1909
sI1349
(lp1910
sI1350
(lp1911
sI1351
(lp1912
sI1352
(lp1913
sI1353
(lp1914
sI1354
(lp1915
sI1355
(lp1916
sI1356
(lp1917
sI1357
(lp1918
sI1358
(lp1919
sI1359
(lp1920
sI1360
(lp1921
sI1361
(lp1922
(lp1923
S'internet'
p1924
aVcommunications
p1925
aa(lp1926
S'something'
p1927
aVtreo
p1928
aasI1362
(lp1929
sI1363
(lp1930
sI1364
(lp1931
sI1365
(lp1932
sI1366
(lp1933
sI1367
(lp1934
sI1368
(lp1935
sI1369
(lp1936
sI1370
(lp1937
sI1371
(lp1938
sI1372
(lp1939
sI1373
(lp1940
sI1374
(lp1941
sI1375
(lp1942
sI1376
(lp1943
sI1377
(lp1944
sI1378
(lp1945
sI1379
(lp1946
sI1380
(lp1947
sI1381
(lp1948
sI1382
(lp1949
sI1383
(lp1950
(lp1951
S'dissapears'
p1952
aVlight
p1953
aasI1384
(lp1954
sI1385
(lp1955
sI1386
(lp1956
sI1387
(lp1957
sI1388
(lp1958
(lp1959
S'ringtones'
p1960
aVpics
p1961
aasI1389
(lp1962
sI1390
(lp1963
sI1391
(lp1964
sI1392
(lp1965
sI1393
(lp1966
sI1394
(lp1967
sI1395
(lp1968
sI1396
(lp1969
sI1397
(lp1970
(lp1971
S'hook'
p1972
aVtruck
p1973
aasI1398
(lp1974
sI1399
(lp1975
sI1400
(lp1976
sI1401
(lp1977
sI1402
(lp1978
sI1403
(lp1979
sI1404
(lp1980
sI1405
(lp1981
sI1406
(lp1982
sI1407
(lp1983
sI1408
(lp1984
sI1409
(lp1985
sI1410
(lp1986
sI1411
(lp1987
(lp1988
S'headset'
p1989
aVradio
p1990
aasI1412
(lp1991
sI1413
(lp1992
sI1414
(lp1993
sI1415
(lp1994
sI1416
(lp1995
sI1417
(lp1996
sI1418
(lp1997
sI1419
(lp1998
sI1420
(lp1999
sI1421
(lp2000
sI1422
(lp2001
sI1423
(lp2002
sI1424
(lp2003
sI1425
(lp2004
(lp2005
S'nokia'
p2006
aVimports
p2007
aasI1426
(lp2008
sI1427
(lp2009
sI1428
(lp2010
sI1429
(lp2011
sI1430
(lp2012
sI1431
(lp2013
sI1432
(lp2014
sI1433
(lp2015
sI1434
(lp2016
sI1435
(lp2017
sI1436
(lp2018
sI1437
(lp2019
sI1438
(lp2020
sI1439
(lp2021
sI1440
(lp2022
sI1441
(lp2023
sI1442
(lp2024
sI1443
(lp2025
sI1444
(lp2026
(lp2027
S'graphics'
p2028
aVrings
p2029
aasI1445
(lp2030
(lp2031
S'work'
p2032
aVhome
p2033
aasI1446
(lp2034
(lp2035
S'applications'
p2036
aVgames
p2037
aa(lp2038
S'connection'
p2039
aVapplications
p2040
aasI1447
(lp2041
sI1448
(lp2042
(lp2043
S'movies'
p2044
aVweather
p2045
aa(lp2046
S'horoscopes'
p2047
aVmovies
p2048
aasI1449
(lp2049
sI1450
(lp2050
sI1451
(lp2051
sI1452
(lp2052
sI1453
(lp2053
sI1454
(lp2054
sI1455
(lp2055
sI1456
(lp2056
sI1457
(lp2057
sI1458
(lp2058
(lp2059
S'problems'
p2060
aVquestions
p2061
aasI1459
(lp2062
sI1460
(lp2063
sI1461
(lp2064
sI1462
(lp2065
sI1463
(lp2066
sI1464
(lp2067
sI1465
(lp2068
sI1466
(lp2069
(lp2070
S'functions'
p2071
aVmenus
p2072
aasI1467
(lp2073
sI1468
(lp2074
sI1469
(lp2075
sI1470
(lp2076
(lp2077
S'internet'
p2078
aVbrowser
p2079
aasI1471
(lp2080
sI1472
(lp2081
sI1473
(lp2082
sI1474
(lp2083
sI1475
(lp2084
sI1476
(lp2085
sI1477
(lp2086
sI1478
(lp2087
sI1479
(lp2088
sI1480
(lp2089
sI1481
(lp2090
sI1482
(lp2091
sI1483
(lp2092
sI1484
(lp2093
(lp2094
S'anything'
p2095
aVhiss
p2096
aasI1485
(lp2097
sI1486
(lp2098
sI1487
(lp2099
sI1488
(lp2100
(lp2101
S'ringtones'
p2102
aVgames
p2103
aasI1489
(lp2104
sI1490
(lp2105
sI1491
(lp2106
sI1492
(lp2107
(lp2108
S'weight'
p2109
aVsize
p2110
aasI1493
(lp2111
sI1494
(lp2112
sI1495
(lp2113
sI1496
(lp2114
sI1497
(lp2115
sI1498
(lp2116
sI1499
(lp2117
sI1500
(lp2118
sI1501
(lp2119
(lp2120
S'jukebox'
p2121
aVipod
p2122
aa(lp2123
S'player'
p2124
aVjukebox
p2125
aasI1502
(lp2126
sI1503
(lp2127
sI1504
(lp2128
sI1505
(lp2129
sI1506
(lp2130
sI1507
(lp2131
(lp2132
S'title'
p2133
aVartist
p2134
aa(lp2135
S'album'
p2136
aVtitle
p2137
aa(lp2138
S'genre'
p2139
aValbum
p2140
aasI1508
(lp2141
sI1509
(lp2142
sI1510
(lp2143
sI1511
(lp2144
sI1512
(lp2145
sI1513
(lp2146
sI1514
(lp2147
sI1515
(lp2148
sI1516
(lp2149
sI1517
(lp2150
sI1518
(lp2151
sI1519
(lp2152
sI1520
(lp2153
sI1521
(lp2154
sI1522
(lp2155
sI1523
(lp2156
sI1524
(lp2157
sI1525
(lp2158
sI1526
(lp2159
sI1527
(lp2160
sI1528
(lp2161
(lp2162
S'mp3s'
p2163
aVheadphone
p2164
aasI1529
(lp2165
sI1530
(lp2166
sI1531
(lp2167
sI1532
(lp2168
sI1533
(lp2169
sI1534
(lp2170
sI1535
(lp2171
sI1536
(lp2172
sI1537
(lp2173
sI1538
(lp2174
(lp2175
S'customers'
p2176
aVresellers
p2177
aa(lp2178
S'employees'
p2179
aVcustomers
p2180
aasI1539
(lp2181
sI1540
(lp2182
sI1541
(lp2183
sI1542
(lp2184
sI1543
(lp2185
sI1544
(lp2186
sI1545
(lp2187
sI1546
(lp2188
sI1547
(lp2189
sI1548
(lp2190
sI1549
(lp2191
sI1550
(lp2192
sI1551
(lp2193
sI1552
(lp2194
sI1553
(lp2195
sI1554
(lp2196
sI1555
(lp2197
sI1556
(lp2198
sI1557
(lp2199
sI1558
(lp2200
sI1559
(lp2201
sI1560
(lp2202
sI1561
(lp2203
sI1562
(lp2204
sI1563
(lp2205
sI1564
(lp2206
sI1565
(lp2207
sI1566
(lp2208
(lp2209
S'set'
p2210
aVheadphones
p2211
aasI1567
(lp2212
sI1568
(lp2213
sI1569
(lp2214
sI1570
(lp2215
sI1571
(lp2216
sI1572
(lp2217
sI1573
(lp2218
sI1574
(lp2219
sI1575
(lp2220
sI1576
(lp2221
sI1577
(lp2222
sI1578
(lp2223
sI1579
(lp2224
sI1580
(lp2225
(lp2226
S'storage'
p2227
aVmusic
p2228
aasI1581
(lp2229
sI1582
(lp2230
sI1583
(lp2231
(lp2232
S'usb'
p2233
aVxp
p2234
aasI1584
(lp2235
(lp2236
S'software'
p2237
aVdrivers
p2238
aasI1585
(lp2239
(lp2240
S'use'
p2241
aVanything
p2242
aasI1586
(lp2243
sI1587
(lp2244
sI1588
(lp2245
sI1589
(lp2246
sI1590
(lp2247
sI1591
(lp2248
sI1592
(lp2249
sI1593
(lp2250
sI1594
(lp2251
sI1595
(lp2252
sI1596
(lp2253
sI1597
(lp2254
sI1598
(lp2255
sI1599
(lp2256
sI1600
(lp2257
(lp2258
S'xtra'
p2259
aVipod
p2260
aasI1601
(lp2261
sI1602
(lp2262
sI1603
(lp2263
sI1604
(lp2264
sI1605
(lp2265
sI1606
(lp2266
sI1607
(lp2267
sI1608
(lp2268
sI1609
(lp2269
sI1610
(lp2270
sI1611
(lp2271
sI1612
(lp2272
sI1613
(lp2273
sI1614
(lp2274
sI1615
(lp2275
sI1616
(lp2276
sI1617
(lp2277
sI1618
(lp2278
sI1619
(lp2279
sI1620
(lp2280
sI1621
(lp2281
sI1622
(lp2282
sI1623
(lp2283
sI1624
(lp2284
sI1625
(lp2285
sI1626
(lp2286
sI1627
(lp2287
sI1628
(lp2288
sI1629
(lp2289
sI1630
(lp2290
sI1631
(lp2291
sI1632
(lp2292
sI1633
(lp2293
sI1634
(lp2294
sI1635
(lp2295
sI1636
(lp2296
sI1637
(lp2297
sI1638
(lp2298
sI1639
(lp2299
sI1640
(lp2300
sI1641
(lp2301
sI1642
(lp2302
sI1643
(lp2303
sI1644
(lp2304
sI1645
(lp2305
sI1646
(lp2306
sI1647
(lp2307
sI1648
(lp2308
sI1649
(lp2309
sI1650
(lp2310
sI1651
(lp2311
sI1652
(lp2312
sI1653
(lp2313
sI1654
(lp2314
sI1655
(lp2315
sI1656
(lp2316
(lp2317
S'gigs'
p2318
aVbaby
p2319
aasI1657
(lp2320
sI1658
(lp2321
sI1659
(lp2322
sI1660
(lp2323
sI1661
(lp2324
sI1662
(lp2325
(lp2326
S'ipod'
p2327
aVarchos
p2328
aasI1663
(lp2329
sI1664
(lp2330
sI1665
(lp2331
sI1666
(lp2332
sI1667
(lp2333
sI1668
(lp2334
sI1669
(lp2335
sI1670
(lp2336
(lp2337
S'audio'
p2338
aVmusic
p2339
aasI1671
(lp2340
sI1672
(lp2341
sI1673
(lp2342
sI1674
(lp2343
sI1675
(lp2344
sI1676
(lp2345
sI1677
(lp2346
sI1678
(lp2347
sI1679
(lp2348
sI1680
(lp2349
sI1681
(lp2350
sI1682
(lp2351
sI1683
(lp2352
sI1684
(lp2353
sI1685
(lp2354
sI1686
(lp2355
sI1687
(lp2356
sI1688
(lp2357
sI1689
(lp2358
sI1690
(lp2359
sI1691
(lp2360
sI1692
(lp2361
sI1693
(lp2362
sI1694
(lp2363
sI1695
(lp2364
(lp2365
S'usb'
p2366
aVkarma
p2367
aasI1696
(lp2368
sI1697
(lp2369
sI1698
(lp2370
sI1699
(lp2371
sI1700
(lp2372
sI1701
(lp2373
sI1702
(lp2374
sI1703
(lp2375
sI1704
(lp2376
sI1705
(lp2377
sI1706
(lp2378
sI1707
(lp2379
sI1708
(lp2380
sI1709
(lp2381
sI1710
(lp2382
sI1711
(lp2383
sI1712
(lp2384
sI1713
(lp2385
sI1714
(lp2386
sI1715
(lp2387
sI1716
(lp2388
sI1717
(lp2389
sI1718
(lp2390
sI1719
(lp2391
sI1720
(lp2392
sI1721
(lp2393
sI1722
(lp2394
sI1723
(lp2395
sI1724
(lp2396
sI1725
(lp2397
sI1726
(lp2398
sI1727
(lp2399
sI1728
(lp2400
sI1729
(lp2401
sI1730
(lp2402
sI1731
(lp2403
sI1732
(lp2404
sI1733
(lp2405
sI1734
(lp2406
sI1735
(lp2407
sI1736
(lp2408
sI1737
(lp2409
sI1738
(lp2410
sI1739
(lp2411
sI1740
(lp2412
sI1741
(lp2413
sI1742
(lp2414
sI1743
(lp2415
sI1744
(lp2416
sI1745
(lp2417
sI1746
(lp2418
sI1747
(lp2419
sI1748
(lp2420
sI1749
(lp2421
sI1750
(lp2422
sI1751
(lp2423
sI1752
(lp2424
sI1753
(lp2425
(lp2426
S'software'
p2427
aVinterface
p2428
aasI1754
(lp2429
sI1755
(lp2430
sI1756
(lp2431
sI1757
(lp2432
sI1758
(lp2433
sI1759
(lp2434
sI1760
(lp2435
sI1761
(lp2436
sI1762
(lp2437
sI1763
(lp2438
sI1764
(lp2439
sI1765
(lp2440
sI1766
(lp2441
sI1767
(lp2442
sI1768
(lp2443
sI1769
(lp2444
sI1770
(lp2445
sI1771
(lp2446
sI1772
(lp2447
sI1773
(lp2448
sI1774
(lp2449
sI1775
(lp2450
sI1776
(lp2451
sI1777
(lp2452
sI1778
(lp2453
sI1779
(lp2454
sI1780
(lp2455
sI1781
(lp2456
sI1782
(lp2457
sI1783
(lp2458
sI1784
(lp2459
sI1785
(lp2460
sI1786
(lp2461
sI1787
(lp2462
sI1788
(lp2463
sI1789
(lp2464
sI1790
(lp2465
(lp2466
S'process'
p2467
aVsetup
p2468
aasI1791
(lp2469
sI1792
(lp2470
sI1793
(lp2471
(lp2472
S'genres'
p2473
aVtitles
p2474
aasI1794
(lp2475
sI1795
(lp2476
sI1796
(lp2477
sI1797
(lp2478
(lp2479
S'something'
p2480
aVprocess
p2481
aasI1798
(lp2482
sI1799
(lp2483
sI1800
(lp2484
sI1801
(lp2485
sI1802
(lp2486
sI1803
(lp2487
sI1804
(lp2488
sI1805
(lp2489
sI1806
(lp2490
sI1807
(lp2491
sI1808
(lp2492
sI1809
(lp2493
sI1810
(lp2494
sI1811
(lp2495
sI1812
(lp2496
sI1813
(lp2497
sI1814
(lp2498
(lp2499
S'music'
p2500
aVplaylist
p2501
aasI1815
(lp2502
sI1816
(lp2503
(lp2504
S'earbuds'
p2505
aVheadphones
p2506
aasI1817
(lp2507
sI1818
(lp2508
(lp2509
S'music'
p2510
aVjazz
p2511
aasI1819
(lp2512
sI1820
(lp2513
sI1821
(lp2514
sI1822
(lp2515
sI1823
(lp2516
(lp2517
S'software'
p2518
aVhardware
p2519
aa(lp2520
S'quality'
p2521
aVsoftware
p2522
aa(lp2523
S'value'
p2524
aVquality
p2525
aasI1824
(lp2526
sI1825
(lp2527
(lp2528
S'issue'
p2529
aVipod
p2530
aasI1826
(lp2531
sI1827
(lp2532
sI1828
(lp2533
sI1829
(lp2534
sI1830
(lp2535
sI1831
(lp2536
sI1832
(lp2537
sI1833
(lp2538
sI1834
(lp2539
sI1835
(lp2540
sI1836
(lp2541
sI1837
(lp2542
sI1838
(lp2543
sI1839
(lp2544
sI1840
(lp2545
sI1841
(lp2546
sI1842
(lp2547
sI1843
(lp2548
sI1844
(lp2549
sI1845
(lp2550
sI1846
(lp2551
sI1847
(lp2552
sI1848
(lp2553
sI1849
(lp2554
sI1850
(lp2555
sI1851
(lp2556
sI1852
(lp2557
sI1853
(lp2558
sI1854
(lp2559
sI1855
(lp2560
sI1856
(lp2561
sI1857
(lp2562
sI1858
(lp2563
sI1859
(lp2564
sI1860
(lp2565
sI1861
(lp2566
sI1862
(lp2567
sI1863
(lp2568
sI1864
(lp2569
sI1865
(lp2570
sI1866
(lp2571
sI1867
(lp2572
sI1868
(lp2573
sI1869
(lp2574
sI1870
(lp2575
sI1871
(lp2576
sI1872
(lp2577
sI1873
(lp2578
sI1874
(lp2579
sI1875
(lp2580
sI1876
(lp2581
sI1877
(lp2582
sI1878
(lp2583
sI1879
(lp2584
sI1880
(lp2585
sI1881
(lp2586
sI1882
(lp2587
sI1883
(lp2588
sI1884
(lp2589
sI1885
(lp2590
sI1886
(lp2591
sI1887
(lp2592
sI1888
(lp2593
sI1889
(lp2594
sI1890
(lp2595
sI1891
(lp2596
sI1892
(lp2597
sI1893
(lp2598
sI1894
(lp2599
sI1895
(lp2600
sI1896
(lp2601
sI1897
(lp2602
sI1898
(lp2603
(lp2604
S'os'
p2605
aV/
aasI1899
(lp2606
(lp2607
S'cd'
p2608
aVsong
p2609
aasI1900
(lp2610
sI1901
(lp2611
sI1902
(lp2612
sI1903
(lp2613
sI1904
(lp2614
(lp2615
S'wheel'
p2616
aVproblem
p2617
aasI1905
(lp2618
sI1906
(lp2619
sI1907
(lp2620
sI1908
(lp2621
sI1909
(lp2622
sI1910
(lp2623
sI1911
(lp2624
sI1912
(lp2625
sI1913
(lp2626
sI1914
(lp2627
sI1915
(lp2628
sI1916
(lp2629
sI1917
(lp2630
sI1918
(lp2631
sI1919
(lp2632
sI1920
(lp2633
sI1921
(lp2634
sI1922
(lp2635
sI1923
(lp2636
sI1924
(lp2637
sI1925
(lp2638
sI1926
(lp2639
sI1927
(lp2640
sI1928
(lp2641
sI1929
(lp2642
sI1930
(lp2643
sI1931
(lp2644
sI1932
(lp2645
sI1933
(lp2646
sI1934
(lp2647
sI1935
(lp2648
sI1936
(lp2649
sI1937
(lp2650
sI1938
(lp2651
sI1939
(lp2652
sI1940
(lp2653
sI1941
(lp2654
sI1942
(lp2655
sI1943
(lp2656
sI1944
(lp2657
sI1945
(lp2658
sI1946
(lp2659
sI1947
(lp2660
sI1948
(lp2661
sI1949
(lp2662
sI1950
(lp2663
sI1951
(lp2664
sI1952
(lp2665
sI1953
(lp2666
sI1954
(lp2667
sI1955
(lp2668
sI1956
(lp2669
sI1957
(lp2670
sI1958
(lp2671
sI1959
(lp2672
sI1960
(lp2673
sI1961
(lp2674
sI1962
(lp2675
sI1963
(lp2676
sI1964
(lp2677
sI1965
(lp2678
sI1966
(lp2679
sI1967
(lp2680
sI1968
(lp2681
sI1969
(lp2682
sI1970
(lp2683
sI1971
(lp2684
sI1972
(lp2685
sI1973
(lp2686
sI1974
(lp2687
sI1975
(lp2688
sI1976
(lp2689
sI1977
(lp2690
sI1978
(lp2691
(lp2692
S'disk'
p2693
aVplayer
p2694
aasI1979
(lp2695
sI1980
(lp2696
sI1981
(lp2697
sI1982
(lp2698
sI1983
(lp2699
sI1984
(lp2700
sI1985
(lp2701
sI1986
(lp2702
sI1987
(lp2703
sI1988
(lp2704
sI1989
(lp2705
sI1990
(lp2706
sI1991
(lp2707
sI1992
(lp2708
sI1993
(lp2709
sI1994
(lp2710
sI1995
(lp2711
sI1996
(lp2712
sI1997
(lp2713
sI1998
(lp2714
(lp2715
S'light'
p2716
aVg
aasI1999
(lp2717
sI2000
(lp2718
sI2001
(lp2719
sI2002
(lp2720
sI2003
(lp2721
sI2004
(lp2722
sI2005
(lp2723
sI2006
(lp2724
sI2007
(lp2725
(lp2726
S'answer'
p2727
aValbum
p2728
aasI2008
(lp2729
sI2009
(lp2730
sI2010
(lp2731
sI2011
(lp2732
sI2012
(lp2733
sI2013
(lp2734
sI2014
(lp2735
sI2015
(lp2736
sI2016
(lp2737
sI2017
(lp2738
sI2018
(lp2739
sI2019
(lp2740
(lp2741
S'album'
p2742
aVartist
p2743
aa(lp2744
S'genre'
p2745
aValbum
p2746
aasI2020
(lp2747
sI2021
(lp2748
(lp2749
S'iriver'
p2750
aVnomad
p2751
aasI2022
(lp2752
sI2023
(lp2753
sI2024
(lp2754
sI2025
(lp2755
sI2026
(lp2756
sI2027
(lp2757
sI2028
(lp2758
sI2029
(lp2759
sI2030
(lp2760
sI2031
(lp2761
sI2032
(lp2762
sI2033
(lp2763
(lp2764
S'compatibility'
p2765
aVservices
p2766
aasI2034
(lp2767
(lp2768
S'capacity'
p2769
aVquality
p2770
aasI2035
(lp2771
sI2036
(lp2772
sI2037
(lp2773
sI2038
(lp2774
sI2039
(lp2775
sI2040
(lp2776
sI2041
(lp2777
(lp2778
S'size'
p2779
aVstyle
p2780
aa(lp2781
S'ease'
p2782
aVsize
p2783
aasI2042
(lp2784
sI2043
(lp2785
sI2044
(lp2786
sI2045
(lp2787
sI2046
(lp2788
sI2047
(lp2789
sI2048
(lp2790
sI2049
(lp2791
sI2050
(lp2792
sI2051
(lp2793
sI2052
(lp2794
sI2053
(lp2795
sI2054
(lp2796
sI2055
(lp2797
sI2056
(lp2798
sI2057
(lp2799
sI2058
(lp2800
sI2059
(lp2801
sI2060
(lp2802
sI2061
(lp2803
sI2062
(lp2804
sI2063
(lp2805
sI2064
(lp2806
sI2065
(lp2807
sI2066
(lp2808
sI2067
(lp2809
sI2068
(lp2810
sI2069
(lp2811
sI2070
(lp2812
sI2071
(lp2813
sI2072
(lp2814
sI2073
(lp2815
sI2074
(lp2816
sI2075
(lp2817
sI2076
(lp2818
sI2077
(lp2819
sI2078
(lp2820
sI2079
(lp2821
sI2080
(lp2822
sI2081
(lp2823
sI2082
(lp2824
sI2083
(lp2825
sI2084
(lp2826
sI2085
(lp2827
sI2086
(lp2828
sI2087
(lp2829
(lp2830
S'none'
p2831
aVbuttons
p2832
aasI2088
(lp2833
sI2089
(lp2834
sI2090
(lp2835
sI2091
(lp2836
(lp2837
S'customization'
p2838
aVeax
p2839
aasI2092
(lp2840
sI2093
(lp2841
sI2094
(lp2842
sI2095
(lp2843
sI2096
(lp2844
sI2097
(lp2845
sI2098
(lp2846
sI2099
(lp2847
sI2100
(lp2848
(lp2849
S'sound'
p2850
aVprice
p2851
aa(lp2852
S'ease'
p2853
aVsound
p2854
aa(lp2855
S'features'
p2856
aVuse
p2857
aasI2101
(lp2858
sI2102
(lp2859
(lp2860
S'software'
p2861
aVplayer
p2862
aasI2103
(lp2863
sI2104
(lp2864
sI2105
(lp2865
sI2106
(lp2866
sI2107
(lp2867
sI2108
(lp2868
sI2109
(lp2869
sI2110
(lp2870
sI2111
(lp2871
sI2112
(lp2872
sI2113
(lp2873
sI2114
(lp2874
sI2115
(lp2875
sI2116
(lp2876
sI2117
(lp2877
sI2118
(lp2878
sI2119
(lp2879
sI2120
(lp2880
sI2121
(lp2881
sI2122
(lp2882
sI2123
(lp2883
sI2124
(lp2884
sI2125
(lp2885
sI2126
(lp2886
sI2127
(lp2887
sI2128
(lp2888
sI2129
(lp2889
sI2130
(lp2890
sI2131
(lp2891
sI2132
(lp2892
(lp2893
S'problems'
p2894
aVcrashes
p2895
aasI2133
(lp2896
sI2134
(lp2897
sI2135
(lp2898
sI2136
(lp2899
sI2137
(lp2900
sI2138
(lp2901
sI2139
(lp2902
sI2140
(lp2903
sI2141
(lp2904
sI2142
(lp2905
sI2143
(lp2906
sI2144
(lp2907
sI2145
(lp2908
sI2146
(lp2909
sI2147
(lp2910
sI2148
(lp2911
sI2149
(lp2912
sI2150
(lp2913
sI2151
(lp2914
(lp2915
S'size'
p2916
aVquality
p2917
aa(lp2918
S'price'
p2919
aVsize
p2920
aasI2152
(lp2921
sI2153
(lp2922
sI2154
(lp2923
sI2155
(lp2924
sI2156
(lp2925
sI2157
(lp2926
sI2158
(lp2927
sI2159
(lp2928
sI2160
(lp2929
sI2161
(lp2930
sI2162
(lp2931
sI2163
(lp2932
sI2164
(lp2933
sI2165
(lp2934
sI2166
(lp2935
sI2167
(lp2936
sI2168
(lp2937
sI2169
(lp2938
sI2170
(lp2939
sI2171
(lp2940
sI2172
(lp2941
sI2173
(lp2942
sI2174
(lp2943
sI2175
(lp2944
sI2176
(lp2945
sI2177
(lp2946
sI2178
(lp2947
sI2179
(lp2948
sI2180
(lp2949
sI2181
(lp2950
sI2182
(lp2951
sI2183
(lp2952
sI2184
(lp2953
sI2185
(lp2954
sI2186
(lp2955
sI2187
(lp2956
sI2188
(lp2957
sI2189
(lp2958
sI2190
(lp2959
sI2191
(lp2960
sI2192
(lp2961
sI2193
(lp2962
sI2194
(lp2963
sI2195
(lp2964
sI2196
(lp2965
sI2197
(lp2966
sI2198
(lp2967
sI2199
(lp2968
sI2200
(lp2969
sI2201
(lp2970
sI2202
(lp2971
sI2203
(lp2972
sI2204
(lp2973
sI2205
(lp2974
sI2206
(lp2975
sI2207
(lp2976
sI2208
(lp2977
sI2209
(lp2978
sI2210
(lp2979
sI2211
(lp2980
sI2212
(lp2981
sI2213
(lp2982
sI2214
(lp2983
sI2215
(lp2984
sI2216
(lp2985
sI2217
(lp2986
sI2218
(lp2987
sI2219
(lp2988
sI2220
(lp2989
sI2221
(lp2990
sI2222
(lp2991
sI2223
(lp2992
(lp2993
S'size'
p2994
aVprice
p2995
aa(lp2996
S'features'
p2997
aVsize
p2998
aasI2224
(lp2999
sI2225
(lp3000
(lp3001
S'protection'
p3002
aVdampening
p3003
aasI2226
(lp3004
(lp3005
S'interface'
p3006
aVbuttons
p3007
aasI2227
(lp3008
(lp3009
S'volume'
p3010
aVbuttons
p3011
aa(lp3012
S'display'
p3013
aVvolume
p3014
aasI2228
(lp3015
sI2229
(lp3016
sI2230
(lp3017
sI2231
(lp3018
sI2232
(lp3019
sI2233
(lp3020
sI2234
(lp3021
sI2235
(lp3022
sI2236
(lp3023
sI2237
(lp3024
(lp3025
S'price'
p3026
aVstorage
p3027
aasI2238
(lp3028
sI2239
(lp3029
sI2240
(lp3030
sI2241
(lp3031
sI2242
(lp3032
sI2243
(lp3033
sI2244
(lp3034
sI2245
(lp3035
sI2246
(lp3036
sI2247
(lp3037
sI2248
(lp3038
sI2249
(lp3039
sI2250
(lp3040
sI2251
(lp3041
sI2252
(lp3042
sI2253
(lp3043
sI2254
(lp3044
sI2255
(lp3045
sI2256
(lp3046
sI2257
(lp3047
sI2258
(lp3048
sI2259
(lp3049
sI2260
(lp3050
sI2261
(lp3051
sI2262
(lp3052
sI2263
(lp3053
sI2264
(lp3054
(lp3055
S'repeat'
p3056
aVuse
p3057
aa(lp3058
S'playlists'
p3059
aVselections
p3060
aasI2265
(lp3061
sI2266
(lp3062
sI2267
(lp3063
sI2268
(lp3064
sI2269
(lp3065
sI2270
(lp3066
sI2271
(lp3067
sI2272
(lp3068
sI2273
(lp3069
sI2274
(lp3070
sI2275
(lp3071
sI2276
(lp3072
sI2277
(lp3073
sI2278
(lp3074
sI2279
(lp3075
(lp3076
S'hundreds'
p3077
aVtracks
p3078
aa(lp3079
S'artists'
p3080
aValbums
p3081
aasI2280
(lp3082
sI2281
(lp3083
sI2282
(lp3084
sI2283
(lp3085
sI2284
(lp3086
sI2285
(lp3087
sI2286
(lp3088
sI2287
(lp3089
sI2288
(lp3090
sI2289
(lp3091
sI2290
(lp3092
sI2291
(lp3093
sI2292
(lp3094
sI2293
(lp3095
sI2294
(lp3096
sI2295
(lp3097
sI2296
(lp3098
sI2297
(lp3099
sI2298
(lp3100
sI2299
(lp3101
sI2300
(lp3102
(lp3103
S'price'
p3104
aVsize
p3105
aasI2301
(lp3106
sI2302
(lp3107
sI2303
(lp3108
sI2304
(lp3109
sI2305
(lp3110
sI2306
(lp3111
sI2307
(lp3112
sI2308
(lp3113
sI2309
(lp3114
sI2310
(lp3115
sI2311
(lp3116
sI2312
(lp3117
sI2313
(lp3118
sI2314
(lp3119
sI2315
(lp3120
sI2316
(lp3121
sI2317
(lp3122
sI2318
(lp3123
sI2319
(lp3124
sI2320
(lp3125
sI2321
(lp3126
sI2322
(lp3127
sI2323
(lp3128
sI2324
(lp3129
sI2325
(lp3130
sI2326
(lp3131
sI2327
(lp3132
sI2328
(lp3133
(lp3134
S'something'
p3135
aVface
p3136
aasI2329
(lp3137
sI2330
(lp3138
sI2331
(lp3139
sI2332
(lp3140
sI2333
(lp3141
sI2334
(lp3142
sI2335
(lp3143
sI2336
(lp3144
sI2337
(lp3145
sI2338
(lp3146
sI2339
(lp3147
sI2340
(lp3148
sI2341
(lp3149
(lp3150
S'women'
p3151
aVmen
p3152
aasI2342
(lp3153
sI2343
(lp3154
sI2344
(lp3155
sI2345
(lp3156
sI2346
(lp3157
(lp3158
S'player'
p3159
aVexperience
p3160
aasI2347
(lp3161
sI2348
(lp3162
sI2349
(lp3163
sI2350
(lp3164
sI2351
(lp3165
sI2352
(lp3166
sI2353
(lp3167
sI2354
(lp3168
sI2355
(lp3169
sI2356
(lp3170
sI2357
(lp3171
sI2358
(lp3172
sI2359
(lp3173
sI2360
(lp3174
sI2361
(lp3175
sI2362
(lp3176
sI2363
(lp3177
sI2364
(lp3178
sI2365
(lp3179
sI2366
(lp3180
sI2367
(lp3181
sI2368
(lp3182
sI2369
(lp3183
sI2370
(lp3184
sI2371
(lp3185
sI2372
(lp3186
sI2373
(lp3187
(lp3188
S'tracks'
p3189
aVcd
p3190
aasI2374
(lp3191
sI2375
(lp3192
(lp3193
S'performance'
p3194
aVartist
p3195
aasI2376
(lp3196
sI2377
(lp3197
sI2378
(lp3198
sI2379
(lp3199
sI2380
(lp3200
sI2381
(lp3201
sI2382
(lp3202
sI2383
(lp3203
sI2384
(lp3204
sI2385
(lp3205
sI2386
(lp3206
sI2387
(lp3207
sI2388
(lp3208
sI2389
(lp3209
sI2390
(lp3210
sI2391
(lp3211
sI2392
(lp3212
sI2393
(lp3213
sI2394
(lp3214
sI2395
(lp3215
sI2396
(lp3216
sI2397
(lp3217
sI2398
(lp3218
sI2399
(lp3219
sI2400
(lp3220
sI2401
(lp3221
sI2402
(lp3222
sI2403
(lp3223
sI2404
(lp3224
sI2405
(lp3225
sI2406
(lp3226
sI2407
(lp3227
sI2408
(lp3228
sI2409
(lp3229
(lp3230
S'player'
p3231
aVdevice
p3232
aasI2410
(lp3233
(lp3234
S'computer'
p3235
aVcontent
p3236
aasI2411
(lp3237
sI2412
(lp3238
sI2413
(lp3239
sI2414
(lp3240
sI2415
(lp3241
sI2416
(lp3242
sI2417
(lp3243
sI2418
(lp3244
sI2419
(lp3245
sI2420
(lp3246
sI2421
(lp3247
sI2422
(lp3248
sI2423
(lp3249
sI2424
(lp3250
sI2425
(lp3251
sI2426
(lp3252
sI2427
(lp3253
sI2428
(lp3254
sI2429
(lp3255
sI2430
(lp3256
sI2431
(lp3257
sI2432
(lp3258
sI2433
(lp3259
sI2434
(lp3260
sI2435
(lp3261
sI2436
(lp3262
(lp3263
S'life'
p3264
aVstorage
p3265
aasI2437
(lp3266
sI2438
(lp3267
sI2439
(lp3268
sI2440
(lp3269
sI2441
(lp3270
sI2442
(lp3271
sI2443
(lp3272
sI2444
(lp3273
sI2445
(lp3274
sI2446
(lp3275
sI2447
(lp3276
sI2448
(lp3277
sI2449
(lp3278
sI2450
(lp3279
sI2451
(lp3280
sI2452
(lp3281
sI2453
(lp3282
sI2454
(lp3283
sI2455
(lp3284
sI2456
(lp3285
sI2457
(lp3286
sI2458
(lp3287
sI2459
(lp3288
sI2460
(lp3289
sI2461
(lp3290
sI2462
(lp3291
sI2463
(lp3292
sI2464
(lp3293
sI2465
(lp3294
sI2466
(lp3295
sI2467
(lp3296
sI2468
(lp3297
sI2469
(lp3298
sI2470
(lp3299
sI2471
(lp3300
sI2472
(lp3301
sI2473
(lp3302
(lp3303
S'name'
p3304
aVartist
p3305
aasI2474
(lp3306
sI2475
(lp3307
sI2476
(lp3308
sI2477
(lp3309
sI2478
(lp3310
(lp3311
S'cons'
p3312
aVpros
p3313
aasI2479
(lp3314
sI2480
(lp3315
sI2481
(lp3316
sI2482
(lp3317
sI2483
(lp3318
sI2484
(lp3319
sI2485
(lp3320
sI2486
(lp3321
sI2487
(lp3322
sI2488
(lp3323
sI2489
(lp3324
sI2490
(lp3325
sI2491
(lp3326
sI2492
(lp3327
sI2493
(lp3328
sI2494
(lp3329
sI2495
(lp3330
sI2496
(lp3331
(lp3332
S'ive'
p3333
aVsound
p3334
aasI2497
(lp3335
sI2498
(lp3336
sI2499
(lp3337
sI2500
(lp3338
sI2501
(lp3339
sI2502
(lp3340
sI2503
(lp3341
sI2504
(lp3342
sI2505
(lp3343
sI2506
(lp3344
sI2507
(lp3345
sI2508
(lp3346
sI2509
(lp3347
sI2510
(lp3348
sI2511
(lp3349
sI2512
(lp3350
(lp3351
S'capacity'
p3352
aVprice
p3353
aasI2513
(lp3354
(lp3355
S'interface'
p3356
aVdesign
p3357
aasI2514
(lp3358
sI2515
(lp3359
sI2516
(lp3360
sI2517
(lp3361
sI2518
(lp3362
sI2519
(lp3363
sI2520
(lp3364
sI2521
(lp3365
sI2522
(lp3366
sI2523
(lp3367
sI2524
(lp3368
sI2525
(lp3369
sI2526
(lp3370
sI2527
(lp3371
sI2528
(lp3372
sI2529
(lp3373
(lp3374
S'genre'
p3375
aVname
p3376
aasI2530
(lp3377
sI2531
(lp3378
sI2532
(lp3379
sI2533
(lp3380
sI2534
(lp3381
sI2535
(lp3382
sI2536
(lp3383
sI2537
(lp3384
sI2538
(lp3385
sI2539
(lp3386
sI2540
(lp3387
(lp3388
S'player'
p3389
aVsoftware
p3390
aasI2541
(lp3391
sI2542
(lp3392
sI2543
(lp3393
sI2544
(lp3394
sI2545
(lp3395
sI2546
(lp3396
sI2547
(lp3397
sI2548
(lp3398
sI2549
(lp3399
sI2550
(lp3400
(lp3401
S'zen'
p3402
aVplayer
p3403
aa(lp3404
S'capacity'
p3405
aVprice
p3406
aa(lp3407
S'features'
p3408
aVcapacity
p3409
aasI2551
(lp3410
sI2552
(lp3411
sI2553
(lp3412
sI2554
(lp3413
sI2555
(lp3414
(lp3415
S'case'
p3416
aVsystem
p3417
aasI2556
(lp3418
sI2557
(lp3419
(lp3420
S'week'
p3421
aVflight
p3422
aasI2558
(lp3423
sI2559
(lp3424
(lp3425
S'specs'
p3426
aVprice
p3427
aasI2560
(lp3428
sI2561
(lp3429
sI2562
(lp3430
sI2563
(lp3431
sI2564
(lp3432
sI2565
(lp3433
sI2566
(lp3434
sI2567
(lp3435
sI2568
(lp3436
sI2569
(lp3437
sI2570
(lp3438
sI2571
(lp3439
sI2572
(lp3440
sI2573
(lp3441
sI2574
(lp3442
sI2575
(lp3443
sI2576
(lp3444
sI2577
(lp3445
sI2578
(lp3446
sI2579
(lp3447
sI2580
(lp3448
sI2581
(lp3449
sI2582
(lp3450
sI2583
(lp3451
sI2584
(lp3452
sI2585
(lp3453
sI2586
(lp3454
sI2587
(lp3455
sI2588
(lp3456
sI2589
(lp3457
sI2590
(lp3458
sI2591
(lp3459
sI2592
(lp3460
sI2593
(lp3461
sI2594
(lp3462
sI2595
(lp3463
sI2596
(lp3464
sI2597
(lp3465
sI2598
(lp3466
sI2599
(lp3467
sI2600
(lp3468
sI2601
(lp3469
sI2602
(lp3470
sI2603
(lp3471
sI2604
(lp3472
(lp3473
S'start'
p3474
aVtrack
p3475
aasI2605
(lp3476
sI2606
(lp3477
sI2607
(lp3478
sI2608
(lp3479
sI2609
(lp3480
(lp3481
S'rip'
p3482
aVtag
p3483
aasI2610
(lp3484
sI2611
(lp3485
sI2612
(lp3486
sI2613
(lp3487
sI2614
(lp3488
sI2615
(lp3489
sI2616
(lp3490
sI2617
(lp3491
sI2618
(lp3492
sI2619
(lp3493
sI2620
(lp3494
sI2621
(lp3495
sI2622
(lp3496
sI2623
(lp3497
sI2624
(lp3498
sI2625
(lp3499
sI2626
(lp3500
sI2627
(lp3501
(lp3502
S'programs'
p3503
aVdocuments
p3504
aasI2628
(lp3505
sI2629
(lp3506
sI2630
(lp3507
sI2631
(lp3508
sI2632
(lp3509
(lp3510
S'version'
p3511
aVcopy
p3512
aasI2633
(lp3513
sI2634
(lp3514
sI2635
(lp3515
sI2636
(lp3516
sI2637
(lp3517
sI2638
(lp3518
sI2639
(lp3519
sI2640
(lp3520
sI2641
(lp3521
sI2642
(lp3522
sI2643
(lp3523
sI2644
(lp3524
sI2645
(lp3525
sI2646
(lp3526
sI2647
(lp3527
sI2648
(lp3528
(lp3529
S'notmad'
p3530
aVwinamp
p3531
aasI2649
(lp3532
sI2650
(lp3533
sI2651
(lp3534
sI2652
(lp3535
sI2653
(lp3536
sI2654
(lp3537
sI2655
(lp3538
sI2656
(lp3539
sI2657
(lp3540
sI2658
(lp3541
sI2659
(lp3542
sI2660
(lp3543
sI2661
(lp3544
(lp3545
S'tapes'
p3546
aVcd
p3547
aasI2662
(lp3548
sI2663
(lp3549
sI2664
(lp3550
sI2665
(lp3551
sI2666
(lp3552
sI2667
(lp3553
sI2668
(lp3554
sI2669
(lp3555
sI2670
(lp3556
sI2671
(lp3557
sI2672
(lp3558
sI2673
(lp3559
sI2674
(lp3560
sI2675
(lp3561
sI2676
(lp3562
sI2677
(lp3563
(lp3564
S'albums'
p3565
aVsongs
p3566
aasI2678
(lp3567
sI2679
(lp3568
sI2680
(lp3569
sI2681
(lp3570
(lp3571
S'something'
p3572
aVmicrosoft
p3573
aasI2682
(lp3574
sI2683
(lp3575
sI2684
(lp3576
sI2685
(lp3577
sI2686
(lp3578
sI2687
(lp3579
sI2688
(lp3580
sI2689
(lp3581
(lp3582
S'ipod'
p3583
aVxtra
p3584
aasI2690
(lp3585
sI2691
(lp3586
sI2692
(lp3587
(lp3588
S'vice'
p3589
aVcomputer
p3590
aasI2693
(lp3591
sI2694
(lp3592
sI2695
(lp3593
sI2696
(lp3594
sI2697
(lp3595
(lp3596
S'base'
p3597
aVpanel
p3598
aasI2698
(lp3599
sI2699
(lp3600
sI2700
(lp3601
sI2701
(lp3602
sI2702
(lp3603
sI2703
(lp3604
sI2704
(lp3605
sI2705
(lp3606
(lp3607
S'software'
p3608
aVwheel
p3609
aasI2706
(lp3610
sI2707
(lp3611
sI2708
(lp3612
sI2709
(lp3613
sI2710
(lp3614
sI2711
(lp3615
sI2712
(lp3616
sI2713
(lp3617
sI2714
(lp3618
sI2715
(lp3619
sI2716
(lp3620
sI2717
(lp3621
sI2718
(lp3622
sI2719
(lp3623
sI2720
(lp3624
sI2721
(lp3625
sI2722
(lp3626
sI2723
(lp3627
sI2724
(lp3628
sI2725
(lp3629
sI2726
(lp3630
sI2727
(lp3631
sI2728
(lp3632
sI2729
(lp3633
sI2730
(lp3634
sI2731
(lp3635
sI2732
(lp3636
sI2733
(lp3637
sI2734
(lp3638
sI2735
(lp3639
sI2736
(lp3640
sI2737
(lp3641
sI2738
(lp3642
sI2739
(lp3643
sI2740
(lp3644
sI2741
(lp3645
sI2742
(lp3646
sI2743
(lp3647
sI2744
(lp3648
sI2745
(lp3649
sI2746
(lp3650
sI2747
(lp3651
sI2748
(lp3652
sI2749
(lp3653
sI2750
(lp3654
sI2751
(lp3655
sI2752
(lp3656
sI2753
(lp3657
sI2754
(lp3658
sI2755
(lp3659
sI2756
(lp3660
sI2757
(lp3661
sI2758
(lp3662
(lp3663
S'collection'
p3664
aVplayer
p3665
aasI2759
(lp3666
sI2760
(lp3667
sI2761
(lp3668
sI2762
(lp3669
sI2763
(lp3670
sI2764
(lp3671
sI2765
(lp3672
(lp3673
S'mediasource'
p3674
aVneed
p3675
aasI2766
(lp3676
(lp3677
S'information'
p3678
aVfiles
p3679
aasI2767
(lp3680
sI2768
(lp3681
sI2769
(lp3682
sI2770
(lp3683
sI2771
(lp3684
sI2772
(lp3685
sI2773
(lp3686
sI2774
(lp3687
sI2775
(lp3688
sI2776
(lp3689
sI2777
(lp3690
sI2778
(lp3691
sI2779
(lp3692
(lp3693
S'figure'
p3694
aVmediasource
p3695
aasI2780
(lp3696
sI2781
(lp3697
sI2782
(lp3698
(lp3699
S'updates'
p3700
aVupgrade
p3701
aasI2783
(lp3702
sI2784
(lp3703
sI2785
(lp3704
sI2786
(lp3705
sI2787
(lp3706
(lp3707
S'transmitter'
p3708
aVset
p3709
aasI2788
(lp3710
sI2789
(lp3711
sI2790
(lp3712
sI2791
(lp3713
sI2792
(lp3714
sI2793
(lp3715
sI2794
(lp3716
sI2795
(lp3717
sI2796
(lp3718
sI2797
(lp3719
sI2798
(lp3720
sI2799
(lp3721
sI2800
(lp3722
sI2801
(lp3723
sI2802
(lp3724
(lp3725
S'hassle'
p3726
aVnothing
p3727
aasI2803
(lp3728
sI2804
(lp3729
sI2805
(lp3730
sI2806
(lp3731
sI2807
(lp3732
sI2808
(lp3733
sI2809
(lp3734
sI2810
(lp3735
sI2811
(lp3736
sI2812
(lp3737
(lp3738
S'cover'
p3739
aVcarpet
p3740
aasI2813
(lp3741
sI2814
(lp3742
sI2815
(lp3743
sI2816
(lp3744
sI2817
(lp3745
sI2818
(lp3746
sI2819
(lp3747
sI2820
(lp3748
sI2821
(lp3749
sI2822
(lp3750
sI2823
(lp3751
sI2824
(lp3752
sI2825
(lp3753
sI2826
(lp3754
sI2827
(lp3755
sI2828
(lp3756
sI2829
(lp3757
sI2830
(lp3758
(lp3759
S'drivers'
p3760
aVsoftware
p3761
aasI2831
(lp3762
sI2832
(lp3763
sI2833
(lp3764
sI2834
(lp3765
sI2835
(lp3766
sI2836
(lp3767
(lp3768
S'day'
p3769
aVbriefcase
p3770
aasI2837
(lp3771
sI2838
(lp3772
sI2839
(lp3773
sI2840
(lp3774
(lp3775
S'size'
p3776
aVprice
p3777
aa(lp3778
S'features'
p3779
aVsize
p3780
aasI2841
(lp3781
sI2842
(lp3782
sI2843
(lp3783
sI2844
(lp3784
sI2845
(lp3785
sI2846
(lp3786
sI2847
(lp3787
(lp3788
S'genre'
p3789
aVartist
p3790
aa(lp3791
S'album'
p3792
aVgenre
p3793
aasI2848
(lp3794
sI2849
(lp3795
sI2850
(lp3796
sI2851
(lp3797
sI2852
(lp3798
sI2853
(lp3799
sI2854
(lp3800
(lp3801
S'genres'
p3802
aVartists
p3803
aasI2855
(lp3804
(lp3805
S'name'
p3806
aVplayer
p3807
aasI2856
(lp3808
sI2857
(lp3809
sI2858
(lp3810
(lp3811
S'stick'
p3812
aVtags
p3813
aasI2859
(lp3814
sI2860
(lp3815
sI2861
(lp3816
sI2862
(lp3817
sI2863
(lp3818
sI2864
(lp3819
sI2865
(lp3820
sI2866
(lp3821
sI2867
(lp3822
sI2868
(lp3823
sI2869
(lp3824
sI2870
(lp3825
sI2871
(lp3826
(lp3827
S'controls'
p3828
aVsystem
p3829
aasI2872
(lp3830
sI2873
(lp3831
sI2874
(lp3832
sI2875
(lp3833
sI2876
(lp3834
sI2877
(lp3835
sI2878
(lp3836
sI2879
(lp3837
sI2880
(lp3838
sI2881
(lp3839
sI2882
(lp3840
(lp3841
S'lack'
p3842
aVlife
p3843
aasI2883
(lp3844
sI2884
(lp3845
sI2885
(lp3846
sI2886
(lp3847
sI2887
(lp3848
sI2888
(lp3849
sI2889
(lp3850
sI2890
(lp3851
sI2891
(lp3852
(lp3853
S'kind'
p3854
aVjukeboxes
p3855
aasI2892
(lp3856
sI2893
(lp3857
sI2894
(lp3858
sI2895
(lp3859
sI2896
(lp3860
sI2897
(lp3861
sI2898
(lp3862
sI2899
(lp3863
sI2900
(lp3864
sI2901
(lp3865
(lp3866
S'cons'
p3867
aVpros
p3868
aasI2902
(lp3869
sI2903
(lp3870
(lp3871
S'reliability'
p3872
aVvalue
p3873
aasI2904
(lp3874
sI2905
(lp3875
sI2906
(lp3876
(lp3877
S'looks'
p3878
aVdesign
p3879
aasI2907
(lp3880
sI2908
(lp3881
sI2909
(lp3882
sI2910
(lp3883
sI2911
(lp3884
sI2912
(lp3885
(lp3886
S'data'
p3887
aVmusic
p3888
aasI2913
(lp3889
sI2914
(lp3890
sI2915
(lp3891
sI2916
(lp3892
sI2917
(lp3893
sI2918
(lp3894
(lp3895
S'difficulty'
p3896
aVsupport
p3897
aasI2919
(lp3898
sI2920
(lp3899
sI2921
(lp3900
sI2922
(lp3901
(lp3902
S'faceplate'
p3903
aVsurface
p3904
aasI2923
(lp3905
sI2924
(lp3906
sI2925
(lp3907
sI2926
(lp3908
sI2927
(lp3909
(lp3910
S'problem'
p3911
aVmanufacturing
p3912
aasI2928
(lp3913
(lp3914
S'documents'
p3915
aVfolders
p3916
aa(lp3917
S'programs'
p3918
aVdocuments
p3919
aasI2929
(lp3920
sI2930
(lp3921
sI2931
(lp3922
sI2932
(lp3923
sI2933
(lp3924
sI2934
(lp3925
sI2935
(lp3926
(lp3927
S'connectivity'
p3928
aVquality
p3929
aasI2936
(lp3930
(lp3931
S'selection'
p3932
aVusage
p3933
aa(lp3934
S'structure'
p3935
aVselection
p3936
aa(lp3937
S'size'
p3938
aVstructure
p3939
aa(lp3940
S'quality'
p3941
aVsize
p3942
aasI2937
(lp3943
sI2938
(lp3944
sI2939
(lp3945
sI2940
(lp3946
sI2941
(lp3947
sI2942
(lp3948
sI2943
(lp3949
sI2944
(lp3950
sI2945
(lp3951
sI2946
(lp3952
sI2947
(lp3953
sI2948
(lp3954
(lp3955
S'photos'
p3956
aVbutton
p3957
aasI2949
(lp3958
sI2950
(lp3959
sI2951
(lp3960
sI2952
(lp3961
sI2953
(lp3962
(lp3963
S'experiment'
p3964
aVx00
p3965
aa(lp3966
S'cons'
p3967
aVexperiment
p3968
aasI2954
(lp3969
sI2955
(lp3970
sI2956
(lp3971
sI2957
(lp3972
sI2958
(lp3973
sI2959
(lp3974
sI2960
(lp3975
sI2961
(lp3976
sI2962
(lp3977
sI2963
(lp3978
sI2964
(lp3979
sI2965
(lp3980
sI2966
(lp3981
sI2967
(lp3982
sI2968
(lp3983
sI2969
(lp3984
sI2970
(lp3985
sI2971
(lp3986
sI2972
(lp3987
sI2973
(lp3988
sI2974
(lp3989
sI2975
(lp3990
sI2976
(lp3991
sI2977
(lp3992
(lp3993
S'style'
p3994
aVsize
p3995
aasI2978
(lp3996
sI2979
(lp3997
sI2980
(lp3998
sI2981
(lp3999
sI2982
(lp4000
sI2983
(lp4001
sI2984
(lp4002
sI2985
(lp4003
sI2986
(lp4004
sI2987
(lp4005
sI2988
(lp4006
sI2989
(lp4007
(lp4008
S'd'
aVc
aasI2990
(lp4009
sI2991
(lp4010
sI2992
(lp4011
sI2993
(lp4012
sI2994
(lp4013
sI2995
(lp4014
sI2996
(lp4015
sI2997
(lp4016
sI2998
(lp4017
sI2999
(lp4018
sI3000
(lp4019
sI3001
(lp4020
sI3002
(lp4021
sI3003
(lp4022
sI3004
(lp4023
sI3005
(lp4024
sI3006
(lp4025
sI3007
(lp4026
sI3008
(lp4027
sI3009
(lp4028
sI3010
(lp4029
sI3011
(lp4030
sI3012
(lp4031
sI3013
(lp4032
sI3014
(lp4033
sI3015
(lp4034
sI3016
(lp4035
sI3017
(lp4036
sI3018
(lp4037
sI3019
(lp4038
sI3020
(lp4039
sI3021
(lp4040
sI3022
(lp4041
sI3023
(lp4042
sI3024
(lp4043
sI3025
(lp4044
sI3026
(lp4045
(lp4046
S'date'
p4047
aVclock
p4048
aasI3027
(lp4049
sI3028
(lp4050
sI3029
(lp4051
sI3030
(lp4052
sI3031
(lp4053
sI3032
(lp4054
sI3033
(lp4055
(lp4056
S'thing'
p4057
aVone
p4058
aasI3034
(lp4059
sI3035
(lp4060
sI3036
(lp4061
sI3037
(lp4062
sI3038
(lp4063
sI3039
(lp4064
sI3040
(lp4065
sI3041
(lp4066
sI3042
(lp4067
sI3043
(lp4068
sI3044
(lp4069
sI3045
(lp4070
sI3046
(lp4071
sI3047
(lp4072
sI3048
(lp4073
sI3049
(lp4074
(lp4075
S'trips'
p4076
aVplane
p4077
aasI3050
(lp4078
sI3051
(lp4079
sI3052
(lp4080
sI3053
(lp4081
sI3054
(lp4082
sI3055
(lp4083
(lp4084
S'album'
p4085
aVartist
p4086
aasI3056
(lp4087
sI3057
(lp4088
sI3058
(lp4089
(lp4090
S'interface'
p4091
aVhardware
p4092
aasI3059
(lp4093
(lp4094
S'nomad'
p4095
aVipod
p4096
aasI3060
(lp4097
sI3061
(lp4098
sI3062
(lp4099
sI3063
(lp4100
sI3064
(lp4101
sI3065
(lp4102
sI3066
(lp4103
sI3067
(lp4104
sI3068
(lp4105
sI3069
(lp4106
sI3070
(lp4107
sI3071
(lp4108
sI3072
(lp4109
sI3073
(lp4110
sI3074
(lp4111
sI3075
(lp4112
sI3076
(lp4113
sI3077
(lp4114
sI3078
(lp4115
sI3079
(lp4116
sI3080
(lp4117
(lp4118
S'size'
p4119
aVbattery
p4120
aa(lp4121
S'updates'
p4122
aVscreen
p4123
aasI3081
(lp4124
sI3082
(lp4125
sI3083
(lp4126
sI3084
(lp4127
sI3085
(lp4128
sI3086
(lp4129
sI3087
(lp4130
sI3088
(lp4131
sI3089
(lp4132
sI3090
(lp4133
(lp4134
S'design'
p4135
aVsize
p4136
aasI3091
(lp4137
sI3092
(lp4138
sI3093
(lp4139
sI3094
(lp4140
sI3095
(lp4141
sI3096
(lp4142
sI3097
(lp4143
sI3098
(lp4144
sI3099
(lp4145
sI3100
(lp4146
sI3101
(lp4147
sI3102
(lp4148
sI3103
(lp4149
sI3104
(lp4150
sI3105
(lp4151
(lp4152
S'album'
p4153
aVartist
p4154
aa(lp4155
S'search'
p4156
aValbum
p4157
aasI3106
(lp4158
sI3107
(lp4159
sI3108
(lp4160
sI3109
(lp4161
sI3110
(lp4162
sI3111
(lp4163
sI3112
(lp4164
sI3113
(lp4165
sI3114
(lp4166
(lp4167
S'design'
p4168
aVsoftware
p4169
aasI3115
(lp4170
sI3116
(lp4171
sI3117
(lp4172
sI3118
(lp4173
sI3119
(lp4174
sI3120
(lp4175
sI3121
(lp4176
sI3122
(lp4177
sI3123
(lp4178
sI3124
(lp4179
sI3125
(lp4180
sI3126
(lp4181
sI3127
(lp4182
sI3128
(lp4183
sI3129
(lp4184
sI3130
(lp4185
sI3131
(lp4186
(lp4187
S'jack'
p4188
aVstuff
p4189
aasI3132
(lp4190
sI3133
(lp4191
sI3134
(lp4192
sI3135
(lp4193
sI3136
(lp4194
sI3137
(lp4195
sI3138
(lp4196
sI3139
(lp4197
sI3140
(lp4198
sI3141
(lp4199
sI3142
(lp4200
sI3143
(lp4201
sI3144
(lp4202
sI3145
(lp4203
sI3146
(lp4204
sI3147
(lp4205
sI3148
(lp4206
sI3149
(lp4207
sI3150
(lp4208
sI3151
(lp4209
sI3152
(lp4210
sI3153
(lp4211
sI3154
(lp4212
sI3155
(lp4213
sI3156
(lp4214
sI3157
(lp4215
sI3158
(lp4216
sI3159
(lp4217
sI3160
(lp4218
sI3161
(lp4219
sI3162
(lp4220
sI3163
(lp4221
sI3164
(lp4222
sI3165
(lp4223
sI3166
(lp4224
sI3167
(lp4225
sI3168
(lp4226
sI3169
(lp4227
sI3170
(lp4228
sI3171
(lp4229
sI3172
(lp4230
sI3173
(lp4231
sI3174
(lp4232
sI3175
(lp4233
sI3176
(lp4234
sI3177
(lp4235
sI3178
(lp4236
sI3179
(lp4237
sI3180
(lp4238
sI3181
(lp4239
sI3182
(lp4240
sI3183
(lp4241
sI3184
(lp4242
sI3185
(lp4243
sI3186
(lp4244
sI3187
(lp4245
sI3188
(lp4246
sI3189
(lp4247
sI3190
(lp4248
sI3191
(lp4249
sI3192
(lp4250
sI3193
(lp4251
sI3194
(lp4252
sI3195
(lp4253
sI3196
(lp4254
sI3197
(lp4255
sI3198
(lp4256
sI3199
(lp4257
sI3200
(lp4258
sI3201
(lp4259
sI3202
(lp4260
sI3203
(lp4261
sI3204
(lp4262
sI3205
(lp4263
sI3206
(lp4264
sI3207
(lp4265
(lp4266
S'video'
p4267
aVaudio
p4268
aasI3208
(lp4269
(lp4270
S'waste'
p4271
aVplayer
p4272
aasI3209
(lp4273
sI3210
(lp4274
sI3211
(lp4275
sI3212
(lp4276
sI3213
(lp4277
sI3214
(lp4278
sI3215
(lp4279
sI3216
(lp4280
sI3217
(lp4281
sI3218
(lp4282
sI3219
(lp4283
(lp4284
S'ntsc'
p4285
aVpal
p4286
aasI3220
(lp4287
sI3221
(lp4288
sI3222
(lp4289
sI3223
(lp4290
sI3224
(lp4291
sI3225
(lp4292
sI3226
(lp4293
sI3227
(lp4294
sI3228
(lp4295
sI3229
(lp4296
sI3230
(lp4297
sI3231
(lp4298
sI3232
(lp4299
sI3233
(lp4300
sI3234
(lp4301
sI3235
(lp4302
sI3236
(lp4303
sI3237
(lp4304
sI3238
(lp4305
sI3239
(lp4306
sI3240
(lp4307
sI3241
(lp4308
sI3242
(lp4309
(lp4310
S'mp3s'
p4311
aVcomputer
p4312
aasI3243
(lp4313
sI3244
(lp4314
sI3245
(lp4315
sI3246
(lp4316
sI3247
(lp4317
(lp4318
S'layout'
p4319
aVfeel
p4320
aasI3248
(lp4321
sI3249
(lp4322
sI3250
(lp4323
sI3251
(lp4324
sI3252
(lp4325
sI3253
(lp4326
sI3254
(lp4327
sI3255
(lp4328
sI3256
(lp4329
sI3257
(lp4330
(lp4331
S'support'
p4332
aVservice
p4333
aa(lp4334
S'willingness'
p4335
aVproducts
p4336
aasI3258
(lp4337
sI3259
(lp4338
sI3260
(lp4339
sI3261
(lp4340
sI3262
(lp4341
sI3263
(lp4342
sI3264
(lp4343
sI3265
(lp4344
sI3266
(lp4345
sI3267
(lp4346
sI3268
(lp4347
sI3269
(lp4348
sI3270
(lp4349
sI3271
(lp4350
sI3272
(lp4351
sI3273
(lp4352
sI3274
(lp4353
sI3275
(lp4354
sI3276
(lp4355
sI3277
(lp4356
sI3278
(lp4357
(lp4358
S'features'
p4359
aVpicture
p4360
aasI3279
(lp4361
sI3280
(lp4362
sI3281
(lp4363
sI3282
(lp4364
sI3283
(lp4365
sI3284
(lp4366
sI3285
(lp4367
sI3286
(lp4368
sI3287
(lp4369
sI3288
(lp4370
sI3289
(lp4371
sI3290
(lp4372
sI3291
(lp4373
sI3292
(lp4374
sI3293
(lp4375
sI3294
(lp4376
sI3295
(lp4377
sI3296
(lp4378
sI3297
(lp4379
sI3298
(lp4380
sI3299
(lp4381
sI3300
(lp4382
sI3301
(lp4383
sI3302
(lp4384
sI3303
(lp4385
(lp4386
S'stop'
p4387
aVpause
p4388
aasI3304
(lp4389
sI3305
(lp4390
sI3306
(lp4391
sI3307
(lp4392
sI3308
(lp4393
sI3309
(lp4394
sI3310
(lp4395
sI3311
(lp4396
sI3312
(lp4397
sI3313
(lp4398
sI3314
(lp4399
sI3315
(lp4400
sI3316
(lp4401
(lp4402
S'help'
p4403
aVinput2
p4404
aasI3317
(lp4405
sI3318
(lp4406
sI3319
(lp4407
sI3320
(lp4408
sI3321
(lp4409
sI3322
(lp4410
sI3323
(lp4411
sI3324
(lp4412
sI3325
(lp4413
sI3326
(lp4414
sI3327
(lp4415
sI3328
(lp4416
sI3329
(lp4417
sI3330
(lp4418
sI3331
(lp4419
sI3332
(lp4420
sI3333
(lp4421
sI3334
(lp4422
sI3335
(lp4423
sI3336
(lp4424
sI3337
(lp4425
sI3338
(lp4426
sI3339
(lp4427
sI3340
(lp4428
sI3341
(lp4429
sI3342
(lp4430
sI3343
(lp4431
sI3344
(lp4432
sI3345
(lp4433
sI3346
(lp4434
sI3347
(lp4435
sI3348
(lp4436
sI3349
(lp4437
sI3350
(lp4438
sI3351
(lp4439
sI3352
(lp4440
sI3353
(lp4441
(lp4442
S'picture'
p4443
aVsound
p4444
aasI3354
(lp4445
sI3355
(lp4446
sI3356
(lp4447
sI3357
(lp4448
(lp4449
S'amazon'
p4450
aVapex
p4451
aasI3358
(lp4452
sI3359
(lp4453
sI3360
(lp4454
(lp4455
S'none'
p4456
aVplayers
p4457
aasI3361
(lp4458
sI3362
(lp4459
sI3363
(lp4460
sI3364
(lp4461
sI3365
(lp4462
sI3366
(lp4463
sI3367
(lp4464
sI3368
(lp4465
sI3369
(lp4466
sI3370
(lp4467
sI3371
(lp4468
sI3372
(lp4469
sI3373
(lp4470
(lp4471
S'toshibas'
p4472
aVpanasonics
p4473
aa(lp4474
S'sonys'
p4475
aVtoshibas
p4476
aasI3374
(lp4477
sI3375
(lp4478
sI3376
(lp4479
sI3377
(lp4480
sI3378
(lp4481
sI3379
(lp4482
sI3380
(lp4483
sI3381
(lp4484
sI3382
(lp4485
sI3383
(lp4486
sI3384
(lp4487
sI3385
(lp4488
sI3386
(lp4489
sI3387
(lp4490
sI3388
(lp4491
sI3389
(lp4492
sI3390
(lp4493
sI3391
(lp4494
(lp4495
S'videos'
p4496
aVmpeg2
p4497
aasI3392
(lp4498
(lp4499
S'videos'
p4500
aVdivx
p4501
aasI3393
(lp4502
sI3394
(lp4503
sI3395
(lp4504
sI3396
(lp4505
sI3397
(lp4506
sI3398
(lp4507
sI3399
(lp4508
sI3400
(lp4509
sI3401
(lp4510
sI3402
(lp4511
sI3403
(lp4512
(lp4513
S'cds'
p4514
aVmp3
p4515
aa(lp4516
S'jpeg'
p4517
aVcds
p4518
aasI3404
(lp4519
sI3405
(lp4520
sI3406
(lp4521
sI3407
(lp4522
sI3408
(lp4523
sI3409
(lp4524
sI3410
(lp4525
sI3411
(lp4526
sI3412
(lp4527
sI3413
(lp4528
sI3414
(lp4529
sI3415
(lp4530
sI3416
(lp4531
sI3417
(lp4532
sI3418
(lp4533
sI3419
(lp4534
sI3420
(lp4535
sI3421
(lp4536
(lp4537
S'half'
p4538
aVfine
p4539
aasI3422
(lp4540
sI3423
(lp4541
sI3424
(lp4542
sI3425
(lp4543
sI3426
(lp4544
sI3427
(lp4545
sI3428
(lp4546
sI3429
(lp4547
(lp4548
S'r'
aVdvd
p4549
aasI3430
(lp4550
sI3431
(lp4551
sI3432
(lp4552
sI3433
(lp4553
sI3434
(lp4554
sI3435
(lp4555
sI3436
(lp4556
sI3437
(lp4557
sI3438
(lp4558
(lp4559
S'hook'
p4560
aVuse
p4561
aasI3439
(lp4562
sI3440
(lp4563
sI3441
(lp4564
sI3442
(lp4565
(lp4566
S'models'
p4567
aVdifference
p4568
aasI3443
(lp4569
sI3444
(lp4570
sI3445
(lp4571
sI3446
(lp4572
sI3447
(lp4573
sI3448
(lp4574
sI3449
(lp4575
sI3450
(lp4576
sI3451
(lp4577
sI3452
(lp4578
sI3453
(lp4579
sI3454
(lp4580
sI3455
(lp4581
sI3456
(lp4582
(lp4583
S'toshiba'
p4584
aVsony
p4585
aasI3457
(lp4586
sI3458
(lp4587
sI3459
(lp4588
(lp4589
S'image'
p4590
aVfunction
p4591
aa(lp4592
S'dvd'
p4593
aVpanasonic
p4594
aasI3460
(lp4595
sI3461
(lp4596
sI3462
(lp4597
(lp4598
S'panasonic'
p4599
aVsony
p4600
aasI3463
(lp4601
sI3464
(lp4602
sI3465
(lp4603
sI3466
(lp4604
sI3467
(lp4605
sI3468
(lp4606
sI3469
(lp4607
sI3470
(lp4608
sI3471
(lp4609
(lp4610
S'dvd'
p4611
aVvcd
p4612
aasI3472
(lp4613
(lp4614
S'mp3'
p4615
aVjpeg
p4616
aa(lp4617
S'files'
p4618
aVmp3
p4619
aasI3473
(lp4620
sI3474
(lp4621
sI3475
(lp4622
sI3476
(lp4623
sI3477
(lp4624
sI3478
(lp4625
sI3479
(lp4626
sI3480
(lp4627
sI3481
(lp4628
sI3482
(lp4629
sI3483
(lp4630
sI3484
(lp4631
sI3485
(lp4632
sI3486
(lp4633
sI3487
(lp4634
sI3488
(lp4635
sI3489
(lp4636
sI3490
(lp4637
sI3491
(lp4638
sI3492
(lp4639
(lp4640
S'yesterday'
p4641
aVmonth
p4642
aasI3493
(lp4643
(lp4644
S'outputs'
p4645
aVvideo
p4646
aasI3494
(lp4647
(lp4648
S'sound'
p4649
aVpicture
p4650
aasI3495
(lp4651
sI3496
(lp4652
sI3497
(lp4653
sI3498
(lp4654
sI3499
(lp4655
sI3500
(lp4656
sI3501
(lp4657
sI3502
(lp4658
(lp4659
S'i/p'
p4660
aVntsc
p4661
aasI3503
(lp4662
sI3504
(lp4663
sI3505
(lp4664
sI3506
(lp4665
sI3507
(lp4666
sI3508
(lp4667
sI3509
(lp4668
(lp4669
S'info'
p4670
aVmessages
p4671
aasI3510
(lp4672
sI3511
(lp4673
(lp4674
S'replacement'
p4675
aVit
p4676
aasI3512
(lp4677
sI3513
(lp4678
sI3514
(lp4679
sI3515
(lp4680
sI3516
(lp4681
(lp4682
S'pioneer'
p4683
aVtoshiba
p4684
aa(lp4685
S'panasonic'
p4686
aVpioneer
p4687
aasI3517
(lp4688
sI3518
(lp4689
sI3519
(lp4690
sI3520
(lp4691
sI3521
(lp4692
sI3522
(lp4693
(lp4694
S'display'
p4695
aVstop
p4696
aasI3523
(lp4697
sI3524
(lp4698
sI3525
(lp4699
sI3526
(lp4700
sI3527
(lp4701
sI3528
(lp4702
sI3529
(lp4703
sI3530
(lp4704
sI3531
(lp4705
sI3532
(lp4706
sI3533
(lp4707
sI3534
(lp4708
sI3535
(lp4709
sI3536
(lp4710
sI3537
(lp4711
sI3538
(lp4712
sI3539
(lp4713
(lp4714
S'burner'
p4715
aVanything
p4716
aasI3540
(lp4717
sI3541
(lp4718
sI3542
(lp4719
sI3543
(lp4720
sI3544
(lp4721
sI3545
(lp4722
sI3546
(lp4723
sI3547
(lp4724
sI3548
(lp4725
sI3549
(lp4726
sI3550
(lp4727
sI3551
(lp4728
sI3552
(lp4729
sI3553
(lp4730
sI3554
(lp4731
sI3555
(lp4732
sI3556
(lp4733
sI3557
(lp4734
sI3558
(lp4735
sI3559
(lp4736
sI3560
(lp4737
sI3561
(lp4738
sI3562
(lp4739
(lp4740
S'operation'
p4741
aVdisplay
p4742
aasI3563
(lp4743
sI3564
(lp4744
sI3565
(lp4745
sI3566
(lp4746
sI3567
(lp4747
sI3568
(lp4748
sI3569
(lp4749
sI3570
(lp4750
sI3571
(lp4751
sI3572
(lp4752
sI3573
(lp4753
sI3574
(lp4754
sI3575
(lp4755
sI3576
(lp4756
sI3577
(lp4757
sI3578
(lp4758
sI3579
(lp4759
sI3580
(lp4760
(lp4761
S'picture'
p4762
aVsound
p4763
aasI3581
(lp4764
sI3582
(lp4765
sI3583
(lp4766
sI3584
(lp4767
sI3585
(lp4768
sI3586
(lp4769
sI3587
(lp4770
sI3588
(lp4771
sI3589
(lp4772
sI3590
(lp4773
sI3591
(lp4774
sI3592
(lp4775
sI3593
(lp4776
sI3594
(lp4777
sI3595
(lp4778
sI3596
(lp4779
sI3597
(lp4780
sI3598
(lp4781
sI3599
(lp4782
sI3600
(lp4783
sI3601
(lp4784
(lp4785
S'panasonic'
p4786
aVpioneer
p4787
aa(lp4788
S'players'
p4789
aVpanasonic
p4790
aasI3602
(lp4791
sI3603
(lp4792
sI3604
(lp4793
sI3605
(lp4794
sI3606
(lp4795
sI3607
(lp4796
sI3608
(lp4797
sI3609
(lp4798
sI3610
(lp4799
sI3611
(lp4800
sI3612
(lp4801
sI3613
(lp4802
sI3614
(lp4803
sI3615
(lp4804
sI3616
(lp4805
sI3617
(lp4806
sI3618
(lp4807
sI3619
(lp4808
sI3620
(lp4809
sI3621
(lp4810
sI3622
(lp4811
sI3623
(lp4812
sI3624
(lp4813
sI3625
(lp4814
sI3626
(lp4815
sI3627
(lp4816
sI3628
(lp4817
sI3629
(lp4818
sI3630
(lp4819
sI3631
(lp4820
sI3632
(lp4821
sI3633
(lp4822
sI3634
(lp4823
sI3635
(lp4824
sI3636
(lp4825
sI3637
(lp4826
sI3638
(lp4827
sI3639
(lp4828
sI3640
(lp4829
sI3641
(lp4830
sI3642
(lp4831
sI3643
(lp4832
sI3644
(lp4833
sI3645
(lp4834
sI3646
(lp4835
sI3647
(lp4836
sI3648
(lp4837
sI3649
(lp4838
sI3650
(lp4839
sI3651
(lp4840
sI3652
(lp4841
sI3653
(lp4842
sI3654
(lp4843
sI3655
(lp4844
sI3656
(lp4845
(lp4846
S'picture'
p4847
aVdvd
p4848
aasI3657
(lp4849
sI3658
(lp4850
sI3659
(lp4851
sI3660
(lp4852
sI3661
(lp4853
sI3662
(lp4854
sI3663
(lp4855
sI3664
(lp4856
sI3665
(lp4857
sI3666
(lp4858
sI3667
(lp4859
sI3668
(lp4860
sI3669
(lp4861
sI3670
(lp4862
sI3671
(lp4863
sI3672
(lp4864
sI3673
(lp4865
sI3674
(lp4866
sI3675
(lp4867
sI3676
(lp4868
sI3677
(lp4869
sI3678
(lp4870
(lp4871
S'connections'
p4872
aVvideo
p4873
aasI3679
(lp4874
sI3680
(lp4875
sI3681
(lp4876
sI3682
(lp4877
sI3683
(lp4878
sI3684
(lp4879
sI3685
(lp4880
sI3686
(lp4881
sI3687
(lp4882
sI3688
(lp4883
sI3689
(lp4884
sI3690
(lp4885
sI3691
(lp4886
sI3692
(lp4887
sI3693
(lp4888
sI3694
(lp4889
sI3695
(lp4890
sI3696
(lp4891
sI3697
(lp4892
sI3698
(lp4893
sI3699
(lp4894
sI3700
(lp4895
sI3701
(lp4896
sI3702
(lp4897
sI3703
(lp4898
sI3704
(lp4899
sI3705
(lp4900
sI3706
(lp4901
sI3707
(lp4902
sI3708
(lp4903
sI3709
(lp4904
sI3710
(lp4905
sI3711
(lp4906
sI3712
(lp4907
sI3713
(lp4908
sI3714
(lp4909
sI3715
(lp4910
sI3716
(lp4911
sI3717
(lp4912
sI3718
(lp4913
sI3719
(lp4914
sI3720
(lp4915
sI3721
(lp4916
sI3722
(lp4917
sI3723
(lp4918
sI3724
(lp4919
sI3725
(lp4920
sI3726
(lp4921
sI3727
(lp4922
sI3728
(lp4923
sI3729
(lp4924
sI3730
(lp4925
sI3731
(lp4926
sI3732
(lp4927
(lp4928
S'testing'
p4929
aVresearch
p4930
aasI3733
(lp4931
sI3734
(lp4932
sI3735
(lp4933
sI3736
(lp4934
sI3737
(lp4935
sI3738
(lp4936
sI3739
(lp4937
sI3740
(lp4938
(lp4939
S'whistles'
p4940
aVbells
p4941
aasI3741
(lp4942
sI3742
(lp4943
sI3743
(lp4944
sI3744
(lp4945
sI3745
(lp4946
sI3746
(lp4947
sI3747
(lp4948
sI3748
(lp4949
sI3749
(lp4950
sI3750
(lp4951
sI3751
(lp4952
sI3752
(lp4953
sI3753
(lp4954
sI3754
(lp4955
sI3755
(lp4956
sI3756
(lp4957
sI3757
(lp4958
sI3758
(lp4959
sI3759
(lp4960
sI3760
(lp4961
sI3761
(lp4962
sI3762
(lp4963
sI3763
(lp4964
sI3764
(lp4965
sI3765
(lp4966
sI3766
(lp4967
sI3767
(lp4968
sI3768
(lp4969
sI3769
(lp4970
sI3770
(lp4971
(lp4972
S'bells'
p4973
aVwhistles
p4974
aasI3771
(lp4975
sI3772
(lp4976
sI3773
(lp4977
sI3774
(lp4978
sI3775
(lp4979
sI3776
(lp4980
sI3777
(lp4981
sI3778
(lp4982
sI3779
(lp4983
sI3780
(lp4984
sI3781
(lp4985
sI3782
(lp4986
sI3783
(lp4987
sI3784
(lp4988
sI3785
(lp4989
sI3786
(lp4990
sI3787
(lp4991
(lp4992
S'wow'
p4993
aVphotos
p4994
aasI3788
(lp4995
sI3789
(lp4996
sI3790
(lp4997
sI3791
(lp4998
sI3792
(lp4999
sI3793
(lp5000
sI3794
(lp5001
sI3795
(lp5002
sI3796
(lp5003
sI3797
(lp5004
sI3798
(lp5005
sI3799
(lp5006
sI3800
(lp5007
sI3801
(lp5008
sI3802
(lp5009
sI3803
(lp5010
sI3804
(lp5011
sI3805
(lp5012
sI3806
(lp5013
sI3807
(lp5014
sI3808
(lp5015
sI3809
(lp5016
sI3810
(lp5017
sI3811
(lp5018
sI3812
(lp5019
sI3813
(lp5020
sI3814
(lp5021
sI3815
(lp5022
sI3816
(lp5023
sI3817
(lp5024
sI3818
(lp5025
sI3819
(lp5026
sI3820
(lp5027
sI3821
(lp5028
sI3822
(lp5029
sI3823
(lp5030
sI3824
(lp5031
sI3825
(lp5032
sI3826
(lp5033
sI3827
(lp5034
sI3828
(lp5035
sI3829
(lp5036
sI3830
(lp5037
sI3831
(lp5038
sI3832
(lp5039
sI3833
(lp5040
sI3834
(lp5041
sI3835
(lp5042
sI3836
(lp5043
(lp5044
S'layout'
p5045
aVsize
p5046
aasI3837
(lp5047
sI3838
(lp5048
sI3839
(lp5049
sI3840
(lp5050
sI3841
(lp5051
sI3842
(lp5052
sI3843
(lp5053
sI3844
(lp5054
sI3845
(lp5055
sI3846
(lp5056
sI3847
(lp5057
sI3848
(lp5058
sI3849
(lp5059
sI3850
(lp5060
sI3851
(lp5061
sI3852
(lp5062
sI3853
(lp5063
sI3854
(lp5064
sI3855
(lp5065
sI3856
(lp5066
sI3857
(lp5067
(lp5068
S'reviews'
p5069
aVprice
p5070
aasI3858
(lp5071
sI3859
(lp5072
sI3860
(lp5073
sI3861
(lp5074
sI3862
(lp5075
sI3863
(lp5076
sI3864
(lp5077
sI3865
(lp5078
sI3866
(lp5079
sI3867
(lp5080
sI3868
(lp5081
sI3869
(lp5082
sI3870
(lp5083
sI3871
(lp5084
sI3872
(lp5085
(lp5086
S'something'
p5087
aVplate
p5088
aasI3873
(lp5089
sI3874
(lp5090
sI3875
(lp5091
sI3876
(lp5092
sI3877
(lp5093
sI3878
(lp5094
sI3879
(lp5095
sI3880
(lp5096
sI3881
(lp5097
sI3882
(lp5098
sI3883
(lp5099
sI3884
(lp5100
sI3885
(lp5101
sI3886
(lp5102
sI3887
(lp5103
sI3888
(lp5104
sI3889
(lp5105
sI3890
(lp5106
sI3891
(lp5107
sI3892
(lp5108
sI3893
(lp5109
sI3894
(lp5110
sI3895
(lp5111
sI3896
(lp5112
sI3897
(lp5113
sI3898
(lp5114
(lp5115
S'switch'
p5116
aVbait
p5117
aasI3899
(lp5118
sI3900
(lp5119
sI3901
(lp5120
sI3902
(lp5121
sI3903
(lp5122
sI3904
(lp5123
sI3905
(lp5124
(lp5125
S'cds'
p5126
aVdvds
p5127
aa(lp5128
S'jpegs'
p5129
aVmp3s
p5130
aasI3906
(lp5131
sI3907
(lp5132
(lp5133
S'others'
p5134
aVformats
p5135
aasI3908
(lp5136
(lp5137
S'tax'
p5138
aVshipping
p5139
aasI3909
(lp5140
sI3910
(lp5141
(lp5142
S'vcd'
p5143
aVrw
p5144
aasI3911
(lp5145
(lp5146
S'vcd'
p5147
aVrw
p5148
aasI3912
(lp5149
sI3913
(lp5150
sI3914
(lp5151
sI3915
(lp5152
(lp5153
S'price'
p5154
aVbag
p5155
aasI3916
(lp5156
sI3917
(lp5157
sI3918
(lp5158
(lp5159
S'picture'
p5160
aVdiscs
p5161
aa(lp5162
S'sound'
p5163
aVpicture
p5164
aa(lp5165
S'dd5.1'
p5166
aVdts
p5167
aasI3919
(lp5168
sI3920
(lp5169
sI3921
(lp5170
sI3922
(lp5171
sI3923
(lp5172
sI3924
(lp5173
sI3925
(lp5174
(lp5175
S'price'
p5176
aVproduct
p5177
aasI3926
(lp5178
sI3927
(lp5179
sI3928
(lp5180
sI3929
(lp5181
sI3930
(lp5182
sI3931
(lp5183
sI3932
(lp5184
sI3933
(lp5185
sI3934
(lp5186
sI3935
(lp5187
sI3936
(lp5188
sI3937
(lp5189
sI3938
(lp5190
sI3939
(lp5191
sI3940
(lp5192
sI3941
(lp5193
sI3942
(lp5194
sI3943
(lp5195
sI3944
(lp5196
s.