(dp1
I0
(lp2
S'powershot'
p3
aS'canon'
p4
asI1
(lp5
S'camera'
p6
aVweek
p7
asI2
(lp8
sI3
(lp9
sI4
(lp10
S'picture'
p11
asI5
(lp12
S'g2'
p13
asI6
(lp14
Vsetting
p15
asI7
(lp16
Vflash
p17
aVcard
p18
aS'pinch'
p19
asI8
(lp20
S'line'
p21
aS'camera'
p22
aVfeatures
p23
aVflash
p24
aS'filters'
p25
aS'lense'
p26
aS'choices'
p27
asI9
(lp28
Vpictures
p29
aS'flexibility'
p30
aS'combination'
p31
aVuse
p32
asI10
(lp33
Vcanon
p34
asI11
(lp35
sI12
(lp36
Vcamera
p37
asI13
(lp38
Vg3
p39
aVdetails
p40
aVcamera
p41
aVcent
p42
asI14
(lp43
Voverview
p44
aVmegapixel
p45
aS'control'
p46
aS'manual'
p47
asI15
(lp48
Vuse
p49
aS'functionality'
p50
asI16
(lp51
Vkind
p52
asI17
(lp53
Vstorage
p54
aVimages
p55
aS'movies'
p56
asI18
(lp57
sI19
(lp58
Vchoice
p59
aS'type'
p60
asI20
(lp61
S'hey'
p62
aVthings
p63
asI21
(lp64
Vdial
p65
asI22
(lp66
Vlens
p67
aVviewfinder
p68
asI23
(lp69
Vviewfinder
p70
asI24
(lp71
sI25
(lp72
Vresearch
p73
aVcameras
p74
asI26
(lp75
S'couple'
p76
aVnumber
p77
aVimages
p78
aS'sample'
p79
aS'resolution'
p80
aVsites
p81
aS'review'
p82
aVreviews
p83
asI27
(lp84
sI28
(lp85
sI29
(lp86
Vdepth
p87
aVconveniences
p88
aVfeatures
p89
aS'speed'
p90
aS'quality'
p91
aS'flexibility'
p92
aS'automation'
p93
aS'camera'
p94
aS'details'
p95
aVstevesdigicams
p96
asI30
(lp97
Vsettings
p98
aVpicture
p99
asI31
(lp100
Vmode
p101
aVimage
p102
aVpictures
p103
asI32
(lp104
Vquality
p105
aS'canon'
p106
asI33
(lp107
Vwalk
p108
asI34
(lp109
sI35
(lp110
sI36
(lp111
Vfeatures
p112
aVcameras
p113
aS'speeds'
p114
aS'g3'
p115
asI37
(lp116
sI38
(lp117
Vangle
p118
asI39
(lp119
S'flaw'
p120
aS'canon'
p121
asI40
(lp122
Vdisappointment
p123
aVphotography
p124
asI41
(lp125
Vday
p126
asI42
(lp127
sI43
(lp128
Vcameras
p129
asI44
(lp130
Vpanel
p131
asI45
(lp132
Vadjustment
p133
aS'diopter'
p134
asI46
(lp135
Vreview
p136
asI47
(lp137
sI48
(lp138
Vphotos
p139
aS'programming'
p140
aS'slr'
p141
aVprogram
p142
aS'settings'
p143
aS'exposure'
p144
aS'auto'
p145
asI49
(lp146
Vrange
p147
aS'options'
p148
asI50
(lp149
sI51
(lp150
sI52
(lp151
sI53
(lp152
Vthing
p153
aS'film'
p154
asI54
(lp155
S'system'
p156
asI55
(lp157
S'mode'
p158
aS'manual'
p159
aVfocus
p160
aVbutton
p161
asI56
(lp162
sI57
(lp163
Vbattery
p164
asI58
(lp165
sI59
(lp166
sI60
(lp167
Vset
p168
aS'camera'
p169
asI61
(lp170
Vpictures
p171
asI62
(lp172
sI63
(lp173
Vzoom
p174
aVaddition
p175
aS'pictures'
p176
asI64
(lp177
Vpictures
p178
asI65
(lp179
Vproblems
p180
asI66
(lp181
Vpictures
p182
aS'computer'
p183
aS'canon'
p184
asI67
(lp185
Vissues
p186
aS'views'
p187
aS'view'
p188
aVviewfinder
p189
asI68
(lp190
sI69
(lp191
Vcamera
p192
asI70
(lp193
Vbargain
p194
aVcameras
p195
asI71
(lp196
Vphotobugs
p197
aS'control'
p198
asI72
(lp199
Vpictures
p200
aVsetting
p201
asI73
(lp202
sI74
(lp203
sI75
(lp204
sI76
(lp205
sI77
(lp206
Vstep
p207
aVpoint
p208
aS'shoot'
p209
aS'anyone'
p210
aVdifference
p211
asI78
(lp212
Vrange
p213
aVlense
p214
asI79
(lp215
sI80
(lp216
Vcamera
p217
aVbuyer
p218
asI81
(lp219
Vpictures
p220
aVcharge
p221
asI82
(lp222
sI83
(lp223
sI84
(lp224
sI85
(lp225
Vcanon
p226
aVcamera
p227
asI86
(lp228
Vflash
p229
asI87
(lp230
sI88
(lp231
sI89
(lp232
sI90
(lp233
Vknobs
p234
aS'buttons'
p235
aS'wife'
p236
asI91
(lp237
Vcard
p238
asI92
(lp239
S'zoom'
p240
aS'lens'
p241
asI93
(lp242
Vcolorimetry
p243
aS'camera'
p244
asI94
(lp245
sI95
(lp246
Vquality
p247
asI96
(lp248
Vfinder
p249
aVbrands
p250
aVcompany
p251
asI97
(lp252
Vpower
p253
asI98
(lp254
Vcamera
p255
asI99
(lp256
S'tons'
p257
aS'g3'
p258
asI100
(lp259
Vphotos
p260
asI101
(lp261
Vstop
p262
aS'speed'
p263
asI102
(lp264
Vphotos
p265
asI103
(lp266
sI104
(lp267
S'controls'
p268
asI105
(lp269
sI106
(lp270
Vspin
p271
aVsubjects
p272
aVquality
p273
aS'priority'
p274
aVlength
p275
aS'mode'
p276
asI107
(lp277
Vaccess
p278
aS'aperture'
p279
aVmode
p280
aVspeed
p281
asI108
(lp282
sI109
(lp283
Vfeel
p284
aS'camera'
p285
aS'weight'
p286
asI110
(lp287
Vtoy
p288
aS'plastic'
p289
asI111
(lp290
Vwork
p291
asI112
(lp292
sI113
(lp293
Vquality
p294
aS'ease'
p295
asI114
(lp296
Vcamera
p297
asI115
(lp298
Vskill
p299
aS'knowledge'
p300
asI116
(lp301
S'everything'
p302
aS'thing'
p303
aS'pro'
p304
asI117
(lp305
Vpictures
p306
aVjoe
p307
asI118
(lp308
sI119
(lp309
S'thing'
p310
asI120
(lp311
sI121
(lp312
Vpoint
p313
aS'camera'
p314
asI122
(lp315
Vcamera
p316
asI123
(lp317
Vproduct
p318
asI124
(lp319
sI125
(lp320
S'features'
p321
asI126
(lp322
Vphotos
p323
asI127
(lp324
sI128
(lp325
sI129
(lp326
Vdrawback
p327
aS'viewfinder'
p328
asI130
(lp329
Vproblem
p330
asI131
(lp331
Vcamera
p332
asI132
(lp333
sI133
(lp334
S'noise'
p335
aS'camera'
p336
asI134
(lp337
sI135
(lp338
sI136
(lp339
S'doubt'
p340
aVimaging
p341
aS'quality'
p342
aS'picture'
p343
aS'sharpness'
p344
aS'grain'
p345
aS'rice'
p346
aVcolor
p347
asI137
(lp348
Vtigt
p349
aS'damage'
p350
asI138
(lp351
S'way'
p352
aS'canon'
p353
asI139
(lp354
sI140
(lp355
sI141
(lp356
Vseller
p357
asI142
(lp358
sI143
(lp359
S'options'
p360
asI144
(lp361
sI145
(lp362
Vcolors
p363
aS'pictures'
p364
aS'balance'
p365
asI146
(lp366
Vzoom
p367
asI147
(lp368
Vbit
p369
asI148
(lp370
sI149
(lp371
Vmonths
p372
asI150
(lp373
S'features'
p374
asI151
(lp375
sI152
(lp376
Vresults
p377
aS'zoom'
p378
aS'film'
p379
aS'p'
aVeffort
p380
aS's'
asI153
(lp381
sI154
(lp382
Vsituations
p383
aS'camera'
p384
asI155
(lp385
S'concerts'
p386
asI156
(lp387
sI157
(lp388
sI158
(lp389
sI159
(lp390
sI160
(lp391
sI161
(lp392
S'objects'
p393
aVphotos
p394
aVlight
p395
asI162
(lp396
sI163
(lp397
sI164
(lp398
sI165
(lp399
Vpoint
p400
aS'photography'
p401
asI166
(lp402
Vresolution
p403
aS'cost'
p404
asI167
(lp405
S'use'
p406
aS'time'
p407
asI168
(lp408
Vlight
p409
aS'quality'
p410
asI169
(lp411
sI170
(lp412
S'mine'
p413
aS'g3'
p414
asI171
(lp415
sI172
(lp416
sI173
(lp417
Vslrs
p418
aVflash
p419
aS'equipment'
p420
aS'quality'
p421
asI174
(lp422
sI175
(lp423
Vslr
p424
aVsensor
p425
asI176
(lp426
sI177
(lp427
S'limitations'
p428
aS'features'
p429
asI178
(lp430
sI179
(lp431
Vtime
p432
aVquality
p433
asI180
(lp434
S'problem'
p435
aS'time'
p436
aS'lag'
p437
aS'technology'
p438
aVdigicams
p439
aS'anyone'
p440
aVslr
p441
asI181
(lp442
S'shutter'
p443
aS'release'
p444
aVread
p445
aS'lock'
p446
aS'lag'
p447
asI182
(lp448
Vpoint
p449
aS'digicams'
p450
aVlag
p451
aVdepth
p452
asI183
(lp453
Vprobability
p454
aS'subject'
p455
aS'shutter'
p456
asI184
(lp457
sI185
(lp458
Vflash
p459
aVspots
p460
aS'images'
p461
asI186
(lp462
Vshoe
p463
aVflash
p464
aVflashes
p465
aS'g3'
p466
aS'money'
p467
asI187
(lp468
Vflash
p469
asI188
(lp470
Vquality
p471
asI189
(lp472
Vmode
p473
aS'shutter'
p474
asI190
(lp475
Vflashes
p476
aS'read'
p477
aS'g3'
p478
asI191
(lp479
sI192
(lp480
sI193
(lp481
S'g3'
p482
aS'youve'
p483
aS'range'
p484
asI194
(lp485
S'walls'
p486
asI195
(lp487
S'filters'
p488
aS'cant'
p489
asI196
(lp490
S'problem'
p491
aVlighting
p492
aVshadows
p493
asI197
(lp494
Vrange
p495
aVimages
p496
aS'exposure'
p497
aS'film'
p498
asI198
(lp499
sI199
(lp500
Vlight
p501
aVimages
p502
aS'results'
p503
asI200
(lp504
Vshoot
p505
aS'images'
p506
aVmode
p507
aVcomplaint
p508
asI201
(lp509
Vimages
p510
aVimage
p511
asI202
(lp512
sI203
(lp513
Vimage
p514
aS'youd'
p515
aS'camera'
p516
asI204
(lp517
sI205
(lp518
sI206
(lp519
Vquality
p520
aVhardware
p521
asI207
(lp522
Vimage
p523
asI208
(lp524
Vplug
p525
aS'shows'
p526
asI209
(lp527
Vsoftware
p528
aS'image'
p529
aS'g3'
p530
asI210
(lp531
sI211
(lp532
Vimages
p533
asI212
(lp534
Vimages
p535
aVanything
p536
aVsystem
p537
asI213
(lp538
sI214
(lp539
Vcamera
p540
aVpoint
p541
aVshoot
p542
aS'ability'
p543
asI215
(lp544
Vpoint
p545
aS'shoot'
p546
aS'girlfriend'
p547
asI216
(lp548
Vcameras
p549
asI217
(lp550
sI218
(lp551
Vbreeze
p552
aS'quality'
p553
aVfunctionality
p554
asI219
(lp555
Vmonth
p556
aVcameras
p557
aVbuy
p558
asI220
(lp559
S'lcd'
p560
asI221
(lp561
Vcamera
p562
aS'sites'
p563
asI222
(lp564
sI223
(lp565
Vreview
p566
aVreviews
p567
asI224
(lp568
Vcamera
p569
asI225
(lp570
sI226
(lp571
sI227
(lp572
Vcondition
p573
asI228
(lp574
Vphotos
p575
asI229
(lp576
sI230
(lp577
sI231
(lp578
Vreviewers
p579
aVsettings
p580
asI232
(lp581
Vflexibility
p582
aVpriority
p583
aS'modes'
p584
asI233
(lp585
Vfeatures
p586
aVphotos
p587
aVflowers
p588
aVtrilliums
p589
asI234
(lp590
S'lens'
p591
aS'viewfinder'
p592
aVreviews
p593
asI235
(lp594
S'doubler'
p595
aS'one'
p596
aS'effect'
p597
asI236
(lp598
sI237
(lp599
sI238
(lp600
Vthings
p601
aVcamera
p602
asI239
(lp603
Vfan
p604
aVexpectation
p605
asI240
(lp606
sI241
(lp607
Vgains
p608
asI242
(lp609
Vformat
p610
aVflexibility
p611
aS'processing'
p612
asI243
(lp613
Vg2
p614
aS'hours'
p615
asI244
(lp616
Vcapture
p617
aS'software'
p618
asI245
(lp619
S'picasa'
p620
aS'software'
p621
asI246
(lp622
Vsquarer
p623
aVbalance
p624
asI247
(lp625
sI248
(lp626
sI249
(lp627
Vcorrection
p628
asI250
(lp629
sI251
(lp630
S'effect'
p631
aS'modes'
p632
aS'mode'
p633
aS'func'
p634
aS'menu'
p635
aVoption
p636
aS'replacement'
p637
aS'exposure'
p638
asI252
(lp639
sI253
(lp640
Vview
p641
aVsoftware
p642
asI254
(lp643
sI255
(lp644
sI256
(lp645
Vedges
p646
asI257
(lp647
sI258
(lp648
Vcamera
p649
aS'g2'
p650
aS'rep'
p651
aS'g3'
p652
asI259
(lp653
Vcolors
p654
aVhaze
p655
aS'g2'
p656
asI260
(lp657
Vquality
p658
aVdetail
p659
aS'balance'
p660
aS'view'
p661
asI261
(lp662
sI262
(lp663
S'd100s'
p664
aVcanon
p665
asI263
(lp666
sI264
(lp667
sI265
(lp668
Vmistake
p669
asI266
(lp670
Vlight
p671
aS'shutter'
p672
asI267
(lp673
Vpictures
p674
asI268
(lp675
sI269
(lp676
Vcameras
p677
aS'g3'
p678
asI270
(lp679
sI271
(lp680
S'camera'
p681
aVneeds
p682
aS'mind'
p683
aS'fiance'
p684
asI272
(lp685
S'camera'
p686
aS'focus'
p687
asI273
(lp688
Vcameras
p689
asI274
(lp690
Vzoom
p691
aVpictures
p692
aS'features'
p693
asI275
(lp694
Vuser
p695
aVformat
p696
aS'cp5000'
p697
aS'photos'
p698
asI276
(lp699
Vcamera
p700
asI277
(lp701
Vfeatures
p702
asI278
(lp703
Vcare
p704
asI279
(lp705
S'artifacts'
p706
aS'photos'
p707
aS'noise'
p708
asI280
(lp709
S'fiance'
p710
aS'way'
p711
asI281
(lp712
sI282
(lp713
Vcamera
p714
asI283
(lp715
S'feel'
p716
aS'fiance'
p717
asI284
(lp718
sI285
(lp719
Vzoom
p720
aVphotos
p721
aVcameras
p722
aVscreen
p723
aVsoftware
p724
aS'swivel'
p725
aS'lcd'
p726
asI286
(lp727
Vcamera
p728
aS'lot'
p729
aS'hands'
p730
aS'g3'
p731
aVpurchase
p732
asI287
(lp733
Vcameras
p734
asI288
(lp735
sI289
(lp736
Vpictures
p737
aS'cameras'
p738
asI290
(lp739
Vcamera
p740
aS'g3'
p741
asI291
(lp742
sI292
(lp743
Vphotos
p744
asI293
(lp745
S'pros'
p746
asI294
(lp747
Vfeatures
p748
asI295
(lp749
Vcard
p750
asI296
(lp751
Vcameras
p752
aVshots
p753
asI297
(lp754
Vfriends
p755
aS'none'
p756
aVbutton
p757
aS'camera'
p758
aS'delay'
p759
asI298
(lp760
sI299
(lp761
sI300
(lp762
S'fun'
p763
aS'processing'
p764
aS'film'
p765
asI301
(lp766
sI302
(lp767
sI303
(lp768
Vflaw
p769
asI304
(lp770
Vtime
p771
aS'picture'
p772
asI305
(lp773
sI306
(lp774
sI307
(lp775
sI308
(lp776
sI309
(lp777
sI310
(lp778
S'shot'
p779
aS'camera'
p780
asI311
(lp781
sI312
(lp782
sI313
(lp783
S'button'
p784
asI314
(lp785
sI315
(lp786
S'camera'
p787
asI316
(lp788
sI317
(lp789
sI318
(lp790
S'picture'
p791
aS'kick'
p792
aS'board'
p793
asI319
(lp794
S'g3'
p795
asI320
(lp796
sI321
(lp797
Vsun
p798
asI322
(lp799
sI323
(lp800
sI324
(lp801
S'moments'
p802
aS'cameras'
p803
asI325
(lp804
sI326
(lp805
sI327
(lp806
S'blow'
p807
asI328
(lp808
Vcameras
p809
aS'moments'
p810
aS'camera'
p811
asI329
(lp812
Vproblem
p813
asI330
(lp814
sI331
(lp815
sI332
(lp816
sI333
(lp817
S'ability'
p818
aS'g3'
p819
aVcamera
p820
asI334
(lp821
Vstore
p822
aS'ability'
p823
aS'cameras'
p824
asI335
(lp825
Vdevice
p826
aS'moment'
p827
asI336
(lp828
Vcamera
p829
asI337
(lp830
sI338
(lp831
sI339
(lp832
sI340
(lp833
Vpictures
p834
aVlens
p835
asI341
(lp836
sI342
(lp837
Vcamera
p838
aS'g3'
p839
asI343
(lp840
sI344
(lp841
sI345
(lp842
Vmenus
p843
aVcontrols
p844
asI346
(lp845
Vreview
p846
asI347
(lp847
sI348
(lp848
Vreviews
p849
asI349
(lp850
Vreviews
p851
asI350
(lp852
Vcap
p853
asI351
(lp854
S'camera'
p855
aS'cap'
p856
aS'lens'
p857
asI352
(lp858
sI353
(lp859
sI354
(lp860
sI355
(lp861
sI356
(lp862
Vcasing
p863
asI357
(lp864
sI358
(lp865
sI359
(lp866
sI360
(lp867
sI361
(lp868
Vchoice
p869
aS'canon'
p870
asI362
(lp871
Vbrands
p872
asI363
(lp873
sI364
(lp874
sI365
(lp875
Vperformance
p876
asI366
(lp877
Vfeatures
p878
asI367
(lp879
sI368
(lp880
sI369
(lp881
sI370
(lp882
sI371
(lp883
sI372
(lp884
Vcamera
p885
asI373
(lp886
sI374
(lp887
sI375
(lp888
S'everything'
p889
asI376
(lp890
S'features'
p891
aS'camera'
p892
asI377
(lp893
sI378
(lp894
Vmenus
p895
asI379
(lp896
sI380
(lp897
Vbattery
p898
asI381
(lp899
S'friend'
p900
aS'batteries'
p901
asI382
(lp902
Vzoom
p903
aS'settings'
p904
aS'viewfinder'
p905
asI383
(lp906
Vflaw
p907
asI384
(lp908
Vcamera
p909
aVthing
p910
asI385
(lp911
Vlot
p912
aVcameras
p913
aVdrives
p914
aS'things'
p915
aVpc
p916
aS'phones'
p917
asI386
(lp918
Vcamera
p919
aS'megapixel/4x'
p920
aS'zoom'
p921
asI387
(lp922
sI388
(lp923
Vcameras
p924
aVinfo
p925
asI389
(lp926
Vreviews
p927
aVspecs
p928
aS'opinions'
p929
asI390
(lp930
sI391
(lp931
sI392
(lp932
sI393
(lp933
sI394
(lp934
Vlines
p935
aVgrip
p936
aVcamera
p937
asI395
(lp938
Velphs
p939
aVcameras
p940
asI396
(lp941
Vcamera
p942
asI397
(lp943
sI398
(lp944
sI399
(lp945
Vcompromise
p946
asI400
(lp947
sI401
(lp948
Vreviews
p949
aS'dozen'
p950
aVdeal
p951
aS'online'
p952
asI402
(lp953
sI403
(lp954
S'shortcomings'
p955
asI404
(lp956
Vchoice
p957
asI405
(lp958
sI406
(lp959
Vhand
p960
asI407
(lp961
Vcompromise
p962
asI408
(lp963
sI409
(lp964
sI410
(lp965
sI411
(lp966
Vcamera
p967
asI412
(lp968
sI413
(lp969
sI414
(lp970
S'time'
p971
aVsoftware
p972
asI415
(lp973
sI416
(lp974
sI417
(lp975
sI418
(lp976
sI419
(lp977
Vstitch
p978
asI420
(lp979
Vcamera
p980
asI421
(lp981
S'ti'
p982
aS'sub'
p983
asI422
(lp984
sI423
(lp985
sI424
(lp986
sI425
(lp987
sI426
(lp988
Vtime
p989
aS'money'
p990
asI427
(lp991
Vcost
p992
aS'time'
p993
asI428
(lp994
sI429
(lp995
Vuse
p996
asI430
(lp997
Vcamera
p998
asI431
(lp999
Vpics
p1000
aVtime
p1001
aVexperience
p1002
aS'printing'
p1003
asI432
(lp1004
S'none'
p1005
aS'camera'
p1006
asI433
(lp1007
Vtechnology
p1008
aVcamera
p1009
aS'wife'
p1010
asI434
(lp1011
Vones
p1012
asI435
(lp1013
Vprinter
p1014
aS'flash'
p1015
asI436
(lp1016
Vslr
p1017
aVlens
p1018
aS'point'
p1019
asI437
(lp1020
sI438
(lp1021
sI439
(lp1022
Vcamera
p1023
aVcameras
p1024
asI440
(lp1025
Vone
p1026
aVmoney
p1027
asI441
(lp1028
Vchoice
p1029
aS'camera'
p1030
asI442
(lp1031
Vdesign
p1032
asI443
(lp1033
S'display'
p1034
asI444
(lp1035
Videa
p1036
asI445
(lp1037
Vthing
p1038
aVcard
p1039
asI446
(lp1040
Vcameras
p1041
aVrule
p1042
asI447
(lp1043
Vthing
p1044
aVplaces
p1045
asI448
(lp1046
sI449
(lp1047
Vexpectations
p1048
asI450
(lp1049
sI451
(lp1050
sI452
(lp1051
Vbuffs
p1052
aVbrick
p1053
aS'plastic'
p1054
asI453
(lp1055
sI454
(lp1056
Vrange
p1057
aVslr
p1058
aVoptions
p1059
aS'pro'
p1060
asI455
(lp1061
Vresults
p1062
aS'auto'
p1063
asI456
(lp1064
S'wife'
p1065
asI457
(lp1066
Vslr
p1067
aS'range'
p1068
asI458
(lp1069
Vscreen
p1070
asI459
(lp1071
Vpoints
p1072
asI460
(lp1073
Vcard
p1074
asI461
(lp1075
sI462
(lp1076
sI463
(lp1077
Vexperience
p1078
asI464
(lp1079
sI465
(lp1080
S'unit'
p1081
aVbag
p1082
asI466
(lp1083
sI467
(lp1084
Vhandbags
p1085
aS'pockets'
p1086
asI468
(lp1087
S'one'
p1088
asI469
(lp1089
Vcameras
p1090
aVsubjects
p1091
asI470
(lp1092
Vflashes
p1093
aS'shoe'
p1094
aS'g3'
p1095
asI471
(lp1096
sI472
(lp1097
Vstrap
p1098
aVquibble
p1099
asI473
(lp1100
Vpoints
p1101
asI474
(lp1102
sI475
(lp1103
S'lot'
p1104
aS'canon'
p1105
aS'options'
p1106
asI476
(lp1107
sI477
(lp1108
sI478
(lp1109
Vprinter
p1110
aVresults
p1111
asI479
(lp1112
sI480
(lp1113
Vfunctions
p1114
aVpoint
p1115
aS'shoot'
p1116
aS'something'
p1117
asI481
(lp1118
Vcamera
p1119
asI482
(lp1120
S'opinions'
p1121
asI483
(lp1122
Vresearch
p1123
asI484
(lp1124
Vcamera
p1125
aS'category'
p1126
aVprice
p1127
asI485
(lp1128
Vitems
p1129
asI486
(lp1130
S'macro'
p1131
aVpoint
p1132
aS'shoot'
p1133
aVphotographs
p1134
asI487
(lp1135
Vdigicam
p1136
asI488
(lp1137
sI489
(lp1138
Vcanon
p1139
aVtechnology
p1140
asI490
(lp1141
Vmonitor
p1142
aS'resol'
p1143
asI491
(lp1144
Vstory
p1145
asI492
(lp1146
Vusage
p1147
aS'story'
p1148
asI493
(lp1149
S'lens'
p1150
aS'barrel'
p1151
aS'corner'
p1152
asI494
(lp1153
S'distortion'
p1154
aS'viewfinder'
p1155
asI495
(lp1156
sI496
(lp1157
Vpictures
p1158
aVpeople
p1159
aVbrand
p1160
aS'errors'
p1161
aVcompactflash
p1162
aVshots
p1163
asI497
(lp1164
sI498
(lp1165
sI499
(lp1166
Vcurve
p1167
asI500
(lp1168
Vbattery
p1169
aVaccessories
p1170
asI501
(lp1171
Vcharge
p1172
asI502
(lp1173
Vflash
p1174
aVspace
p1175
aVtrips
p1176
aVcompactflash
p1177
aS'max'
p1178
aVresolution
p1179
aS'quality'
p1180
aS'subnotebook'
p1181
aVconnection
p1182
aS'tons'
p1183
aS'picture'
p1184
asI503
(lp1185
Vflash
p1186
aVcamera
p1187
asI504
(lp1188
sI505
(lp1189
sI506
(lp1190
Vquality
p1191
aS'durability'
p1192
aVsnow
p1193
aS'car'
p1194
aS'boat'
p1195
aS'wind'
p1196
asI507
(lp1197
Vsuggestion
p1198
aS'protector'
p1199
aS'coating'
p1200
aS'lens'
p1201
aS'uv'
p1202
aS'filter'
p1203
aS'wipes'
p1204
aVadapter
p1205
asI508
(lp1206
Vadapter
p1207
asI509
(lp1208
sI510
(lp1209
sI511
(lp1210
Vpictures
p1211
asI512
(lp1212
Vreviews
p1213
aS'part'
p1214
aS'barrel'
p1215
aVcorner
p1216
asI513
(lp1217
Vg2
p1218
aS'g3'
p1219
aVshooting
p1220
aS'lens'
p1221
aS'layout'
p1222
aS'zoom'
p1223
aS'processing'
p1224
asI514
(lp1225
Vchoices
p1226
asI515
(lp1227
sI516
(lp1228
Vshipping
p1229
asI517
(lp1230
sI518
(lp1231
sI519
(lp1232
sI520
(lp1233
sI521
(lp1234
sI522
(lp1235
sI523
(lp1236
sI524
(lp1237
sI525
(lp1238
sI526
(lp1239
sI527
(lp1240
sI528
(lp1241
S'flaw'
p1242
aS'camera'
p1243
asI529
(lp1244
S'corner'
p1245
aS'bottom'
p1246
asI530
(lp1247
Vcamera
p1248
asI531
(lp1249
S'lcd'
p1250
aS'people'
p1251
asI532
(lp1252
sI533
(lp1253
sI534
(lp1254
S'view'
p1255
asI535
(lp1256
sI536
(lp1257
Vzoom
p1258
aVshoe
p1259
aVflash
p1260
aS'adjustability'
p1261
aS'control'
p1262
asI537
(lp1263
Vcoolpix
p1264
aS'g3'
p1265
aS'price'
p1266
asI538
(lp1267
S'hundreds'
p1268
aS'camera'
p1269
aVweeks
p1270
asI539
(lp1271
sI540
(lp1272
Vdifference
p1273
asI541
(lp1274
Vlens
p1275
aVlight
p1276
aVzooms
p1277
aS'quality'
p1278
asI542
(lp1279
Vscreen
p1280
asI543
(lp1281
S'camera'
p1282
aS'way'
p1283
aVshot
p1284
asI544
(lp1285
Vunit
p1286
asI545
(lp1287
Vtripod
p1288
aVcamera
p1289
aVcontrol
p1290
aVportraits
p1291
asI546
(lp1292
Vshoe
p1293
aS'attachment'
p1294
aVunit
p1295
asI547
(lp1296
sI548
(lp1297
Vdifference
p1298
aVshadows
p1299
aVlighting
p1300
aS'pleasing'
p1301
aS'eye'
p1302
aS'unit'
p1303
aVphotos
p1304
asI549
(lp1305
Vpowerhouse
p1306
aS'battery'
p1307
asI550
(lp1308
sI551
(lp1309
Vcameras
p1310
aS'type'
p1311
aS'g3'
p1312
aVcamera
p1313
aS'system'
p1314
asI552
(lp1315
Vmetering
p1316
aS'adjustments'
p1317
aVpriority
p1318
aS'controls'
p1319
asI553
(lp1320
Vcamera
p1321
aVsetting
p1322
aVsettings
p1323
asI554
(lp1324
sI555
(lp1325
sI556
(lp1326
Vphotography
p1327
asI557
(lp1328
S'button'
p1329
aVlock
p1330
asI558
(lp1331
S'bit'
p1332
aS'construction'
p1333
aS'body'
p1334
asI559
(lp1335
Vresolution
p1336
asI560
(lp1337
S'photos'
p1338
asI561
(lp1339
Vdrive
p1340
aVimages
p1341
asI562
(lp1342
S'memory'
p1343
asI563
(lp1344
sI564
(lp1345
sI565
(lp1346
Vcameras
p1347
asI566
(lp1348
Vphotography
p1349
aVshoot
p1350
asI567
(lp1351
sI568
(lp1352
sI569
(lp1353
sI570
(lp1354
S'custom'
p1355
aVcard
p1356
aS'balance'
p1357
asI571
(lp1358
Vsettings
p1359
aS'pictures'
p1360
aS'problem'
p1361
asI572
(lp1362
Vcard
p1363
aVpaper
p1364
asI573
(lp1365
sI574
(lp1366
Vsituations
p1367
asI575
(lp1368
S'extension'
p1369
aVlens
p1370
asI576
(lp1371
sI577
(lp1372
sI578
(lp1373
Vcamera
p1374
aVphotos
p1375
asI579
(lp1376
sI580
(lp1377
Vquality
p1378
aS'feel'
p1379
aS'features'
p1380
aS'coloration'
p1381
aVresolution
p1382
asI581
(lp1383
Vcapabilities
p1384
aVtypes
p1385
aVlife
p1386
aS'features'
p1387
aS'formats'
p1388
aS'competition'
p1389
asI582
(lp1390
sI583
(lp1391
Vfeatures
p1392
aS'enthusiast'
p1393
aS'choice'
p1394
asI584
(lp1395
Vcamera
p1396
asI585
(lp1397
S'g2'
p1398
aS'picture'
p1399
aS'performance'
p1400
aVquality
p1401
aS'life'
p1402
asI586
(lp1403
sI587
(lp1404
Vcamera
p1405
aS'g3'
p1406
asI588
(lp1407
sI589
(lp1408
sI590
(lp1409
sI591
(lp1410
S'strap'
p1411
asI592
(lp1412
Vcamera
p1413
asI593
(lp1414
Vcamera
p1415
asI594
(lp1416
S'quality'
p1417
aS'canon'
p1418
aS'lens'
p1419
asI595
(lp1420
sI596
(lp1421
Vcamera
p1422
aVpoint
p1423
aS'shoot'
p1424
asI597
(lp1425
sI598
(lp1426
sI599
(lp1427
sI600
(lp1428
sI601
(lp1429
sI602
(lp1430
Vjob
p1431
aS'manual'
p1432
asI603
(lp1433
sI604
(lp1434
Vflash
p1435
aVbattery
p1436
asI605
(lp1437
Vvacation
p1438
aS'battery'
p1439
asI606
(lp1440
sI607
(lp1441
Vcameras
p1442
asI608
(lp1443
Vproduction
p1444
aS'model'
p1445
aVbudget
p1446
asI609
(lp1447
sI610
(lp1448
Vresults
p1449
asI611
(lp1450
Vmode
p1451
asI612
(lp1452
S'pictures'
p1453
asI613
(lp1454
S'minutes'
p1455
aS'time'
p1456
aS'life'
p1457
asI614
(lp1458
Vmode
p1459
aVresolution
p1460
aVcard
p1461
aS'camera'
p1462
asI615
(lp1463
sI616
(lp1464
Vpoint
p1465
aS'camera'
p1466
asI617
(lp1467
Vpower
p1468
asI618
(lp1469
Voptions
p1470
aS'power'
p1471
aVamount
p1472
aS'ease'
p1473
asI619
(lp1474
sI620
(lp1475
Vpower
p1476
asI621
(lp1477
S'powershot'
p1478
aS'canon'
p1479
asI622
(lp1480
sI623
(lp1481
sI624
(lp1482
Vfunctionality
p1483
aS'pricing'
p1484
aS'cameras'
p1485
asI625
(lp1486
sI626
(lp1487
sI627
(lp1488
Vtransfer
p1489
aVcable
p1490
asI628
(lp1491
Vway
p1492
aS'days'
p1493
asI629
(lp1494
S'reader'
p1495
asI630
(lp1496
sI631
(lp1497
Vbattery
p1498
aVpictures
p1499
asI632
(lp1500
sI633
(lp1501
Vbatteries
p1502
asI634
(lp1503
Vreviewers
p1504
aVthings
p1505
asI635
(lp1506
Vones
p1507
asI636
(lp1508
Vsound
p1509
asI637
(lp1510
sI638
(lp1511
S'nikon'
p1512
aS'software'
p1513
asI639
(lp1514
sI640
(lp1515
Vway
p1516
aVdirectory
p1517
asI641
(lp1518
S'image'
p1519
asI642
(lp1520
sI643
(lp1521
S'room'
p1522
asI644
(lp1523
sI645
(lp1524
Vspeed
p1525
aVcard
p1526
asI646
(lp1527
Vcards
p1528
aS'viking'
p1529
aS'quality'
p1530
aS'image'
p1531
aS'picture'
p1532
aS'cf'
p1533
aS'couple'
p1534
asI647
(lp1535
sI648
(lp1536
Vcamera
p1537
aVclarity
p1538
asI649
(lp1539
S'picture'
p1540
aS'stars'
p1541
asI650
(lp1542
S'dial'
p1543
aS'menu'
p1544
asI651
(lp1545
sI652
(lp1546
Vweeks
p1547
asI653
(lp1548
Vdamage
p1549
asI654
(lp1550
sI655
(lp1551
Vcamera
p1552
aVfunction
p1553
aS'quality'
p1554
aS'service'
p1555
asI656
(lp1556
S'error'
p1557
aS'problem'
p1558
asI657
(lp1559
sI658
(lp1560
S'design'
p1561
asI659
(lp1562
sI660
(lp1563
sI661
(lp1564
Vpictures
p1565
aS'delay'
p1566
asI662
(lp1567
sI663
(lp1568
Vworld
p1569
asI664
(lp1570
Vcamera
p1571
aVfeatures
p1572
aS'price'
p1573
asI665
(lp1574
Vcamera
p1575
asI666
(lp1576
Vphotos
p1577
aVprints
p1578
asI667
(lp1579
Vcamera
p1580
asI668
(lp1581
Vcamera
p1582
asI669
(lp1583
Vtypes
p1584
aVsettings
p1585
asI670
(lp1586
Vcamcorder
p1587
aVbrand
p1588
asI671
(lp1589
Vrequirements
p1590
aS's400'
p1591
aS'models'
p1592
asI672
(lp1593
Vsoftware
p1594
aVreviews
p1595
aS'nod'
p1596
aS'nikon'
p1597
aVauto
p1598
aS'manual'
p1599
aVsize
p1600
aS'price'
p1601
aS'name'
p1602
asI673
(lp1603
sI674
(lp1604
S'camera'
p1605
asI675
(lp1606
sI676
(lp1607
Vsetting
p1608
asI677
(lp1609
Vimpatient
p1610
aS'while'
p1611
asI678
(lp1612
Vprocess
p1613
asI679
(lp1614
S'think'
p1615
aVproblems
p1616
aVcameras
p1617
aVcomplaints
p1618
asI680
(lp1619
sI681
(lp1620
Vcard
p1621
aS'usb'
p1622
aS'reader'
p1623
aS'bag'
p1624
aS'warranty'
p1625
asI682
(lp1626
S'maker'
p1627
aS'picture'
p1628
aS'processing'
p1629
aS'one'
p1630
aS'brightness'
p1631
aVclarity
p1632
asI683
(lp1633
sI684
(lp1634
S'photographs'
p1635
asI685
(lp1636
Vphotographs
p1637
asI686
(lp1638
Vage
p1639
asI687
(lp1640
Vmoney
p1641
asI688
(lp1642
S'lense'
p1643
aVpictures
p1644
aVproduce
p1645
asI689
(lp1646
Vmode
p1647
aVauto
p1648
aS'manual'
p1649
aS'possibilities'
p1650
aVsettings
p1651
aS'beach'
p1652
asI690
(lp1653
S'mode'
p1654
asI691
(lp1655
S'charger'
p1656
aS'usb'
p1657
aS'cable'
p1658
aS'win98'
p1659
aVproblem
p1660
aVxp
p1661
asI692
(lp1662
Vresolution
p1663
asI693
(lp1664
Vresults
p1665
aS'retailers'
p1666
aVprint
p1667
aVbrick
p1668
asI694
(lp1669
Vsetting
p1670
aVrendering
p1671
aVsign
p1672
asI695
(lp1673
sI696
(lp1674
Vcharger
p1675
asI697
(lp1676
sI698
(lp1677
Vbag
p1678
aVcables
p1679
aS'charger'
p1680
asI699
(lp1681
S'folder'
p1682
aS'lense'
p1683
aS'adapter'
p1684
aS'reader'
p1685
asI700
(lp1686
Vcamera
p1687
aVlevel
p1688
asI701
(lp1689
Vreview
p1690
aVshop
p1691
asI702
(lp1692
Vpictures
p1693
asI703
(lp1694
Vpictures
p1695
aVsubjects
p1696
asI704
(lp1697
sI705
(lp1698
S'rack'
p1699
aS'display'
p1700
asI706
(lp1701
sI707
(lp1702
sI708
(lp1703
sI709
(lp1704
sI710
(lp1705
Vfeatures
p1706
aS'camera'
p1707
aS'others'
p1708
asI711
(lp1709
Vsettings
p1710
aVperson
p1711
aVhands
p1712
asI712
(lp1713
sI713
(lp1714
S'lease'
p1715
aVvalue
p1716
aS'name'
p1717
aS'resolution'
p1718
asI714
(lp1719
Vpictures
p1720
aS'nikon'
p1721
asI715
(lp1722
Vzoom
p1723
asI716
(lp1724
Vpics
p1725
asI717
(lp1726
Vfeatures
p1727
aS'presets'
p1728
asI718
(lp1729
Vpics
p1730
aS'feature'
p1731
asI719
(lp1732
sI720
(lp1733
sI721
(lp1734
Vcard
p1735
asI722
(lp1736
Vresolution
p1737
asI723
(lp1738
Vpics
p1739
asI724
(lp1740
sI725
(lp1741
sI726
(lp1742
Vmove
p1743
asI727
(lp1744
sI728
(lp1745
Vcamera
p1746
aVinvestment
p1747
asI729
(lp1748
Vcamera
p1749
aVnikon
p1750
aS'models'
p1751
asI730
(lp1752
S'coolpix'
p1753
aS'compact'
p1754
aVquality
p1755
asI731
(lp1756
Vbattery
p1757
aVcards
p1758
aS'couple'
p1759
asI732
(lp1760
S'setting'
p1761
aS'settings'
p1762
asI733
(lp1763
sI734
(lp1764
sI735
(lp1765
Vfeatures
p1766
aVones
p1767
asI736
(lp1768
Vpics
p1769
asI737
(lp1770
Vpics
p1771
aS'manual'
p1772
asI738
(lp1773
Vthings
p1774
aVdaylight
p1775
aS'everyone'
p1776
asI739
(lp1777
sI740
(lp1778
Vuse
p1779
asI741
(lp1780
sI742
(lp1781
Vcamera
p1782
asI743
(lp1783
S'pics'
p1784
asI744
(lp1785
Vtake
p1786
aS'pictures'
p1787
aS'day'
p1788
asI745
(lp1789
Vpics
p1790
aVprints
p1791
aVeverything
p1792
asI746
(lp1793
Vzoom
p1794
asI747
(lp1795
Vflash
p1796
aS'lot'
p1797
asI748
(lp1798
S'tiff'
p1799
aS'quality'
p1800
asI749
(lp1801
Vcamera
p1802
aVcamper
p1803
aS'perspective'
p1804
asI750
(lp1805
Vcamera
p1806
asI751
(lp1807
Vcameras
p1808
asI752
(lp1809
sI753
(lp1810
S'mp'
p1811
aS'room'
p1812
aS'time'
p1813
aS'cost'
p1814
aS'experience'
p1815
aVpackage
p1816
aS'reputation'
p1817
asI754
(lp1818
Vlighting
p1819
asI755
(lp1820
Vcamera
p1821
asI756
(lp1822
Vservice
p1823
asI757
(lp1824
Vthought
p1825
aS'time'
p1826
asI758
(lp1827
sI759
(lp1828
sI760
(lp1829
Vpoint
p1830
aS'shoot'
p1831
aS'photos'
p1832
asI761
(lp1833
sI762
(lp1834
Vfit
p1835
aS'card'
p1836
aS'software'
p1837
asI763
(lp1838
Valbum
p1839
asI764
(lp1840
sI765
(lp1841
sI766
(lp1842
sI767
(lp1843
sI768
(lp1844
Vcamera
p1845
aVresults
p1846
aVusage
p1847
asI769
(lp1848
sI770
(lp1849
Vcamera
p1850
aS'features'
p1851
asI771
(lp1852
S'plenty'
p1853
asI772
(lp1854
sI773
(lp1855
S'friends'
p1856
asI774
(lp1857
sI775
(lp1858
Vpower
p1859
asI776
(lp1860
sI777
(lp1861
Vcf
p1862
aVbattery
p1863
asI778
(lp1864
Vcamera
p1865
asI779
(lp1866
sI780
(lp1867
sI781
(lp1868
sI782
(lp1869
Vsize
p1870
aVperson
p1871
asI783
(lp1872
Vphotos
p1873
aVversions
p1874
asI784
(lp1875
Vpackage
p1876
asI785
(lp1877
sI786
(lp1878
sI787
(lp1879
Vdrawbacks
p1880
asI788
(lp1881
Vbattery
p1882
asI789
(lp1883
Videa
p1884
aVbattery
p1885
aVhanging
p1886
asI790
(lp1887
S'focus'
p1888
aVsituations
p1889
aVlight
p1890
aS'camera'
p1891
asI791
(lp1892
Vissue
p1893
asI792
(lp1894
Vzoom
p1895
asI793
(lp1896
Vzoom
p1897
aVweight
p1898
aS'size'
p1899
aS'glass'
p1900
aS'length'
p1901
asI794
(lp1902
Vzoom
p1903
asI795
(lp1904
Vreason
p1905
asI796
(lp1906
Vmode
p1907
asI797
(lp1908
Vmenus
p1909
aS'features'
p1910
aVaf
p1911
aVbutton
p1912
asI798
(lp1913
Vdrawbacks
p1914
aS'camera'
p1915
aVmodels
p1916
asI799
(lp1917
sI800
(lp1918
Vcamera
p1919
asI801
(lp1920
sI802
(lp1921
Vshots
p1922
aS'macro'
p1923
asI803
(lp1924
Vmenus
p1925
aS'features'
p1926
aS'movies'
p1927
aS'access'
p1928
asI804
(lp1929
Vcameras
p1930
asI805
(lp1931
sI806
(lp1932
S'time'
p1933
aVwaste
p1934
asI807
(lp1935
sI808
(lp1936
S'nikon'
p1937
aS'slr'
p1938
asI809
(lp1939
Vcombos
p1940
aVfunctions
p1941
aVcamera
p1942
asI810
(lp1943
sI811
(lp1944
Vcamera
p1945
aVchildren
p1946
asI812
(lp1947
Vcapacity
p1948
aVcard
p1949
asI813
(lp1950
Vmoment
p1951
aVmoney
p1952
asI814
(lp1953
S'el'
p1954
asI815
(lp1955
sI816
(lp1956
Vfine
p1957
aS'pictures'
p1958
aS'pics'
p1959
aS'card'
p1960
asI817
(lp1961
sI818
(lp1962
sI819
(lp1963
S'nikon'
p1964
aVmemories
p1965
asI820
(lp1966
Vcamera
p1967
aVpictures
p1968
aS'weeks'
p1969
asI821
(lp1970
Vpictures
p1971
aS'number'
p1972
aS'ways'
p1973
aS'camera'
p1974
asI822
(lp1975
sI823
(lp1976
Vclarity
p1977
aVlag
p1978
aVsize
p1979
aVgrip
p1980
aVresolution
p1981
aS'color'
p1982
aVpicture
p1983
asI824
(lp1984
S'magazines'
p1985
aVpersonnel
p1986
aS'sales'
p1987
aVinternet
p1988
asI825
(lp1989
sI826
(lp1990
S'expectations'
p1991
aS'camera'
p1992
asI827
(lp1993
Vshots
p1994
asI828
(lp1995
Vspeed
p1996
aVcard
p1997
aS'advance'
p1998
aS'frame'
p1999
aVcameras
p2000
asI829
(lp2001
S'pc'
p2002
asI830
(lp2003
Vdrawbacks
p2004
aVshots
p2005
aVcontrast
p2006
aS'color'
p2007
asI831
(lp2008
Vslave
p2009
aVcameras
p2010
asI832
(lp2011
Vside
p2012
aS'life'
p2013
asI833
(lp2014
Vshots
p2015
asI834
(lp2016
Vinvestment
p2017
asI835
(lp2018
S'software'
p2019
asI836
(lp2020
sI837
(lp2021
Vlight
p2022
aS'camera'
p2023
aS'thing'
p2024
asI838
(lp2025
Vkitchen
p2026
aVlight
p2027
asI839
(lp2028
Vpoint
p2029
aS'camera'
p2030
asI840
(lp2031
Vreview
p2032
asI841
(lp2033
sI842
(lp2034
S'1s'
p2035
asI843
(lp2036
sI844
(lp2037
S'set'
p2038
aS'cap'
p2039
asI845
(lp2040
sI846
(lp2041
Vadapter
p2042
aS'filter'
p2043
asI847
(lp2044
sI848
(lp2045
Vcases
p2046
aVfit
p2047
asI849
(lp2048
Vcamera
p2049
asI850
(lp2050
sI851
(lp2051
Vpictures
p2052
asI852
(lp2053
sI853
(lp2054
sI854
(lp2055
Vpictures
p2056
asI855
(lp2057
sI856
(lp2058
sI857
(lp2059
sI858
(lp2060
sI859
(lp2061
sI860
(lp2062
sI861
(lp2063
Vfun
p2064
aVchallenge
p2065
aVscene
p2066
aS'mode'
p2067
asI862
(lp2068
Vbattery
p2069
asI863
(lp2070
sI864
(lp2071
Vcameras
p2072
asI865
(lp2073
S'one'
p2074
aS'epinions.com'
p2075
aVsite
p2076
asI866
(lp2077
sI867
(lp2078
Vsettings
p2079
asI868
(lp2080
Vshots
p2081
asI869
(lp2082
Vpictures
p2083
aS'convenience'
p2084
aVoutweighs
p2085
asI870
(lp2086
sI871
(lp2087
sI872
(lp2088
sI873
(lp2089
sI874
(lp2090
Vamount
p2091
asI875
(lp2092
sI876
(lp2093
sI877
(lp2094
Vmode
p2095
asI878
(lp2096
S'mode'
p2097
aVsetting
p2098
asI879
(lp2099
Vzoom
p2100
aS'camera'
p2101
asI880
(lp2102
Vsetting
p2103
asI881
(lp2104
sI882
(lp2105
Vcamera
p2106
asI883
(lp2107
Vperformance
p2108
aVgem
p2109
aVquality
p2110
aS'travel'
p2111
aS'camera'
p2112
aVjourney
p2113
asI884
(lp2114
Vbang
p2115
aS'nikon'
p2116
asI885
(lp2117
S'array'
p2118
aS'fun'
p2119
aVtelephoto
p2120
aS'lenses'
p2121
asI886
(lp2122
Vquality
p2123
aS'features'
p2124
asI887
(lp2125
Vdesign
p2126
aS'construction'
p2127
aVquality
p2128
asI888
(lp2129
sI889
(lp2130
Veuphoria
p2131
aVstate
p2132
asI890
(lp2133
sI891
(lp2134
Vcamera
p2135
asI892
(lp2136
sI893
(lp2137
Vcamera
p2138
asI894
(lp2139
S'carpet'
p2140
asI895
(lp2141
sI896
(lp2142
sI897
(lp2143
sI898
(lp2144
sI899
(lp2145
sI900
(lp2146
S'cap'
p2147
asI901
(lp2148
sI902
(lp2149
Vcamera
p2150
aS'features'
p2151
asI903
(lp2152
S'everything'
p2153
asI904
(lp2154
Vcamera
p2155
aS'photographers'
p2156
aS'features'
p2157
asI905
(lp2158
Vweight
p2159
aS'pix'
p2160
asI906
(lp2161
Vmode
p2162
asI907
(lp2163
sI908
(lp2164
S'complaint'
p2165
asI909
(lp2166
sI910
(lp2167
Vmemory
p2168
asI911
(lp2169
Vquibble
p2170
aS'cameras'
p2171
aS'cards'
p2172
asI912
(lp2173
Vcameras
p2174
aVvalue
p2175
aS'camera'
p2176
asI913
(lp2177
sI914
(lp2178
S'features'
p2179
aS'enthusiast'
p2180
asI915
(lp2181
sI916
(lp2182
S'controls'
p2183
asI917
(lp2184
Vzooms
p2185
aVlenses
p2186
aVangles
p2187
asI918
(lp2188
Vfilm
p2189
aVdevices
p2190
asI919
(lp2191
S'model'
p2192
aS'nikon'
p2193
aVline
p2194
asI920
(lp2195
sI921
(lp2196
sI922
(lp2197
Vzoom
p2198
asI923
(lp2199
Vprice
p2200
asI924
(lp2201
sI925
(lp2202
sI926
(lp2203
sI927
(lp2204
Vviewfinder
p2205
asI928
(lp2206
sI929
(lp2207
Vpicture
p2208
asI930
(lp2209
sI931
(lp2210
sI932
(lp2211
S'adapter'
p2212
asI933
(lp2213
sI934
(lp2214
Vcameras
p2215
asI935
(lp2216
Vthing
p2217
aVperiod
p2218
aS'camera'
p2219
asI936
(lp2220
Vimages
p2221
asI937
(lp2222
S'mode'
p2223
aVmodes
p2224
asI938
(lp2225
S'size'
p2226
asI939
(lp2227
Vcamera
p2228
asI940
(lp2229
Vcamera
p2230
aVquality
p2231
aS'print'
p2232
aVpackage
p2233
asI941
(lp2234
Vmode
p2235
aVbattery
p2236
aVchip
p2237
asI942
(lp2238
Vcamera
p2239
aVimages
p2240
asI943
(lp2241
Vservice
p2242
asI944
(lp2243
Vreviews
p2244
aVphone
p2245
aVproblems
p2246
asI945
(lp2247
sI946
(lp2248
sI947
(lp2249
Vstretches
p2250
aVsignal
p2251
aS'reception'
p2252
asI948
(lp2253
Vfeatures
p2254
aVfeature
p2255
aS'phone'
p2256
aVmotorola
p2257
aS'phones'
p2258
asI949
(lp2259
Vphone
p2260
aS'radio'
p2261
aS'infrared'
p2262
aVfeatures
p2263
asI950
(lp2264
S'phone'
p2265
asI951
(lp2266
Vnokia
p2267
aVbook
p2268
aVblessing
p2269
asI952
(lp2270
S'signal'
p2271
asI953
(lp2272
sI954
(lp2273
Vplans
p2274
aS'service'
p2275
asI955
(lp2276
Vthings
p2277
asI956
(lp2278
Vsynopsis
p2279
asI957
(lp2280
Vfeatures
p2281
aS'favorite'
p2282
aS'information'
p2283
aVorganizer
p2284
aS'radio'
p2285
aVgames
p2286
aS'lots'
p2287
asI958
(lp2288
Vhours
p2289
asI959
(lp2290
sI960
(lp2291
Vvolume
p2292
aS'sound'
p2293
aS'headset'
p2294
aS'ears'
p2295
asI961
(lp2296
Vscreensavers
p2297
aS'memory'
p2298
aS'phone'
p2299
aVringtones
p2300
aS'mine'
p2301
aS'backgrounds'
p2302
asI962
(lp2303
sI963
(lp2304
S'purpose'
p2305
asI964
(lp2306
S'backlight'
p2307
asI965
(lp2308
sI966
(lp2309
Vfingertips
p2310
asI967
(lp2311
Vscreen
p2312
asI968
(lp2313
Vdownside
p2314
asI969
(lp2315
sI970
(lp2316
sI971
(lp2317
Vhearing
p2318
asI972
(lp2319
Vperson
p2320
asI973
(lp2321
Vlife
p2322
aS'phone'
p2323
asI974
(lp2324
sI975
(lp2325
sI976
(lp2326
Vservice
p2327
asI977
(lp2328
sI978
(lp2329
sI979
(lp2330
Vmo.
p2331
asI980
(lp2332
Vhours
p2333
asI981
(lp2334
sI982
(lp2335
sI983
(lp2336
sI984
(lp2337
sI985
(lp2338
sI986
(lp2339
S'reps'
p2340
aVtry
p2341
asI987
(lp2342
sI988
(lp2343
S'questions'
p2344
asI989
(lp2345
sI990
(lp2346
sI991
(lp2347
sI992
(lp2348
sI993
(lp2349
sI994
(lp2350
Vcsr
p2351
asI995
(lp2352
Vline
p2353
aS'calls'
p2354
asI996
(lp2355
sI997
(lp2356
sI998
(lp2357
sI999
(lp2358
Vsanyo
p2359
asI1000
(lp2360
sI1001
(lp2361
Vwork
p2362
asI1002
(lp2363
Vluck
p2364
aS'someone'
p2365
asI1003
(lp2366
S'ez'
p2367
aS'phones'
p2368
asI1004
(lp2369
Vcycles
p2370
asI1005
(lp2371
sI1006
(lp2372
S'phone'
p2373
aVorder
p2374
aS'working'
p2375
asI1007
(lp2376
Vindestructibility
p2377
asI1008
(lp2378
sI1009
(lp2379
Vmenus
p2380
aS'nokia'
p2381
aS'hands'
p2382
aVphones
p2383
aS'cell'
p2384
asI1010
(lp2385
Vphone
p2386
aS'color'
p2387
aS'combination'
p2388
asI1011
(lp2389
Vtouch
p2390
aVphone
p2391
asI1012
(lp2392
sI1013
(lp2393
Vphone
p2394
asI1014
(lp2395
sI1015
(lp2396
S'battery'
p2397
asI1016
(lp2398
Vusage
p2399
asI1017
(lp2400
Vcalls
p2401
aS'days'
p2402
asI1018
(lp2403
S'life'
p2404
aS'strength'
p2405
asI1019
(lp2406
S'searches'
p2407
aS'signal'
p2408
aS'power'
p2409
asI1020
(lp2410
sI1021
(lp2411
sI1022
(lp2412
sI1023
(lp2413
Vrings
p2414
asI1024
(lp2415
Vtones
p2416
asI1025
(lp2417
sI1026
(lp2418
Vphone
p2419
aVmechanism
p2420
asI1027
(lp2421
sI1028
(lp2422
sI1029
(lp2423
sI1030
(lp2424
Vphone
p2425
asI1031
(lp2426
Vlife
p2427
aVsize
p2428
aS'tid'
p2429
asI1032
(lp2430
Voptions
p2431
asI1033
(lp2432
sI1034
(lp2433
Vscreen
p2434
aS'color'
p2435
asI1035
(lp2436
sI1036
(lp2437
sI1037
(lp2438
sI1038
(lp2439
Vserver
p2440
asI1039
(lp2441
S'games'
p2442
asI1040
(lp2443
sI1041
(lp2444
Vones
p2445
asI1042
(lp2446
S'voice'
p2447
asI1043
(lp2448
Vphone
p2449
asI1044
(lp2450
S'phones'
p2451
aS'nokia'
p2452
asI1045
(lp2453
Vplan
p2454
aVheadphone
p2455
asI1046
(lp2456
Vhelp
p2457
aS'report'
p2458
aVamazon
p2459
asI1047
(lp2460
Vstore
p2461
asI1048
(lp2462
S'messages'
p2463
aS'email'
p2464
aVtext
p2465
asI1049
(lp2466
Vemail
p2467
asI1050
(lp2468
S'hour'
p2469
aS'person'
p2470
asI1051
(lp2471
sI1052
(lp2472
sI1053
(lp2473
sI1054
(lp2474
Vfeatures
p2475
aVquality
p2476
aVphone
p2477
aS'earpiece'
p2478
asI1055
(lp2479
Vbutton
p2480
aS'power'
p2481
asI1056
(lp2482
Vvisibility
p2483
asI1057
(lp2484
sI1058
(lp2485
S'title'
p2486
asI1059
(lp2487
Vspeakerphone
p2488
aS'things'
p2489
aS'working'
p2490
aVnokia
p2491
asI1060
(lp2492
sI1061
(lp2493
Vdeal
p2494
asI1062
(lp2495
sI1063
(lp2496
S'anything'
p2497
aS'phone'
p2498
asI1064
(lp2499
Vfeatures
p2500
aS'speakerphone'
p2501
asI1065
(lp2502
sI1066
(lp2503
S'phone'
p2504
asI1067
(lp2505
sI1068
(lp2506
sI1069
(lp2507
Vend
p2508
aS'person'
p2509
asI1070
(lp2510
S'feet'
p2511
asI1071
(lp2512
Vcomplaint
p2513
aS'phone'
p2514
aS'person'
p2515
asI1072
(lp2516
sI1073
(lp2517
sI1074
(lp2518
Vreception
p2519
aVradio
p2520
asI1075
(lp2521
sI1076
(lp2522
Vfeature
p2523
asI1077
(lp2524
sI1078
(lp2525
Vproblem
p2526
aVglitch
p2527
asI1079
(lp2528
S'reception'
p2529
aS'phone'
p2530
asI1080
(lp2531
sI1081
(lp2532
Vparts
p2533
asI1082
(lp2534
Vphone
p2535
asI1083
(lp2536
Vchance
p2537
aS'phone'
p2538
aS'phones'
p2539
asI1084
(lp2540
Voccasion
p2541
asI1085
(lp2542
Vphone
p2543
aS'company'
p2544
aS'cell'
p2545
asI1086
(lp2546
sI1087
(lp2547
Vtime
p2548
asI1088
(lp2549
Vroaming
p2550
asI1089
(lp2551
Vsize
p2552
aS'weight'
p2553
asI1090
(lp2554
sI1091
(lp2555
sI1092
(lp2556
sI1093
(lp2557
sI1094
(lp2558
S'days'
p2559
asI1095
(lp2560
Vbar
p2561
asI1096
(lp2562
sI1097
(lp2563
Vfeatures
p2564
aS'phone'
p2565
asI1098
(lp2566
Vinconveniences
p2567
aVproblems
p2568
aS'phone'
p2569
aS'bluetooth'
p2570
aS'things'
p2571
aS'features'
p2572
aS'internet'
p2573
asI1099
(lp2574
sI1100
(lp2575
Vphone
p2576
aVpackage
p2577
asI1101
(lp2578
Vpros
p2579
aS'reviews'
p2580
asI1102
(lp2581
sI1103
(lp2582
sI1104
(lp2583
Vtones
p2584
aS'ringing'
p2585
aVcons
p2586
aVfeature
p2587
asI1105
(lp2588
Vfeatures
p2589
aS'converter'
p2590
aS'stopwatch'
p2591
asI1106
(lp2592
sI1107
(lp2593
sI1108
(lp2594
Vsongs
p2595
aVring
p2596
asI1109
(lp2597
S'screen'
p2598
asI1110
(lp2599
Vgames
p2600
asI1111
(lp2601
Vphone
p2602
asI1112
(lp2603
Vfeatures
p2604
asI1113
(lp2605
Vtho
p2606
aVkits
p2607
asI1114
(lp2608
sI1115
(lp2609
Vpiece
p2610
asI1116
(lp2611
Vdevice
p2612
asI1117
(lp2613
S'nokia'
p2614
aVpiece
p2615
asI1118
(lp2616
Vquality
p2617
aVreception
p2618
asI1119
(lp2619
sI1120
(lp2620
Vcritter
p2621
aVsize
p2622
aS'weight'
p2623
asI1121
(lp2624
Vphones
p2625
asI1122
(lp2626
Vkeypads
p2627
asI1123
(lp2628
S'key'
p2629
aS'phones'
p2630
aVspace
p2631
asI1124
(lp2632
sI1125
(lp2633
Vcolors
p2634
asI1126
(lp2635
Vpictures
p2636
aVphones
p2637
asI1127
(lp2638
sI1128
(lp2639
Vscreen
p2640
asI1129
(lp2641
sI1130
(lp2642
sI1131
(lp2643
Vwork
p2644
aVoption
p2645
asI1132
(lp2646
sI1133
(lp2647
Vthing
p2648
asI1134
(lp2649
Vthings
p2650
aS'mm'
p2651
aVjack
p2652
aS'headset'
p2653
asI1135
(lp2654
sI1136
(lp2655
sI1137
(lp2656
Vdesign
p2657
asI1138
(lp2658
Vconstruction
p2659
asI1139
(lp2660
Vkeypad
p2661
asI1140
(lp2662
Vreception
p2663
aS'signal'
p2664
asI1141
(lp2665
Vquality
p2666
asI1142
(lp2667
Vscreen
p2668
asI1143
(lp2669
sI1144
(lp2670
Vlife
p2671
asI1145
(lp2672
sI1146
(lp2673
sI1147
(lp2674
sI1148
(lp2675
Vpictures
p2676
aS'ringtones'
p2677
asI1149
(lp2678
Vjack
p2679
asI1150
(lp2680
sI1151
(lp2681
sI1152
(lp2682
S'stuff'
p2683
aVphone
p2684
asI1153
(lp2685
sI1154
(lp2686
sI1155
(lp2687
Vbruvah
p2688
asI1156
(lp2689
Vphones
p2690
aS'date'
p2691
asI1157
(lp2692
sI1158
(lp2693
Vjobs
p2694
aVcomputer
p2695
asI1159
(lp2696
Vquality
p2697
aS'durability'
p2698
asI1160
(lp2699
Vfunction
p2700
asI1161
(lp2701
sI1162
(lp2702
sI1163
(lp2703
sI1164
(lp2704
S'phone'
p2705
asI1165
(lp2706
sI1166
(lp2707
S'nokia'
p2708
asI1167
(lp2709
Vsurvey
p2710
aS'handsets'
p2711
aS'recommendations'
p2712
asI1168
(lp2713
sI1169
(lp2714
sI1170
(lp2715
sI1171
(lp2716
S'phone'
p2717
asI1172
(lp2718
S'menu'
p2719
asI1173
(lp2720
S'option'
p2721
asI1174
(lp2722
Vtalks
p2723
aS'bed'
p2724
aS'phone'
p2725
asI1175
(lp2726
Vtunes
p2727
aVwallpapers
p2728
asI1176
(lp2729
sI1177
(lp2730
Vcompetitors
p2731
asI1178
(lp2732
sI1179
(lp2733
Vreviewers
p2734
aS'mobiles'
p2735
asI1180
(lp2736
sI1181
(lp2737
sI1182
(lp2738
Vsize
p2739
asI1183
(lp2740
sI1184
(lp2741
S'keys'
p2742
asI1185
(lp2743
sI1186
(lp2744
Vfeatures
p2745
aS'lots'
p2746
asI1187
(lp2747
S'keys'
p2748
asI1188
(lp2749
Vphone
p2750
aS'nokia'
p2751
aS'model'
p2752
asI1189
(lp2753
S'life'
p2754
asI1190
(lp2755
sI1191
(lp2756
sI1192
(lp2757
Vdesign
p2758
aS'flaw'
p2759
asI1193
(lp2760
sI1194
(lp2761
sI1195
(lp2762
S'software'
p2763
aS'nokia'
p2764
asI1196
(lp2765
Vfan
p2766
aVyear
p2767
asI1197
(lp2768
sI1198
(lp2769
Vphones
p2770
aS'parents'
p2771
asI1199
(lp2772
Vquality
p2773
asI1200
(lp2774
Vquality
p2775
aS'thing'
p2776
asI1201
(lp2777
Vquality
p2778
aS'sound'
p2779
aS'nokias'
p2780
asI1202
(lp2781
Vquality
p2782
aVphone
p2783
aS'series'
p2784
aS't720'
p2785
aS'motorolla'
p2786
aS't610'
p2787
asI1203
(lp2788
Vfunction
p2789
aVphone
p2790
asI1204
(lp2791
Vdesign
p2792
asI1205
(lp2793
sI1206
(lp2794
Vmotorolla
p2795
aS'phones'
p2796
asI1207
(lp2797
sI1208
(lp2798
S'imo'
p2799
aVphones
p2800
aS'phone'
p2801
aS'keys'
p2802
aS'screens'
p2803
asI1209
(lp2804
sI1210
(lp2805
Vmenu
p2806
asI1211
(lp2807
Vfunctions
p2808
aVbuttons
p2809
asI1212
(lp2810
Vfeature
p2811
asI1213
(lp2812
sI1214
(lp2813
S'phone'
p2814
aS'whistles'
p2815
aS'bells'
p2816
asI1215
(lp2817
sI1216
(lp2818
S'samsung'
p2819
aS'sony'
p2820
aVtalk
p2821
aS'nokia'
p2822
aS'phones'
p2823
asI1217
(lp2824
Vbattery
p2825
aVlife
p2826
aS'phone'
p2827
asI1218
(lp2828
sI1219
(lp2829
S't610'
p2830
asI1220
(lp2831
Vcamera
p2832
asI1221
(lp2833
sI1222
(lp2834
S't610'
p2835
aS'music'
p2836
asI1223
(lp2837
sI1224
(lp2838
Vapplication
p2839
aS'stock'
p2840
asI1225
(lp2841
Vdisplay
p2842
asI1226
(lp2843
S'screens'
p2844
aS'phones'
p2845
aVtones
p2846
asI1227
(lp2847
Vphones
p2848
aS'tones'
p2849
aS'music'
p2850
aS't610'
p2851
aVinstruments
p2852
asI1228
(lp2853
S'nokia'
p2854
aS'support'
p2855
aVport
p2856
asI1229
(lp2857
sI1230
(lp2858
sI1231
(lp2859
Vphone
p2860
asI1232
(lp2861
Vsamsung
p2862
aS'phones'
p2863
aS'features'
p2864
asI1233
(lp2865
S'phones'
p2866
asI1234
(lp2867
Vchance
p2868
aS'phone'
p2869
aS'year'
p2870
asI1235
(lp2871
sI1236
(lp2872
Vaccount
p2873
aVstick
p2874
aVcards
p2875
aVnations
p2876
asI1237
(lp2877
Vphone
p2878
asI1238
(lp2879
sI1239
(lp2880
sI1240
(lp2881
sI1241
(lp2882
Vreception
p2883
aVcustomization
p2884
aS'applications'
p2885
asI1242
(lp2886
Vsuite
p2887
aS'cable'
p2888
aVirda
p2889
aS'bluetooth'
p2890
asI1243
(lp2891
S'jme'
p2892
aS'graphics'
p2893
aVringtones
p2894
aS'games'
p2895
aS'apps'
p2896
asI1244
(lp2897
Vquality
p2898
aS'thing'
p2899
aS'dont'
p2900
aS'complaints'
p2901
asI1245
(lp2902
Vphone
p2903
asI1246
(lp2904
S'graphics'
p2905
aS'ringtones'
p2906
aVgames
p2907
asI1247
(lp2908
Vphone
p2909
asI1248
(lp2910
sI1249
(lp2911
Vstation
p2912
aS'night'
p2913
aS'handset'
p2914
aS'weight'
p2915
asI1250
(lp2916
S'speaker'
p2917
asI1251
(lp2918
sI1252
(lp2919
Voperators
p2920
asI1253
(lp2921
sI1254
(lp2922
sI1255
(lp2923
sI1256
(lp2924
Vphone
p2925
aVfeatures
p2926
asI1257
(lp2927
Vgsm
p2928
aS'band'
p2929
asI1258
(lp2930
Vphone
p2931
asI1259
(lp2932
Vphone
p2933
asI1260
(lp2934
Vphone
p2935
aVfeatures
p2936
aVergonomics
p2937
aS'screen'
p2938
asI1261
(lp2939
S'didnt'
p2940
asI1262
(lp2941
Vseller
p2942
asI1263
(lp2943
Vone
p2944
aS'downside'
p2945
asI1264
(lp2946
sI1265
(lp2947
sI1266
(lp2948
sI1267
(lp2949
Vrealation
p2950
aVplaces
p2951
aS'others'
p2952
asI1268
(lp2953
Vplaces
p2954
asI1269
(lp2955
sI1270
(lp2956
sI1271
(lp2957
sI1272
(lp2958
Vphones
p2959
asI1273
(lp2960
sI1274
(lp2961
sI1275
(lp2962
sI1276
(lp2963
sI1277
(lp2964
sI1278
(lp2965
Vringtones
p2966
asI1279
(lp2967
S'phone'
p2968
aS'needs'
p2969
asI1280
(lp2970
sI1281
(lp2971
sI1282
(lp2972
Vquality
p2973
aVoptions
p2974
aVphone
p2975
aS'grade'
p2976
asI1283
(lp2977
Vsound
p2978
asI1284
(lp2979
Vx105
p2980
aS'today'
p2981
asI1285
(lp2982
sI1286
(lp2983
Vsister
p2984
aS'features'
p2985
asI1287
(lp2986
Vphone
p2987
aVfeatures
p2988
asI1288
(lp2989
sI1289
(lp2990
Voz
p2991
aVlife
p2992
aVpolymer
p2993
asI1290
(lp2994
sI1291
(lp2995
Vspeakerphone
p2996
asI1292
(lp2997
S'feature'
p2998
asI1293
(lp2999
Vheadset
p3000
asI1294
(lp3001
sI1295
(lp3002
sI1296
(lp3003
S'feature'
p3004
aS'pc'
p3005
aS'suite'
p3006
aS'port'
p3007
aVcable
p3008
asI1297
(lp3009
Vhazzles
p3010
asI1298
(lp3011
Vcalendar
p3012
aS'list'
p3013
aVphonebook
p3014
asI1299
(lp3015
S'clock'
p3016
aS'wallpapers'
p3017
aS'java'
p3018
aVtones
p3019
aS'stuff'
p3020
aS'applications'
p3021
asI1300
(lp3022
Vtext
p3023
aVnicities
p3024
asI1301
(lp3025
S'technology'
p3026
asI1302
(lp3027
sI1303
(lp3028
Vcamera
p3029
aVphone
p3030
asI1304
(lp3031
sI1305
(lp3032
sI1306
(lp3033
sI1307
(lp3034
sI1308
(lp3035
Valternative
p3036
asI1309
(lp3037
sI1310
(lp3038
sI1311
(lp3039
Vsize
p3040
aS'features'
p3041
aS'user'
p3042
asI1312
(lp3043
Vcamera
p3044
aS"'t"
p3045
asI1313
(lp3046
Vstyle
p3047
aVappearance
p3048
aVguy
p3049
asI1314
(lp3050
sI1315
(lp3051
Vradio
p3052
aVheadset
p3053
asI1316
(lp3054
sI1317
(lp3055
S'dialing'
p3056
asI1318
(lp3057
Vsize
p3058
aS'keypad'
p3059
asI1319
(lp3060
S'life'
p3061
asI1320
(lp3062
sI1321
(lp3063
Vphone
p3064
aVforce
p3065
asI1322
(lp3066
Vissue
p3067
aVheadphones
p3068
asI1323
(lp3069
Vphone
p3070
asI1324
(lp3071
sI1325
(lp3072
sI1326
(lp3073
sI1327
(lp3074
sI1328
(lp3075
S'screen'
p3076
asI1329
(lp3077
sI1330
(lp3078
sI1331
(lp3079
Vmoney
p3080
aS'retention'
p3081
aS'customer'
p3082
aS'renewal'
p3083
aVprogram
p3084
asI1332
(lp3085
Vphone
p3086
asI1333
(lp3087
sI1334
(lp3088
Vway
p3089
aS'motorola'
p3090
aS'anything'
p3091
asI1335
(lp3092
Vlife
p3093
aVsignal
p3094
aS'radio'
p3095
aS'apps'
p3096
aVspeakerphone
p3097
aVfunction
p3098
asI1336
(lp3099
S'edge'
p3100
aVbluetooth
p3101
asI1337
(lp3102
sI1338
(lp3103
sI1339
(lp3104
S'phone'
p3105
aS'quad'
p3106
aS'band'
p3107
aS'bluetooth'
p3108
aS'edge'
p3109
aS'motorola'
p3110
aS'shipping'
p3111
asI1340
(lp3112
Vphone
p3113
asI1341
(lp3114
Vfeatures
p3115
asI1342
(lp3116
sI1343
(lp3117
Vsize
p3118
aVplan
p3119
aS'option'
p3120
aS'access'
p3121
aVemail
p3122
asI1344
(lp3123
S'email'
p3124
asI1345
(lp3125
Vnetwork
p3126
aVemail
p3127
asI1346
(lp3128
Vzones
p3129
aVinternet
p3130
asI1347
(lp3131
sI1348
(lp3132
sI1349
(lp3133
S'friend'
p3134
asI1350
(lp3135
Vphone
p3136
asI1351
(lp3137
Vphone
p3138
asI1352
(lp3139
S'functionality'
p3140
aS'phone'
p3141
asI1353
(lp3142
Vthing
p3143
asI1354
(lp3144
Vphone
p3145
asI1355
(lp3146
S'service'
p3147
asI1356
(lp3148
Vcombination
p3149
asI1357
(lp3150
sI1358
(lp3151
Vphone
p3152
aVnetwork
p3153
asI1359
(lp3154
sI1360
(lp3155
S'nokia'
p3156
asI1361
(lp3157
Vphone
p3158
aVcommunications
p3159
aS'internet'
p3160
aVtreo
p3161
aS'something'
p3162
aS'deficiencies'
p3163
asI1362
(lp3164
Vitem
p3165
asI1363
(lp3166
sI1364
(lp3167
S'charm'
p3168
asI1365
(lp3169
sI1366
(lp3170
Vbet
p3171
aVphones
p3172
asI1367
(lp3173
sI1368
(lp3174
sI1369
(lp3175
Vphone
p3176
asI1370
(lp3177
sI1371
(lp3178
S'speakerphone'
p3179
asI1372
(lp3180
S'speakerphone'
p3181
asI1373
(lp3182
Vquality
p3183
aVtalkers
p3184
aVend
p3185
asI1374
(lp3186
Vearpiece
p3187
asI1375
(lp3188
sI1376
(lp3189
S'nokia'
p3190
asI1377
(lp3191
sI1378
(lp3192
Vquality
p3193
aS'feature'
p3194
asI1379
(lp3195
Vothers
p3196
asI1380
(lp3197
sI1381
(lp3198
Vdesign
p3199
aS'hip'
p3200
asI1382
(lp3201
S'lot'
p3202
aVfeel
p3203
aS'phone'
p3204
aS'toy'
p3205
asI1383
(lp3206
S'dissapears'
p3207
asI1384
(lp3208
S'attachement'
p3209
aS'phones'
p3210
asI1385
(lp3211
S'battery'
p3212
asI1386
(lp3213
S'tmobile'
p3214
asI1387
(lp3215
Vplan
p3216
aVsize
p3217
aS'difference'
p3218
asI1388
(lp3219
Vminutes
p3220
aVpics
p3221
aS'ringtones'
p3222
asI1389
(lp3223
Vreception
p3224
aVplans
p3225
aS'tmobiles'
p3226
aVnokia
p3227
aS'minutes'
p3228
aVphones
p3229
asI1390
(lp3230
S'phone'
p3231
asI1391
(lp3232
Vqualities
p3233
asI1392
(lp3234
sI1393
(lp3235
Vfeatures
p3236
asI1394
(lp3237
S'phone'
p3238
asI1395
(lp3239
S'month'
p3240
aVaccess
p3241
asI1396
(lp3242
sI1397
(lp3243
Vweb
p3244
aVtruck
p3245
aS'hook'
p3246
aVfax
p3247
asI1398
(lp3248
Vproblem
p3249
aS'software'
p3250
asI1399
(lp3251
Vamount
p3252
aS'car'
p3253
aS'people'
p3254
asI1400
(lp3255
sI1401
(lp3256
sI1402
(lp3257
Vphone
p3258
asI1403
(lp3259
sI1404
(lp3260
sI1405
(lp3261
sI1406
(lp3262
sI1407
(lp3263
sI1408
(lp3264
Vgripe
p3265
asI1409
(lp3266
S'voice'
p3267
aS'phone'
p3268
asI1410
(lp3269
S'phone'
p3270
asI1411
(lp3271
S'series'
p3272
aS'sister'
p3273
aVradio
p3274
aS'headset'
p3275
asI1412
(lp3276
sI1413
(lp3277
sI1414
(lp3278
Vgames
p3279
aVnokia
p3280
asI1415
(lp3281
sI1416
(lp3282
Vthing
p3283
asI1417
(lp3284
Vscreen
p3285
aVsound
p3286
asI1418
(lp3287
S'phone'
p3288
aS'cell'
p3289
asI1419
(lp3290
sI1420
(lp3291
Vreception
p3292
aVcoverage
p3293
aS'quality'
p3294
asI1421
(lp3295
S'screen'
p3296
aS'rebates'
p3297
aS'commands'
p3298
aS'phone'
p3299
asI1422
(lp3300
Vgripe
p3301
asI1423
(lp3302
sI1424
(lp3303
Varrangement
p3304
aVshapes
p3305
aS'model'
p3306
asI1425
(lp3307
Vyears
p3308
aVimports
p3309
aS'nokia'
p3310
aS'quality'
p3311
asI1426
(lp3312
Vphone
p3313
asI1427
(lp3314
sI1428
(lp3315
S'network'
p3316
aS'coverage'
p3317
aVexperience
p3318
asI1429
(lp3319
sI1430
(lp3320
Vphone
p3321
asI1431
(lp3322
sI1432
(lp3323
sI1433
(lp3324
S'ear'
p3325
aVpiece
p3326
asI1434
(lp3327
S'button'
p3328
aS'piece'
p3329
asI1435
(lp3330
Vphone
p3331
aVfeatures
p3332
aS'shortcoming'
p3333
asI1436
(lp3334
sI1437
(lp3335
S'resolution'
p3336
asI1438
(lp3337
S'schemes'
p3338
aS'phone'
p3339
asI1439
(lp3340
sI1440
(lp3341
sI1441
(lp3342
sI1442
(lp3343
Vseries
p3344
asI1443
(lp3345
Vtime
p3346
asI1444
(lp3347
Vrings
p3348
aVpeople
p3349
aS'graphics'
p3350
asI1445
(lp3351
Vhome
p3352
aS'work'
p3353
aVphonebook
p3354
aVnumber
p3355
aS'entries'
p3356
asI1446
(lp3357
S'gallery'
p3358
aS'phone'
p3359
aS'camera'
p3360
aS'option'
p3361
aVgames
p3362
aS'applications'
p3363
aS'gprs'
p3364
aS'connection'
p3365
aS'calendar'
p3366
aS'internet'
p3367
asI1447
(lp3368
Vapplications
p3369
aVmessages
p3370
aVaol
p3371
aVsoftware
p3372
asI1448
(lp3373
Vweather
p3374
aS'movies'
p3375
aS'horoscopes'
p3376
asI1449
(lp3377
Vdefault
p3378
aS'deafults'
p3379
asI1450
(lp3380
S'system'
p3381
asI1451
(lp3382
S'phone'
p3383
aS'website'
p3384
asI1452
(lp3385
sI1453
(lp3386
sI1454
(lp3387
Vthings
p3388
asI1455
(lp3389
sI1456
(lp3390
sI1457
(lp3391
Vtime
p3392
asI1458
(lp3393
S'questions'
p3394
aS'problems'
p3395
asI1459
(lp3396
Vcarrier
p3397
asI1460
(lp3398
S'plans'
p3399
asI1461
(lp3400
Vplans
p3401
aS'needs'
p3402
aS'people'
p3403
asI1462
(lp3404
S'stars'
p3405
aS'phone'
p3406
asI1463
(lp3407
S'phone'
p3408
asI1464
(lp3409
Vphone
p3410
aS'nokia'
p3411
asI1465
(lp3412
Vfeatures
p3413
aS'menus'
p3414
asI1466
(lp3415
Vdisappointment
p3416
aVlack
p3417
aVmenus
p3418
aS'functions'
p3419
aS'nokia'
p3420
aS'phones'
p3421
asI1467
(lp3422
sI1468
(lp3423
sI1469
(lp3424
S'functions'
p3425
aS'services'
p3426
aVnetwork
p3427
asI1470
(lp3428
Vbrowser
p3429
aS'internet'
p3430
aVcard
p3431
asI1471
(lp3432
sI1472
(lp3433
sI1473
(lp3434
sI1474
(lp3435
Varray
p3436
asI1475
(lp3437
sI1476
(lp3438
sI1477
(lp3439
Vresolution
p3440
aS'screen'
p3441
asI1478
(lp3442
Vstrength
p3443
aS'signal'
p3444
asI1479
(lp3445
Vquality
p3446
aVproblem
p3447
asI1480
(lp3448
S'phones'
p3449
asI1481
(lp3450
S'voice'
p3451
asI1482
(lp3452
sI1483
(lp3453
sI1484
(lp3454
S'hiss'
p3455
aS'phone'
p3456
aS'anything'
p3457
aS'people'
p3458
asI1485
(lp3459
sI1486
(lp3460
Vphones
p3461
aS'nokia'
p3462
asI1487
(lp3463
sI1488
(lp3464
Vwebsites
p3465
aVgames
p3466
aS'ringtones'
p3467
asI1489
(lp3468
sI1490
(lp3469
S'stars'
p3470
aS'xtra'
p3471
asI1491
(lp3472
sI1492
(lp3473
Vsize
p3474
aS'player'
p3475
aS'weight'
p3476
aVsystem
p3477
asI1493
(lp3478
Vscreen
p3479
asI1494
(lp3480
S'capacity'
p3481
aS'xtra'
p3482
asI1495
(lp3483
Vditties
p3484
asI1496
(lp3485
sI1497
(lp3486
Vmodel
p3487
aS'worth'
p3488
aVcapacity
p3489
asI1498
(lp3490
S'hell'
p3491
asI1499
(lp3492
sI1500
(lp3493
sI1501
(lp3494
S'jukebox'
p3495
aS'player'
p3496
aVipod
p3497
asI1502
(lp3498
Vdeal
p3499
asI1503
(lp3500
sI1504
(lp3501
sI1505
(lp3502
sI1506
(lp3503
sI1507
(lp3504
Vartist
p3505
aS'title'
p3506
aS'album'
p3507
aS'genre'
p3508
asI1508
(lp3509
S'software'
p3510
asI1509
(lp3511
sI1510
(lp3512
sI1511
(lp3513
sI1512
(lp3514
sI1513
(lp3515
Vplayers
p3516
asI1514
(lp3517
sI1515
(lp3518
Vpod
p3519
asI1516
(lp3520
S'purchase'
p3521
aS'week'
p3522
aS'bit'
p3523
asI1517
(lp3524
S'player'
p3525
aS'doubts'
p3526
aS"'t"
p3527
asI1518
(lp3528
sI1519
(lp3529
sI1520
(lp3530
Vscreen
p3531
aS'blue'
p3532
asI1521
(lp3533
sI1522
(lp3534
sI1523
(lp3535
Vheadphones
p3536
asI1524
(lp3537
sI1525
(lp3538
S'mooooooh'
p3539
aS'pod'
p3540
asI1526
(lp3541
sI1527
(lp3542
sI1528
(lp3543
S'xtra'
p3544
aVheadphone
p3545
aS'mp3s'
p3546
asI1529
(lp3547
S'instructions'
p3548
aS'operation'
p3549
asI1530
(lp3550
sI1531
(lp3551
sI1532
(lp3552
sI1533
(lp3553
S'software'
p3554
asI1534
(lp3555
sI1535
(lp3556
S'butt'
p3557
aS'thing'
p3558
asI1536
(lp3559
sI1537
(lp3560
sI1538
(lp3561
Vresellers
p3562
aS'customers'
p3563
aS'employees'
p3564
aS'practices'
p3565
aVapple
p3566
asI1539
(lp3567
sI1540
(lp3568
Vlife
p3569
aS'requirements'
p3570
aVprice
p3571
asI1541
(lp3572
S'hours'
p3573
aS'thing'
p3574
asI1542
(lp3575
S'nx'
p3576
asI1543
(lp3577
Vpair
p3578
asI1544
(lp3579
Vset
p3580
aS'quality'
p3581
aS'thing'
p3582
asI1545
(lp3583
sI1546
(lp3584
Vimprovement
p3585
aS'wheel'
p3586
asI1547
(lp3587
Vbit
p3588
asI1548
(lp3589
S'screen'
p3590
aVblue
p3591
asI1549
(lp3592
Vcomplaint
p3593
aS'cards'
p3594
asI1550
(lp3595
sI1551
(lp3596
S'unit'
p3597
aVdevices
p3598
aVpouch
p3599
asI1552
(lp3600
Vplusses
p3601
aVconstruction
p3602
aVbattery
p3603
asI1553
(lp3604
sI1554
(lp3605
Vsomething
p3606
asI1555
(lp3607
sI1556
(lp3608
Vipod
p3609
asI1557
(lp3610
S'batteries'
p3611
asI1558
(lp3612
Vplayer
p3613
asI1559
(lp3614
sI1560
(lp3615
Vmodels
p3616
asI1561
(lp3617
Vplayer
p3618
aS'labs'
p3619
aS'features'
p3620
aS'pod'
p3621
asI1562
(lp3622
Vplayer
p3623
asI1563
(lp3624
sI1564
(lp3625
Vlight
p3626
asI1565
(lp3627
Vplayer
p3628
asI1566
(lp3629
Vheadphones
p3630
aS'set'
p3631
asI1567
(lp3632
sI1568
(lp3633
Vprogram
p3634
asI1569
(lp3635
sI1570
(lp3636
sI1571
(lp3637
Vcomplaint
p3638
asI1572
(lp3639
Vcontrols
p3640
asI1573
(lp3641
Vplaylist
p3642
aS'options'
p3643
asI1574
(lp3644
Vdownside
p3645
asI1575
(lp3646
sI1576
(lp3647
sI1577
(lp3648
S'lot'
p3649
asI1578
(lp3650
sI1579
(lp3651
Vquality
p3652
asI1580
(lp3653
Vmusic
p3654
aS'storage'
p3655
asI1581
(lp3656
sI1582
(lp3657
S'jukebox'
p3658
aVproblem
p3659
asI1583
(lp3660
Vxp
p3661
aS'usb'
p3662
asI1584
(lp3663
S'interface'
p3664
aVdrivers
p3665
aS'software'
p3666
asI1585
(lp3667
Vanything
p3668
aS'use'
p3669
asI1586
(lp3670
S'explorer'
p3671
asI1587
(lp3672
sI1588
(lp3673
sI1589
(lp3674
S'plate'
p3675
aS'minutes'
p3676
asI1590
(lp3677
S'player'
p3678
asI1591
(lp3679
S'button'
p3680
asI1592
(lp3681
sI1593
(lp3682
S'problems'
p3683
aS'bar'
p3684
aS'scroll'
p3685
asI1594
(lp3686
Vside
p3687
aS'sound'
p3688
aS'everything'
p3689
asI1595
(lp3690
Vlabs
p3691
asI1596
(lp3692
Vproduct
p3693
asI1597
(lp3694
sI1598
(lp3695
sI1599
(lp3696
Vsound
p3697
aVproduct
p3698
asI1600
(lp3699
S'gb'
p3700
aVipod
p3701
aS'xtra'
p3702
aS'zen'
p3703
asI1601
(lp3704
sI1602
(lp3705
Vaccessories
p3706
aS'ipod'
p3707
asI1603
(lp3708
Vinvestment
p3709
aVcds
p3710
asI1604
(lp3711
Vspace
p3712
asI1605
(lp3713
S'work'
p3714
asI1606
(lp3715
sI1607
(lp3716
sI1608
(lp3717
Vfactor
p3718
aS'battery'
p3719
asI1609
(lp3720
Vbatteries
p3721
asI1610
(lp3722
Vdiscount
p3723
asI1611
(lp3724
Vappliance
p3725
asI1612
(lp3726
S'deficiencies'
p3727
asI1613
(lp3728
Vtransfer
p3729
aS'drop'
p3730
aVsoftware
p3731
asI1614
(lp3732
S'xtra'
p3733
aS'zennx'
p3734
asI1615
(lp3735
S'price'
p3736
aS'capacity'
p3737
asI1616
(lp3738
Vbattery
p3739
asI1617
(lp3740
S'zennx'
p3741
aS'share'
p3742
aVprices
p3743
aVapple
p3744
asI1618
(lp3745
S'battery'
p3746
asI1619
(lp3747
Vbatteries
p3748
asI1620
(lp3749
sI1621
(lp3750
Vnomad
p3751
asI1622
(lp3752
sI1623
(lp3753
Vcool
p3754
asI1624
(lp3755
S'ipod'
p3756
asI1625
(lp3757
sI1626
(lp3758
Vaccessory
p3759
aVheadphones
p3760
asI1627
(lp3761
Vplayer
p3762
aVpair
p3763
aVquality
p3764
asI1628
(lp3765
Vplayer
p3766
aS'ipod'
p3767
asI1629
(lp3768
Vplayer
p3769
asI1630
(lp3770
sI1631
(lp3771
sI1632
(lp3772
S'jukebox'
p3773
asI1633
(lp3774
Vitem
p3775
aS'player'
p3776
aS'mp3'
p3777
asI1634
(lp3778
S'gb'
p3779
aVgift
p3780
asI1635
(lp3781
sI1636
(lp3782
Vbuy
p3783
aValternative
p3784
asI1637
(lp3785
S'mp3'
p3786
asI1638
(lp3787
sI1639
(lp3788
sI1640
(lp3789
sI1641
(lp3790
sI1642
(lp3791
sI1643
(lp3792
Vsmooth
p3793
asI1644
(lp3794
sI1645
(lp3795
S'case'
p3796
asI1646
(lp3797
sI1647
(lp3798
Vquality
p3799
aS'earbuds'
p3800
asI1648
(lp3801
Voptions
p3802
asI1649
(lp3803
sI1650
(lp3804
Vplayer
p3805
asI1651
(lp3806
sI1652
(lp3807
S'saver'
p3808
aS'screen'
p3809
asI1653
(lp3810
sI1654
(lp3811
sI1655
(lp3812
Vjob
p3813
asI1656
(lp3814
S'gigs'
p3815
aVbaby
p3816
asI1657
(lp3817
sI1658
(lp3818
Vtransfer
p3819
aS'computer'
p3820
asI1659
(lp3821
Vdevice
p3822
asI1660
(lp3823
sI1661
(lp3824
Vplayer
p3825
asI1662
(lp3826
Vchoice
p3827
aVarchos
p3828
aS'ipod'
p3829
asI1663
(lp3830
S'program'
p3831
asI1664
(lp3832
S'problems'
p3833
aS'cd'
p3834
asI1665
(lp3835
Vdownload
p3836
asI1666
(lp3837
S'manual'
p3838
asI1667
(lp3839
sI1668
(lp3840
sI1669
(lp3841
sI1670
(lp3842
Vmusic
p3843
aS'audio'
p3844
asI1671
(lp3845
S'demands'
p3846
asI1672
(lp3847
Vgripe
p3848
asI1673
(lp3849
Vpair
p3850
asI1674
(lp3851
sI1675
(lp3852
sI1676
(lp3853
sI1677
(lp3854
S'screen'
p3855
asI1678
(lp3856
sI1679
(lp3857
sI1680
(lp3858
Vbuy
p3859
asI1681
(lp3860
Vbang
p3861
asI1682
(lp3862
Vline
p3863
asI1683
(lp3864
Vhardware
p3865
asI1684
(lp3866
Vdrive
p3867
asI1685
(lp3868
Vline
p3869
aVdrive
p3870
aVjukebox
p3871
aS'gig'
p3872
aVones
p3873
aVjukeboxes
p3874
asI1686
(lp3875
Vdrive
p3876
aS'ipod'
p3877
asI1687
(lp3878
sI1688
(lp3879
sI1689
(lp3880
sI1690
(lp3881
Vdifference
p3882
asI1691
(lp3883
sI1692
(lp3884
sI1693
(lp3885
Vplayer
p3886
asI1694
(lp3887
Vclass
p3888
asI1695
(lp3889
Vkarma
p3890
aS'usb'
p3891
aS'archos'
p3892
aS'jukebox'
p3893
aS'gig'
p3894
aVfavorite
p3895
asI1696
(lp3896
Vplayer
p3897
aVthing
p3898
asI1697
(lp3899
Vplayer
p3900
asI1698
(lp3901
sI1699
(lp3902
sI1700
(lp3903
sI1701
(lp3904
sI1702
(lp3905
Videa
p3906
aS'wheel'
p3907
aS'scroll'
p3908
asI1703
(lp3909
sI1704
(lp3910
sI1705
(lp3911
sI1706
(lp3912
sI1707
(lp3913
sI1708
(lp3914
sI1709
(lp3915
Vpiece
p3916
asI1710
(lp3917
Vscratches
p3918
aS'cases'
p3919
asI1711
(lp3920
Vquality
p3921
aVadjustments
p3922
aVfeatures
p3923
aS'zen'
p3924
asI1712
(lp3925
sI1713
(lp3926
sI1714
(lp3927
Vprogram
p3928
aS'itunes'
p3929
asI1715
(lp3930
sI1716
(lp3931
sI1717
(lp3932
sI1718
(lp3933
Vlabs
p3934
asI1719
(lp3935
Vaccount
p3936
asI1720
(lp3937
sI1721
(lp3938
S'minutes'
p3939
asI1722
(lp3940
sI1723
(lp3941
sI1724
(lp3942
sI1725
(lp3943
Vway
p3944
asI1726
(lp3945
sI1727
(lp3946
sI1728
(lp3947
Vinterface
p3948
asI1729
(lp3949
Vplaylist
p3950
aS'option'
p3951
asI1730
(lp3952
Vlist
p3953
asI1731
(lp3954
Vdeal
p3955
aS'titles'
p3956
aS'files'
p3957
asI1732
(lp3958
Vsongs
p3959
aVnames
p3960
asI1733
(lp3961
S'names'
p3962
aS'songs'
p3963
aVlanguage
p3964
aS'menu'
p3965
asI1734
(lp3966
S'number'
p3967
aS's'
asI1735
(lp3968
Vplayers
p3969
asI1736
(lp3970
sI1737
(lp3971
S'transfer'
p3972
asI1738
(lp3973
S'song'
p3974
asI1739
(lp3975
sI1740
(lp3976
Vsongs
p3977
aS'errors'
p3978
asI1741
(lp3979
Vreview
p3980
asI1742
(lp3981
sI1743
(lp3982
Vdrivers
p3983
asI1744
(lp3984
sI1745
(lp3985
sI1746
(lp3986
sI1747
(lp3987
Vcorners
p3988
asI1748
(lp3989
sI1749
(lp3990
sI1750
(lp3991
sI1751
(lp3992
sI1752
(lp3993
sI1753
(lp3994
S'problems'
p3995
aS'people'
p3996
aVinterface
p3997
aS'software'
p3998
asI1754
(lp3999
sI1755
(lp4000
S'error'
p4001
aS'user'
p4002
asI1756
(lp4003
sI1757
(lp4004
Vdeal
p4005
aVprotection
p4006
asI1758
(lp4007
sI1759
(lp4008
Vquality
p4009
aS'unit'
p4010
aS'advantage'
p4011
aS'battery'
p4012
asI1760
(lp4013
Voptions
p4014
aVpresets
p4015
aS'course'
p4016
asI1761
(lp4017
S'mix'
p4018
aS'tunes'
p4019
asI1762
(lp4020
Vthing
p4021
asI1763
(lp4022
Vpressure
p4023
aVbutton
p4024
asI1764
(lp4025
Vissue
p4026
asI1765
(lp4027
Vbuttons
p4028
asI1766
(lp4029
sI1767
(lp4030
Vsupport
p4031
asI1768
(lp4032
sI1769
(lp4033
sI1770
(lp4034
sI1771
(lp4035
sI1772
(lp4036
sI1773
(lp4037
sI1774
(lp4038
Vheadphones
p4039
asI1775
(lp4040
S'tunes'
p4041
asI1776
(lp4042
Vproduct
p4043
aVprice
p4044
asI1777
(lp4045
S'mine'
p4046
asI1778
(lp4047
Vshipping
p4048
asI1779
(lp4049
sI1780
(lp4050
sI1781
(lp4051
Vplayers
p4052
aS'thing'
p4053
asI1782
(lp4054
S'folders'
p4055
aS'album'
p4056
aS'directory'
p4057
asI1783
(lp4058
sI1784
(lp4059
Vquality
p4060
aS'bummer'
p4061
asI1785
(lp4062
S'zen'
p4063
asI1786
(lp4064
S'brother'
p4065
aS'dad'
p4066
aVsummer
p4067
aVzen
p4068
aS'ipod'
p4069
asI1787
(lp4070
sI1788
(lp4071
Vpiece
p4072
aS'ipod'
p4073
asI1789
(lp4074
sI1790
(lp4075
Vsetup
p4076
aS'process'
p4077
asI1791
(lp4078
sI1792
(lp4079
Vwork
p4080
aVproblem
p4081
asI1793
(lp4082
S'times'
p4083
aS'program'
p4084
aS'genres'
p4085
aVtitles
p4086
asI1794
(lp4087
sI1795
(lp4088
Vthing
p4089
asI1796
(lp4090
Vprocess
p4091
asI1797
(lp4092
Vprocess
p4093
aS'something'
p4094
aS'errors'
p4095
asI1798
(lp4096
Vproblems
p4097
aS'music'
p4098
asI1799
(lp4099
sI1800
(lp4100
sI1801
(lp4101
S'holiday'
p4102
aS'plane'
p4103
asI1802
(lp4104
Vdial
p4105
asI1803
(lp4106
Vzen
p4107
asI1804
(lp4108
Vplayer
p4109
asI1805
(lp4110
Vbuy
p4111
asI1806
(lp4112
sI1807
(lp4113
S'jukebox'
p4114
aS'zen'
p4115
asI1808
(lp4116
S'windows'
p4117
aVsoftware
p4118
asI1809
(lp4119
Vsite
p4120
asI1810
(lp4121
S'software'
p4122
asI1811
(lp4123
sI1812
(lp4124
sI1813
(lp4125
sI1814
(lp4126
Vplaylist
p4127
aS'music'
p4128
aS'button'
p4129
aS'library'
p4130
asI1815
(lp4131
Vproduct
p4132
asI1816
(lp4133
Vheadphones
p4134
aS'earbuds'
p4135
asI1817
(lp4136
sI1818
(lp4137
Vquality
p4138
aVjazz
p4139
aS'music'
p4140
asI1819
(lp4141
sI1820
(lp4142
S's'
aS'song'
p4143
asI1821
(lp4144
S'songs'
p4145
aS'jukebox'
p4146
aVcd
p4147
asI1822
(lp4148
Vscreen
p4149
asI1823
(lp4150
S'hardware'
p4151
aS'product'
p4152
aS'software'
p4153
aS'quality'
p4154
aS'value'
p4155
asI1824
(lp4156
sI1825
(lp4157
Vunit
p4158
aVipod
p4159
aS'issue'
p4160
asI1826
(lp4161
Vquality
p4162
aS'jukeboxes'
p4163
asI1827
(lp4164
sI1828
(lp4165
S'transmitter'
p4166
asI1829
(lp4167
sI1830
(lp4168
S'controls'
p4169
aVones
p4170
asI1831
(lp4171
sI1832
(lp4172
Vbuttons
p4173
asI1833
(lp4174
S'software'
p4175
asI1834
(lp4176
S'explorer'
p4177
aVchair
p4178
asI1835
(lp4179
sI1836
(lp4180
sI1837
(lp4181
S'value'
p4182
asI1838
(lp4183
Vsound
p4184
asI1839
(lp4185
Vscreen
p4186
asI1840
(lp4187
Vhours
p4188
asI1841
(lp4189
S'pc'
p4190
asI1842
(lp4191
sI1843
(lp4192
Vlibrary
p4193
asI1844
(lp4194
sI1845
(lp4195
S'matter'
p4196
aS'unit'
p4197
aS'song'
p4198
asI1846
(lp4199
S'unit'
p4200
aS'songs'
p4201
aS'playlist'
p4202
aVsong
p4203
asI1847
(lp4204
S'return'
p4205
aS'product'
p4206
asI1848
(lp4207
sI1849
(lp4208
Vnoises
p4209
aVdefects
p4210
aVsystem
p4211
asI1850
(lp4212
sI1851
(lp4213
sI1852
(lp4214
sI1853
(lp4215
sI1854
(lp4216
S'info'
p4217
asI1855
(lp4218
sI1856
(lp4219
sI1857
(lp4220
sI1858
(lp4221
sI1859
(lp4222
Vuse
p4223
asI1860
(lp4224
sI1861
(lp4225
S'cd'
p4226
asI1862
(lp4227
S'software'
p4228
asI1863
(lp4229
sI1864
(lp4230
sI1865
(lp4231
Vtitle
p4232
asI1866
(lp4233
sI1867
(lp4234
sI1868
(lp4235
Vplayers
p4236
asI1869
(lp4237
sI1870
(lp4238
S'cd'
p4239
asI1871
(lp4240
sI1872
(lp4241
sI1873
(lp4242
sI1874
(lp4243
sI1875
(lp4244
sI1876
(lp4245
sI1877
(lp4246
S'confidence'
p4247
aS'product'
p4248
asI1878
(lp4249
Vwarranty
p4250
aVdrive
p4251
asI1879
(lp4252
sI1880
(lp4253
sI1881
(lp4254
sI1882
(lp4255
sI1883
(lp4256
sI1884
(lp4257
sI1885
(lp4258
sI1886
(lp4259
Vselections
p4260
asI1887
(lp4261
sI1888
(lp4262
Vcases
p4263
asI1889
(lp4264
S'things'
p4265
asI1890
(lp4266
Vreason
p4267
aVtimes
p4268
aS'fact'
p4269
asI1891
(lp4270
sI1892
(lp4271
Vperiod
p4272
asI1893
(lp4273
sI1894
(lp4274
sI1895
(lp4275
sI1896
(lp4276
sI1897
(lp4277
Voccurrences
p4278
asI1898
(lp4279
Vfirmware
p4280
aS'os'
p4281
asI1899
(lp4282
Vsong
p4283
aS'cd'
p4284
aS'time'
p4285
asI1900
(lp4286
sI1901
(lp4287
Vplayers
p4288
asI1902
(lp4289
Vproblems
p4290
aVbrands
p4291
aVtechnology
p4292
asI1903
(lp4293
Vproducts
p4294
asI1904
(lp4295
Vproblem
p4296
aS'wheel'
p4297
aVunit
p4298
asI1905
(lp4299
Vwarranty
p4300
asI1906
(lp4301
S'problems'
p4302
aS'unit'
p4303
asI1907
(lp4304
Vproduct
p4305
aS'mp3'
p4306
aS'labs'
p4307
asI1908
(lp4308
Vthings
p4309
asI1909
(lp4310
Vbit
p4311
aS'size'
p4312
asI1910
(lp4313
sI1911
(lp4314
Vthings
p4315
aS'negatives'
p4316
asI1912
(lp4317
Vquality
p4318
asI1913
(lp4319
S'software'
p4320
asI1914
(lp4321
Vsystem
p4322
aS'software'
p4323
asI1915
(lp4324
Vchoice
p4325
asI1916
(lp4326
S'media'
p4327
aS'windows'
p4328
asI1917
(lp4329
Vexplorer
p4330
aVfilenames
p4331
asI1918
(lp4332
Vplayer
p4333
aS'thing'
p4334
asI1919
(lp4335
sI1920
(lp4336
sI1921
(lp4337
Vstars
p4338
asI1922
(lp4339
sI1923
(lp4340
sI1924
(lp4341
S'price'
p4342
asI1925
(lp4343
sI1926
(lp4344
Vbattery
p4345
asI1927
(lp4346
sI1928
(lp4347
sI1929
(lp4348
S'scroll'
p4349
aS'button'
p4350
asI1930
(lp4351
sI1931
(lp4352
sI1932
(lp4353
sI1933
(lp4354
sI1934
(lp4355
sI1935
(lp4356
sI1936
(lp4357
Vtransmitter
p4358
aS'fm'
p4359
aS'range'
p4360
asI1937
(lp4361
S'feature'
p4362
aS'player'
p4363
asI1938
(lp4364
sI1939
(lp4365
sI1940
(lp4366
sI1941
(lp4367
sI1942
(lp4368
Vdays
p4369
asI1943
(lp4370
S'lap'
p4371
asI1944
(lp4372
S'strikes'
p4373
asI1945
(lp4374
sI1946
(lp4375
sI1947
(lp4376
Vwarranty
p4377
asI1948
(lp4378
sI1949
(lp4379
S'unit'
p4380
asI1950
(lp4381
S'upgrade'
p4382
asI1951
(lp4383
Vchance
p4384
aVoperation
p4385
asI1952
(lp4386
sI1953
(lp4387
sI1954
(lp4388
V30gb
p4389
asI1955
(lp4390
S'songs'
p4391
asI1956
(lp4392
sI1957
(lp4393
sI1958
(lp4394
sI1959
(lp4395
Vquality
p4396
asI1960
(lp4397
sI1961
(lp4398
sI1962
(lp4399
Vend
p4400
asI1963
(lp4401
sI1964
(lp4402
sI1965
(lp4403
Vbattery
p4404
aVfactors
p4405
aS'hassle'
p4406
aS'fortune'
p4407
aS'apple'
p4408
asI1966
(lp4409
sI1967
(lp4410
S'mp3'
p4411
aS'itunes'
p4412
asI1968
(lp4413
Vformat
p4414
asI1969
(lp4415
S"'t"
p4416
asI1970
(lp4417
S'player'
p4418
asI1971
(lp4419
sI1972
(lp4420
sI1973
(lp4421
Vthings
p4422
asI1974
(lp4423
Vdesign
p4424
aVworld
p4425
asI1975
(lp4426
sI1976
(lp4427
sI1977
(lp4428
sI1978
(lp4429
S'cd'
p4430
aS'software'
p4431
aVplayer
p4432
aS'disk'
p4433
asI1979
(lp4434
sI1980
(lp4435
sI1981
(lp4436
Vfeature
p4437
aVlistening
p4438
aVmetal
p4439
asI1982
(lp4440
sI1983
(lp4441
sI1984
(lp4442
sI1985
(lp4443
sI1986
(lp4444
Vcd
p4445
asI1987
(lp4446
sI1988
(lp4447
sI1989
(lp4448
sI1990
(lp4449
Vend
p4450
asI1991
(lp4451
Vheadphones
p4452
asI1992
(lp4453
sI1993
(lp4454
Vlevel
p4455
asI1994
(lp4456
Vend
p4457
asI1995
(lp4458
sI1996
(lp4459
Vreview
p4460
asI1997
(lp4461
Vstains
p4462
aVrecords
p4463
aS'track'
p4464
asI1998
(lp4465
Vhelp
p4466
aS'candles'
p4467
aS"'t"
p4468
aVg
aS'light'
p4469
asI1999
(lp4470
Vjob
p4471
asI2000
(lp4472
sI2001
(lp4473
Vday
p4474
aS'dennis'
p4475
asI2002
(lp4476
sI2003
(lp4477
sI2004
(lp4478
S'zen'
p4479
asI2005
(lp4480
Vthing
p4481
asI2006
(lp4482
Vprice
p4483
asI2007
(lp4484
S'answer'
p4485
aS'artist'
p4486
aValbum
p4487
asI2008
(lp4488
sI2009
(lp4489
sI2010
(lp4490
S'artist'
p4491
asI2011
(lp4492
Vdivision
p4493
aS'artist'
p4494
asI2012
(lp4495
Vfeatures
p4496
aS'descussion'
p4497
aVupdates
p4498
asI2013
(lp4499
sI2014
(lp4500
Vexplorer
p4501
asI2015
(lp4502
sI2016
(lp4503
sI2017
(lp4504
S'folders'
p4505
aS'nomad'
p4506
asI2018
(lp4507
Vorganization
p4508
asI2019
(lp4509
Vartist
p4510
aS'album'
p4511
aS'genre'
p4512
aS'player'
p4513
aS'tags'
p4514
asI2020
(lp4515
Vdrive
p4516
aVorganization
p4517
aS'gb'
p4518
aS'players'
p4519
asI2021
(lp4520
S'iriver'
p4521
aVnomad
p4522
asI2022
(lp4523
sI2023
(lp4524
Vproducts
p4525
asI2024
(lp4526
sI2025
(lp4527
Vreviews
p4528
aS'mind'
p4529
aS'dont'
p4530
asI2026
(lp4531
sI2027
(lp4532
sI2028
(lp4533
S'ipod'
p4534
aS'people'
p4535
aVarray
p4536
asI2029
(lp4537
Vpackage
p4538
aVpod
p4539
asI2030
(lp4540
S'socks'
p4541
aS'xtra'
p4542
aS'zen'
p4543
asI2031
(lp4544
sI2032
(lp4545
sI2033
(lp4546
Vlife
p4547
aVaccessibility
p4548
aS'compatibility'
p4549
aS'music'
p4550
aVservices
p4551
asI2034
(lp4552
Vquality
p4553
aS'teases'
p4554
aVcase
p4555
aS'capacity'
p4556
asI2035
(lp4557
sI2036
(lp4558
Vsports
p4559
asI2037
(lp4560
sI2038
(lp4561
sI2039
(lp4562
sI2040
(lp4563
sI2041
(lp4564
Vthing
p4565
aVstyle
p4566
aS'size'
p4567
aS'ease'
p4568
asI2042
(lp4569
sI2043
(lp4570
sI2044
(lp4571
S'question'
p4572
aVorder
p4573
asI2045
(lp4574
sI2046
(lp4575
Valbums
p4576
asI2047
(lp4577
sI2048
(lp4578
sI2049
(lp4579
sI2050
(lp4580
sI2051
(lp4581
sI2052
(lp4582
sI2053
(lp4583
S'cover'
p4584
asI2054
(lp4585
sI2055
(lp4586
S'software'
p4587
aS'crashes'
p4588
aS'library'
p4589
aVwork
p4590
asI2056
(lp4591
sI2057
(lp4592
Vlook
p4593
asI2058
(lp4594
sI2059
(lp4595
Vipod
p4596
asI2060
(lp4597
Vipod
p4598
aS'waste'
p4599
aS'time'
p4600
asI2061
(lp4601
S'zen'
p4602
asI2062
(lp4603
sI2063
(lp4604
sI2064
(lp4605
sI2065
(lp4606
S'customer'
p4607
aS'support'
p4608
aS'labs'
p4609
aVwebsite
p4610
asI2066
(lp4611
S'downloads'
p4612
aS'pc'
p4613
asI2067
(lp4614
S'tech'
p4615
aS'operators'
p4616
aS'support'
p4617
asI2068
(lp4618
sI2069
(lp4619
sI2070
(lp4620
S'songs'
p4621
aS'inconveniences'
p4622
asI2071
(lp4623
S'song'
p4624
asI2072
(lp4625
sI2073
(lp4626
Vlight
p4627
aS'everything'
p4628
asI2074
(lp4629
sI2075
(lp4630
sI2076
(lp4631
S'standards'
p4632
asI2077
(lp4633
sI2078
(lp4634
Vplayers
p4635
asI2079
(lp4636
sI2080
(lp4637
Vquality
p4638
asI2081
(lp4639
sI2082
(lp4640
sI2083
(lp4641
sI2084
(lp4642
sI2085
(lp4643
Vdifficulty
p4644
asI2086
(lp4645
Vorganization
p4646
asI2087
(lp4647
Vbuttons
p4648
aS'none'
p4649
asI2088
(lp4650
sI2089
(lp4651
Vfall
p4652
asI2090
(lp4653
sI2091
(lp4654
Vfeatures
p4655
aVeax
p4656
aS'customization'
p4657
asI2092
(lp4658
Vbattery
p4659
asI2093
(lp4660
sI2094
(lp4661
sI2095
(lp4662
Vdeal
p4663
asI2096
(lp4664
Vdeal
p4665
asI2097
(lp4666
Vpair
p4667
asI2098
(lp4668
sI2099
(lp4669
Vpurchase
p4670
aS'player'
p4671
asI2100
(lp4672
Vprice
p4673
aS'sound'
p4674
aS'ease'
p4675
aVuse
p4676
aS'features'
p4677
asI2101
(lp4678
sI2102
(lp4679
Vplayer
p4680
aS'xtra'
p4681
aS'jukebox'
p4682
aS'zen'
p4683
aS'software'
p4684
asI2103
(lp4685
Vplayer
p4686
asI2104
(lp4687
S'software'
p4688
aVcomputer
p4689
asI2105
(lp4690
sI2106
(lp4691
sI2107
(lp4692
sI2108
(lp4693
Vcomputers
p4694
asI2109
(lp4695
S'money'
p4696
asI2110
(lp4697
Vreview
p4698
asI2111
(lp4699
sI2112
(lp4700
Voverall
p4701
aS'technology'
p4702
asI2113
(lp4703
Vquality
p4704
aS'zx'
p4705
aS'bit'
p4706
asI2114
(lp4707
Vmodel
p4708
aVbacklight
p4709
aS'screen'
p4710
asI2115
(lp4711
sI2116
(lp4712
Vproduct
p4713
asI2117
(lp4714
Vhassle
p4715
aS'equalizer'
p4716
asI2118
(lp4717
Vaudio
p4718
aVrates
p4719
asI2119
(lp4720
Vdata
p4721
aVratio
p4722
aVdecibles
p4723
asI2120
(lp4724
sI2121
(lp4725
Vplaylists
p4726
asI2122
(lp4727
Vcompetence
p4728
asI2123
(lp4729
sI2124
(lp4730
S'price'
p4731
asI2125
(lp4732
sI2126
(lp4733
Vpair
p4734
aS'earbuds'
p4735
aS'tags'
p4736
aS'mp3s'
p4737
aVbuyers
p4738
asI2127
(lp4739
Vquality
p4740
aVdiscount
p4741
aVspace
p4742
asI2128
(lp4743
sI2129
(lp4744
Vreviews
p4745
aVowners
p4746
asI2130
(lp4747
sI2131
(lp4748
Vbox
p4749
aS'batteries'
p4750
aS'hrs'
p4751
aS'reviewers'
p4752
asI2132
(lp4753
Vsoftware
p4754
aVdrivers
p4755
aVcrashes
p4756
aS'problems'
p4757
asI2133
(lp4758
Vsoftware
p4759
asI2134
(lp4760
sI2135
(lp4761
sI2136
(lp4762
Vcrap
p4763
aS'earbuds'
p4764
asI2137
(lp4765
Vspeakers
p4766
asI2138
(lp4767
sI2139
(lp4768
sI2140
(lp4769
sI2141
(lp4770
sI2142
(lp4771
S'wma'
p4772
aS'format'
p4773
asI2143
(lp4774
Vproblems
p4775
asI2144
(lp4776
sI2145
(lp4777
S'stars'
p4778
asI2146
(lp4779
Vbattery
p4780
asI2147
(lp4781
sI2148
(lp4782
Vdrive
p4783
asI2149
(lp4784
sI2150
(lp4785
sI2151
(lp4786
Vquality
p4787
aVbuy
p4788
aVflaws
p4789
aS'size'
p4790
aS'price'
p4791
asI2152
(lp4792
sI2153
(lp4793
S'music'
p4794
asI2154
(lp4795
Vaudio
p4796
asI2155
(lp4797
Vdisk
p4798
aS'jukebox'
p4799
aS'transfer'
p4800
aS'explorer'
p4801
asI2156
(lp4802
Vmethod
p4803
asI2157
(lp4804
Vdrive
p4805
aVplayers
p4806
asI2158
(lp4807
sI2159
(lp4808
sI2160
(lp4809
Vdisk
p4810
aS'type'
p4811
aS'nomad'
p4812
asI2161
(lp4813
Vfiles
p4814
asI2162
(lp4815
sI2163
(lp4816
sI2164
(lp4817
S'space'
p4818
aS'storage'
p4819
asI2165
(lp4820
sI2166
(lp4821
Vtransfers
p4822
asI2167
(lp4823
sI2168
(lp4824
S'minutes'
p4825
asI2169
(lp4826
sI2170
(lp4827
S'navigation'
p4828
aS'tags'
p4829
asI2171
(lp4830
S'tags'
p4831
aS'music'
p4832
asI2172
(lp4833
S'explorer'
p4834
aS'style'
p4835
aS'navigation'
p4836
aS'windows'
p4837
asI2173
(lp4838
sI2174
(lp4839
Vfolder
p4840
asI2175
(lp4841
S'none'
p4842
asI2176
(lp4843
Vreceiver
p4844
aVstations
p4845
asI2177
(lp4846
sI2178
(lp4847
Vplastic
p4848
asI2179
(lp4849
S'player'
p4850
aVdrive
p4851
asI2180
(lp4852
S'fall'
p4853
asI2181
(lp4854
Vplayer
p4855
asI2182
(lp4856
Vpiece
p4857
aS'metal'
p4858
asI2183
(lp4859
sI2184
(lp4860
sI2185
(lp4861
S'songs'
p4862
asI2186
(lp4863
sI2187
(lp4864
Vlist
p4865
asI2188
(lp4866
sI2189
(lp4867
Vway
p4868
asI2190
(lp4869
sI2191
(lp4870
Vjob
p4871
asI2192
(lp4872
sI2193
(lp4873
sI2194
(lp4874
sI2195
(lp4875
sI2196
(lp4876
sI2197
(lp4877
S'line'
p4878
aS'jack'
p4879
aS'pseudo'
p4880
asI2198
(lp4881
Vline
p4882
asI2199
(lp4883
Vline
p4884
asI2200
(lp4885
sI2201
(lp4886
sI2202
(lp4887
sI2203
(lp4888
sI2204
(lp4889
Vknob
p4890
aVversion
p4891
asI2205
(lp4892
Vaccess
p4893
asI2206
(lp4894
Vheadphones
p4895
asI2207
(lp4896
Vearbuds
p4897
asI2208
(lp4898
Vphones
p4899
asI2209
(lp4900
sI2210
(lp4901
sI2211
(lp4902
Vflaw
p4903
asI2212
(lp4904
sI2213
(lp4905
S'control'
p4906
asI2214
(lp4907
Vstop
p4908
aS'songs'
p4909
asI2215
(lp4910
S'nomad'
p4911
asI2216
(lp4912
S'jack'
p4913
aS'button'
p4914
aS'window'
p4915
asI2217
(lp4916
sI2218
(lp4917
S'case'
p4918
asI2219
(lp4919
sI2220
(lp4920
Vbuy
p4921
asI2221
(lp4922
Vquality
p4923
aVprice
p4924
aS'lot'
p4925
aS'player'
p4926
asI2222
(lp4927
Vplayers
p4928
asI2223
(lp4929
Vprice
p4930
aS'size'
p4931
aS'features'
p4932
asI2224
(lp4933
Vsources
p4934
aVeverytime
p4935
aS'ipod'
p4936
asI2225
(lp4937
Vspeculation
p4938
aVdampening
p4939
aS'protection'
p4940
asI2226
(lp4941
Vbuttons
p4942
aS'interface'
p4943
asI2227
(lp4944
Vbuttons
p4945
aS'volume'
p4946
aS'display'
p4947
aS'use'
p4948
aS'access'
p4949
asI2228
(lp4950
Vproblem
p4951
asI2229
(lp4952
Vsteps
p4953
asI2230
(lp4954
sI2231
(lp4955
Vbecuase
p4956
asI2232
(lp4957
S'transfer'
p4958
aS'file'
p4959
asI2233
(lp4960
Vdrive
p4961
asI2234
(lp4962
Vtask
p4963
asI2235
(lp4964
sI2236
(lp4965
Vsoftware
p4966
aVpeople
p4967
asI2237
(lp4968
Vstorage
p4969
aS'price'
p4970
asI2238
(lp4971
Vmemory
p4972
asI2239
(lp4973
sI2240
(lp4974
Vinterface
p4975
aS'ipod'
p4976
asI2241
(lp4977
S'interface'
p4978
aVknowledge
p4979
asI2242
(lp4980
S'games'
p4981
aS'ipod'
p4982
asI2243
(lp4983
Vphone
p4984
asI2244
(lp4985
sI2245
(lp4986
Vresearch
p4987
asI2246
(lp4988
sI2247
(lp4989
sI2248
(lp4990
S'software'
p4991
aS'2k'
p4992
aS'windows'
p4993
asI2249
(lp4994
Vheadphones
p4995
asI2250
(lp4996
S'life'
p4997
aS'mp3s'
p4998
aS'time'
p4999
asI2251
(lp5000
Vimo
p5001
aS'player'
p5002
aS'user'
p5003
asI2252
(lp5004
S'player'
p5005
asI2253
(lp5006
Vproduct
p5007
asI2254
(lp5008
sI2255
(lp5009
S'display'
p5010
asI2256
(lp5011
sI2257
(lp5012
Vplayers
p5013
aVone
p5014
asI2258
(lp5015
S'software'
p5016
aS'people'
p5017
aVproblem
p5018
asI2259
(lp5019
Vdrive
p5020
aS'space'
p5021
asI2260
(lp5022
S'software'
p5023
asI2261
(lp5024
Vneed
p5025
aS'controls'
p5026
asI2262
(lp5027
S'music'
p5028
aVauditorium
p5029
aS'options'
p5030
asI2263
(lp5031
sI2264
(lp5032
S'repeat'
p5033
aS'playlists'
p5034
aVselections
p5035
asI2265
(lp5036
S'player'
p5037
aS'mp3'
p5038
aS'dream'
p5039
asI2266
(lp5040
Vflaws
p5041
asI2267
(lp5042
Vgizmo
p5043
asI2268
(lp5044
sI2269
(lp5045
sI2270
(lp5046
sI2271
(lp5047
sI2272
(lp5048
S'nomad'
p5049
asI2273
(lp5050
sI2274
(lp5051
sI2275
(lp5052
sI2276
(lp5053
S'mp3'
p5054
asI2277
(lp5055
Vreason
p5056
asI2278
(lp5057
sI2279
(lp5058
S'navigation'
p5059
aVtracks
p5060
aS'hundreds'
p5061
aS'artists'
p5062
aValbums
p5063
asI2280
(lp5064
sI2281
(lp5065
Vsoftware
p5066
asI2282
(lp5067
sI2283
(lp5068
Vplayer
p5069
asI2284
(lp5070
sI2285
(lp5071
Vcomplaint
p5072
asI2286
(lp5073
Vquality
p5074
aS'complaint'
p5075
asI2287
(lp5076
Vfeature
p5077
aS'enhancement'
p5078
aS'eax'
p5079
aS'eq'
p5080
asI2288
(lp5081
Vcontrol
p5082
asI2289
(lp5083
S'cassette'
p5084
aS'car'
p5085
aS'style'
p5086
asI2290
(lp5087
Vquality
p5088
aVplayer
p5089
asI2291
(lp5090
Vquality
p5091
asI2292
(lp5092
Vcomplaint
p5093
asI2293
(lp5094
sI2294
(lp5095
sI2295
(lp5096
sI2296
(lp5097
sI2297
(lp5098
Vmp3
p5099
aS'players'
p5100
asI2298
(lp5101
sI2299
(lp5102
S'product'
p5103
asI2300
(lp5104
Vplayer
p5105
aVsomeone
p5106
aVsize
p5107
aS'price'
p5108
asI2301
(lp5109
Vprogram
p5110
asI2302
(lp5111
sI2303
(lp5112
S'months'
p5113
aS'battery'
p5114
asI2304
(lp5115
S'battery'
p5116
asI2305
(lp5117
Vimprovement
p5118
aVbuy
p5119
aS'lots'
p5120
aS'problems'
p5121
asI2306
(lp5122
Vplayer
p5123
asI2307
(lp5124
sI2308
(lp5125
sI2309
(lp5126
S'life'
p5127
asI2310
(lp5128
sI2311
(lp5129
S'fact'
p5130
aS'machine'
p5131
asI2312
(lp5132
sI2313
(lp5133
Vcomplaint
p5134
aS'id3'
p5135
aS'tags'
p5136
asI2314
(lp5137
sI2315
(lp5138
S'transfers'
p5139
asI2316
(lp5140
sI2317
(lp5141
Vounces
p5142
asI2318
(lp5143
Vdeal
p5144
asI2319
(lp5145
sI2320
(lp5146
sI2321
(lp5147
Vbacklight
p5148
aVthings
p5149
asI2322
(lp5150
Vthing
p5151
asI2323
(lp5152
sI2324
(lp5153
sI2325
(lp5154
Vquality
p5155
aS'files'
p5156
asI2326
(lp5157
sI2327
(lp5158
sI2328
(lp5159
Vface
p5160
aS'something'
p5161
asI2329
(lp5162
Vheadphones
p5163
asI2330
(lp5164
sI2331
(lp5165
Vthing
p5166
asI2332
(lp5167
sI2333
(lp5168
Vclose
p5169
asI2334
(lp5170
sI2335
(lp5171
Vsomething
p5172
aVpin
p5173
asI2336
(lp5174
Vbuy
p5175
asI2337
(lp5176
sI2338
(lp5177
S'jukebox'
p5178
asI2339
(lp5179
Vproduct
p5180
aVos
p5181
asI2340
(lp5182
S'players'
p5183
asI2341
(lp5184
Vmen
p5185
aVplayer
p5186
aVfeatures
p5187
aS'women'
p5188
aS'archos'
p5189
asI2342
(lp5190
sI2343
(lp5191
S'hardware'
p5192
asI2344
(lp5193
sI2345
(lp5194
Vplayer
p5195
asI2346
(lp5196
Vexperience
p5197
aS'player'
p5198
asI2347
(lp5199
sI2348
(lp5200
Vfeature
p5201
asI2349
(lp5202
S'track'
p5203
aS'user'
p5204
asI2350
(lp5205
sI2351
(lp5206
Vcalls
p5207
aS'menus'
p5208
aVplaylists
p5209
asI2352
(lp5210
S'expectations'
p5211
aS'player'
p5212
asI2353
(lp5213
sI2354
(lp5214
Vplayer
p5215
aVlistener
p5216
asI2355
(lp5217
Vplayback
p5218
asI2356
(lp5219
Vcomputer
p5220
aVdrive
p5221
aS'office'
p5222
aS'addition'
p5223
asI2357
(lp5224
S'idea'
p5225
asI2358
(lp5226
S'ipod'
p5227
aS'people'
p5228
asI2359
(lp5229
S'ease'
p5230
asI2360
(lp5231
sI2361
(lp5232
sI2362
(lp5233
Vlife
p5234
asI2363
(lp5235
sI2364
(lp5236
Vcollection
p5237
asI2365
(lp5238
Vdifference
p5239
asI2366
(lp5240
sI2367
(lp5241
sI2368
(lp5242
sI2369
(lp5243
Vtime
p5244
asI2370
(lp5245
S'transfer'
p5246
asI2371
(lp5247
Vcomputer
p5248
aS'process'
p5249
asI2372
(lp5250
Vreservations
p5251
asI2373
(lp5252
Vcd
p5253
aS'tracks'
p5254
asI2374
(lp5255
sI2375
(lp5256
Vdisks
p5257
aS'cd'
p5258
aVartist
p5259
aS'performance'
p5260
aVclassifications
p5261
asI2376
(lp5262
Vrock
p5263
aS'jimi'
p5264
aS'cd'
p5265
asI2377
(lp5266
sI2378
(lp5267
S'information'
p5268
asI2379
(lp5269
Vproblem
p5270
aVdiscs
p5271
aVnames
p5272
aS'site'
p5273
asI2380
(lp5274
sI2381
(lp5275
Vvariation
p5276
aVdisk
p5277
asI2382
(lp5278
sI2383
(lp5279
sI2384
(lp5280
S'tracks'
p5281
asI2385
(lp5282
sI2386
(lp5283
sI2387
(lp5284
S'cds'
p5285
aVorder
p5286
asI2388
(lp5287
Vorder
p5288
asI2389
(lp5289
Vwords
p5290
aVcd
p5291
asI2390
(lp5292
sI2391
(lp5293
sI2392
(lp5294
Vproblems
p5295
asI2393
(lp5296
sI2394
(lp5297
sI2395
(lp5298
sI2396
(lp5299
sI2397
(lp5300
sI2398
(lp5301
S'ipod'
p5302
asI2399
(lp5303
sI2400
(lp5304
S'zen'
p5305
aS'factor'
p5306
asI2401
(lp5307
sI2402
(lp5308
Vsoftware
p5309
aVorganizer
p5310
asI2403
(lp5311
sI2404
(lp5312
sI2405
(lp5313
Vway
p5314
aS'zen'
p5315
aVdrive
p5316
asI2406
(lp5317
S'transfer'
p5318
asI2407
(lp5319
S'sync'
p5320
aS'transfers'
p5321
aS'time'
p5322
asI2408
(lp5323
Vdrive
p5324
asI2409
(lp5325
S'device'
p5326
aS'zen'
p5327
aS'player'
p5328
asI2410
(lp5329
Vsoftware
p5330
aVcontent
p5331
aS'computer'
p5332
asI2411
(lp5333
Vthing
p5334
asI2412
(lp5335
S'songs'
p5336
aS'wma'
p5337
aS'ipod'
p5338
asI2413
(lp5339
sI2414
(lp5340
sI2415
(lp5341
Voffers
p5342
asI2416
(lp5343
sI2417
(lp5344
sI2418
(lp5345
sI2419
(lp5346
Vbutton
p5347
asI2420
(lp5348
sI2421
(lp5349
S'list'
p5350
asI2422
(lp5351
sI2423
(lp5352
sI2424
(lp5353
S'ipod'
p5354
aS'song'
p5355
asI2425
(lp5356
sI2426
(lp5357
Vplaylist
p5358
asI2427
(lp5359
sI2428
(lp5360
Vthing
p5361
aS'ipod'
p5362
aS'controls'
p5363
asI2429
(lp5364
S'differences'
p5365
aS'ipod'
p5366
asI2430
(lp5367
S'software'
p5368
asI2431
(lp5369
Vproduct
p5370
asI2432
(lp5371
sI2433
(lp5372
sI2434
(lp5373
sI2435
(lp5374
Vissue
p5375
asI2436
(lp5376
Vproduct
p5377
aS'cuzin'
p5378
aVstorage
p5379
aS'life'
p5380
aS'ipod'
p5381
asI2437
(lp5382
Vthing
p5383
asI2438
(lp5384
sI2439
(lp5385
Vcollection
p5386
asI2440
(lp5387
S'software'
p5388
asI2441
(lp5389
Vreviews
p5390
asI2442
(lp5391
S'unit'
p5392
asI2443
(lp5393
Vtransmitter
p5394
aVinterference
p5395
asI2444
(lp5396
sI2445
(lp5397
sI2446
(lp5398
sI2447
(lp5399
Vdrive
p5400
aS'memory'
p5401
aS'card'
p5402
asI2448
(lp5403
Vdrive
p5404
aS'memory'
p5405
aS'players'
p5406
asI2449
(lp5407
sI2450
(lp5408
sI2451
(lp5409
sI2452
(lp5410
sI2453
(lp5411
sI2454
(lp5412
sI2455
(lp5413
Vdrives
p5414
asI2456
(lp5415
sI2457
(lp5416
Vmachines
p5417
asI2458
(lp5418
sI2459
(lp5419
Vpricing
p5420
asI2460
(lp5421
sI2461
(lp5422
Vflash
p5423
aVdrive
p5424
aS'30gb'
p5425
asI2462
(lp5426
sI2463
(lp5427
sI2464
(lp5428
sI2465
(lp5429
Vdrive
p5430
asI2466
(lp5431
sI2467
(lp5432
Vcapacity
p5433
asI2468
(lp5434
Vsize
p5435
asI2469
(lp5436
Vcase
p5437
asI2470
(lp5438
S'cover'
p5439
aS'device'
p5440
asI2471
(lp5441
Vreviewers
p5442
asI2472
(lp5443
S'computer'
p5444
asI2473
(lp5445
Vartist
p5446
aS'name'
p5447
asI2474
(lp5448
sI2475
(lp5449
S'tunes'
p5450
asI2476
(lp5451
Vstep
p5452
asI2477
(lp5453
S'copy'
p5454
asI2478
(lp5455
Vpros
p5456
aS'cons'
p5457
asI2479
(lp5458
Vprice
p5459
asI2480
(lp5460
S'ipod'
p5461
asI2481
(lp5462
sI2482
(lp5463
Vdeal
p5464
asI2483
(lp5465
S'data'
p5466
asI2484
(lp5467
sI2485
(lp5468
Vdrawback
p5469
asI2486
(lp5470
sI2487
(lp5471
S'something'
p5472
asI2488
(lp5473
sI2489
(lp5474
S'file'
p5475
aS'problems'
p5476
asI2490
(lp5477
sI2491
(lp5478
Vpurchase
p5479
asI2492
(lp5480
Vstar
p5481
aS'docking'
p5482
asI2493
(lp5483
sI2494
(lp5484
sI2495
(lp5485
sI2496
(lp5486
Vthings
p5487
aVlight
p5488
aVdeals
p5489
aS'ive'
p5490
aS'equilizer'
p5491
aVsound
p5492
aS'type'
p5493
asI2497
(lp5494
Vmp3s
p5495
asI2498
(lp5496
sI2499
(lp5497
Vprice
p5498
aVsound
p5499
asI2500
(lp5500
sI2501
(lp5501
sI2502
(lp5502
sI2503
(lp5503
Vipod
p5504
aVcreation
p5505
aS'fly'
p5506
asI2504
(lp5507
Vlife
p5508
asI2505
(lp5509
S'battery'
p5510
aS'life'
p5511
aS'ipod'
p5512
aVuse
p5513
asI2506
(lp5514
Vrazor
p5515
aS'charge'
p5516
asI2507
(lp5517
Veverything
p5518
aVipod
p5519
aS'alternative'
p5520
aS'anyone'
p5521
aVones
p5522
aVchoice
p5523
asI2508
(lp5524
Vcompany
p5525
aS'player'
p5526
asI2509
(lp5527
Vquality
p5528
aVformat
p5529
aS'audio'
p5530
aS'wma'
p5531
aS'ipod'
p5532
aS'sub'
p5533
aS'music'
p5534
aS'par'
p5535
aVplayer
p5536
aVservices
p5537
asI2510
(lp5538
Vproduct
p5539
aS'friend'
p5540
asI2511
(lp5541
sI2512
(lp5542
Vprice
p5543
aS'capacity'
p5544
asI2513
(lp5545
Vdesign
p5546
aS'interface'
p5547
asI2514
(lp5548
Vbattery
p5549
asI2515
(lp5550
sI2516
(lp5551
Vcase
p5552
aS'window'
p5553
asI2517
(lp5554
sI2518
(lp5555
Vflaw
p5556
asI2519
(lp5557
S'button'
p5558
aS'scroll'
p5559
aVmodels
p5560
asI2520
(lp5561
sI2521
(lp5562
S'equalizer'
p5563
aVquality
p5564
asI2522
(lp5565
sI2523
(lp5566
Vvolume
p5567
aVheadphones
p5568
aVradio
p5569
aS'receivers'
p5570
aS'car'
p5571
asI2524
(lp5572
sI2525
(lp5573
S'songs'
p5574
aValbums
p5575
aVtitles
p5576
asI2526
(lp5577
Vtimes
p5578
asI2527
(lp5579
S'album'
p5580
aS'information'
p5581
asI2528
(lp5582
S'database'
p5583
aS'cd'
p5584
asI2529
(lp5585
Vname
p5586
aS'genre'
p5587
asI2530
(lp5588
Vverdict
p5589
asI2531
(lp5590
Vplayer
p5591
aVprice
p5592
aVsoftware
p5593
aVway
p5594
asI2532
(lp5595
S'zen'
p5596
aS'gb'
p5597
asI2533
(lp5598
sI2534
(lp5599
Vcd
p5600
aVmemory
p5601
asI2535
(lp5602
sI2536
(lp5603
Vsongs
p5604
asI2537
(lp5605
sI2538
(lp5606
S'structure'
p5607
aS'file'
p5608
aS'name'
p5609
aS'song'
p5610
aS'title'
p5611
aS'artist'
p5612
aS'problem'
p5613
asI2539
(lp5614
sI2540
(lp5615
S'software'
p5616
aS'media'
p5617
aS'windows'
p5618
aS'player'
p5619
asI2541
(lp5620
S'tracks'
p5621
aS'track'
p5622
asI2542
(lp5623
Vtitles
p5624
asI2543
(lp5625
S'tag'
p5626
aS'id3'
p5627
asI2544
(lp5628
sI2545
(lp5629
sI2546
(lp5630
Vplayer
p5631
asI2547
(lp5632
sI2548
(lp5633
S'features'
p5634
aVnoise
p5635
asI2549
(lp5636
S'anything'
p5637
aS'xtra'
p5638
asI2550
(lp5639
S'combination'
p5640
aS'criteria'
p5641
aVplayer
p5642
aS'zen'
p5643
aVprice
p5644
aS'capacity'
p5645
aS'features'
p5646
asI2551
(lp5647
Vgift
p5648
asI2552
(lp5649
sI2553
(lp5650
Vamount
p5651
aVpiece
p5652
aVfun
p5653
aS'memory'
p5654
aVcollection
p5655
asI2554
(lp5656
S'battery'
p5657
aVsound
p5658
asI2555
(lp5659
Vthings
p5660
aVsystem
p5661
aS'case'
p5662
asI2556
(lp5663
Vpiece
p5664
asI2557
(lp5665
Vflight
p5666
aS'week'
p5667
asI2558
(lp5668
S'connection'
p5669
aS'quality'
p5670
asI2559
(lp5671
Vbuy
p5672
aVplayer
p5673
aS'specs'
p5674
aS'mp3'
p5675
aS'memory'
p5676
aVprice
p5677
asI2560
(lp5678
sI2561
(lp5679
sI2562
(lp5680
sI2563
(lp5681
sI2564
(lp5682
Vpart
p5683
asI2565
(lp5684
sI2566
(lp5685
sI2567
(lp5686
sI2568
(lp5687
sI2569
(lp5688
sI2570
(lp5689
sI2571
(lp5690
sI2572
(lp5691
sI2573
(lp5692
Vplayer
p5693
aVwarranty
p5694
asI2574
(lp5695
sI2575
(lp5696
Vplayers
p5697
aVquality
p5698
asI2576
(lp5699
sI2577
(lp5700
sI2578
(lp5701
Vstorage
p5702
aVflexibility
p5703
asI2579
(lp5704
S'nomad'
p5705
asI2580
(lp5706
Vwarranty
p5707
asI2581
(lp5708
sI2582
(lp5709
S'battery'
p5710
aVplate
p5711
asI2583
(lp5712
Vbattery
p5713
asI2584
(lp5714
Vsoftware
p5715
aS'zen'
p5716
asI2585
(lp5717
S'rest'
p5718
asI2586
(lp5719
sI2587
(lp5720
sI2588
(lp5721
sI2589
(lp5722
Vnoise
p5723
asI2590
(lp5724
S'earbuds'
p5725
asI2591
(lp5726
sI2592
(lp5727
sI2593
(lp5728
Vfeatures
p5729
asI2594
(lp5730
sI2595
(lp5731
S'clip'
p5732
asI2596
(lp5733
sI2597
(lp5734
sI2598
(lp5735
S'display'
p5736
aS'case'
p5737
asI2599
(lp5738
sI2600
(lp5739
Vcomplaint
p5740
aS'nomad'
p5741
asI2601
(lp5742
Vflaws
p5743
aVissues
p5744
aS'party'
p5745
aS'file'
p5746
aS'transfer'
p5747
aS'mediasource'
p5748
aVdisappointment
p5749
aS'player'
p5750
aS'software'
p5751
aVbuyers
p5752
asI2602
(lp5753
Vpoints
p5754
asI2603
(lp5755
Vdevice
p5756
aVobjective
p5757
aVcollection
p5758
asI2604
(lp5759
S'gap'
p5760
aS'players'
p5761
aS'start'
p5762
aVtrack
p5763
asI2605
(lp5764
S'gap'
p5765
aS'stoppage'
p5766
aS'zen'
p5767
asI2606
(lp5768
sI2607
(lp5769
Vsoftware
p5770
aVrip
p5771
asI2608
(lp5772
S'tags'
p5773
aS'mediasource'
p5774
asI2609
(lp5775
S'rip'
p5776
asI2610
(lp5777
sI2611
(lp5778
Vquality
p5779
aS'catalog'
p5780
aS'mediasource'
p5781
aVinternet
p5782
asI2612
(lp5783
sI2613
(lp5784
sI2614
(lp5785
sI2615
(lp5786
sI2616
(lp5787
S'eax'
p5788
asI2617
(lp5789
sI2618
(lp5790
sI2619
(lp5791
sI2620
(lp5792
sI2621
(lp5793
sI2622
(lp5794
Vflaws
p5795
asI2623
(lp5796
sI2624
(lp5797
S'reviewers'
p5798
asI2625
(lp5799
S'reviewers'
p5800
asI2626
(lp5801
sI2627
(lp5802
Vdrive
p5803
aVdocuments
p5804
aS'programs'
p5805
asI2628
(lp5806
Vwords
p5807
aVdevice
p5808
aS'zen'
p5809
aS'capacity'
p5810
aS'storage'
p5811
aS'data'
p5812
aS'point'
p5813
aS'collection'
p5814
asI2629
(lp5815
S'storage'
p5816
aS'data'
p5817
aS'device'
p5818
asI2630
(lp5819
S'button'
p5820
aS'zen'
p5821
asI2631
(lp5822
Vbutton
p5823
aS'pause'
p5824
aVtrack
p5825
aS'buttons'
p5826
aS'playback'
p5827
asI2632
(lp5828
Vcopy
p5829
aS'version'
p5830
asI2633
(lp5831
Vreviews
p5832
asI2634
(lp5833
Vchoice
p5834
aS'adapter'
p5835
aS'battery'
p5836
asI2635
(lp5837
sI2636
(lp5838
Vnotebook
p5839
asI2637
(lp5840
S'microsoft'
p5841
aS'engine'
p5842
aS'database'
p5843
aS'error'
p5844
asI2638
(lp5845
sI2639
(lp5846
sI2640
(lp5847
sI2641
(lp5848
Vcomputers
p5849
asI2642
(lp5850
Vnotebook
p5851
asI2643
(lp5852
sI2644
(lp5853
sI2645
(lp5854
Vname
p5855
aS'file'
p5856
aS'transfer'
p5857
aS'mediasource'
p5858
asI2646
(lp5859
S'search'
p5860
asI2647
(lp5861
S'it'
p5862
aS'zen'
p5863
asI2648
(lp5864
Vcatalog
p5865
aS'files'
p5866
aVwinamp
p5867
aS'notmad'
p5868
aVrip
p5869
aS'gb'
p5870
aVmusicmatch
p5871
aVhooray
p5872
asI2649
(lp5873
Vfeatures
p5874
aS'notmad'
p5875
aVinformation
p5876
asI2650
(lp5877
sI2651
(lp5878
sI2652
(lp5879
Vreason
p5880
asI2653
(lp5881
sI2654
(lp5882
Vzen
p5883
aVdevice
p5884
asI2655
(lp5885
sI2656
(lp5886
sI2657
(lp5887
Vsoftware
p5888
aS's'
aS'driver'
p5889
asI2658
(lp5890
sI2659
(lp5891
sI2660
(lp5892
Vmemory
p5893
asI2661
(lp5894
Vquality
p5895
aS'tapes'
p5896
aVcd
p5897
asI2662
(lp5898
sI2663
(lp5899
sI2664
(lp5900
sI2665
(lp5901
sI2666
(lp5902
S'napster'
p5903
aS'device'
p5904
asI2667
(lp5905
sI2668
(lp5906
Vbunch
p5907
asI2669
(lp5908
S'folks'
p5909
aS'jukebox'
p5910
aS'nomad'
p5911
aS'ipod'
p5912
asI2670
(lp5913
Vgripe
p5914
asI2671
(lp5915
S'hundreds'
p5916
asI2672
(lp5917
Vreason
p5918
asI2673
(lp5919
sI2674
(lp5920
sI2675
(lp5921
sI2676
(lp5922
S'years'
p5923
asI2677
(lp5924
Vsongs
p5925
aS'albums'
p5926
asI2678
(lp5927
sI2679
(lp5928
Vquality
p5929
asI2680
(lp5930
sI2681
(lp5931
Vmessages
p5932
aS'something'
p5933
asI2682
(lp5934
sI2683
(lp5935
sI2684
(lp5936
S'top'
p5937
asI2685
(lp5938
Vfit
p5939
aS'cover'
p5940
asI2686
(lp5941
sI2687
(lp5942
sI2688
(lp5943
sI2689
(lp5944
S'ipod'
p5945
aS'time'
p5946
asI2690
(lp5947
sI2691
(lp5948
Vquality
p5949
asI2692
(lp5950
S'vice'
p5951
aVcomputer
p5952
asI2693
(lp5953
sI2694
(lp5954
sI2695
(lp5955
sI2696
(lp5956
S'jukebox'
p5957
asI2697
(lp5958
Vgap
p5959
aVpanel
p5960
aS'base'
p5961
asI2698
(lp5962
Vpanel
p5963
asI2699
(lp5964
Vcd
p5965
asI2700
(lp5966
Vconstruction
p5967
asI2701
(lp5968
Vquality
p5969
aS'hardware'
p5970
asI2702
(lp5971
sI2703
(lp5972
sI2704
(lp5973
S'performance'
p5974
aS'price'
p5975
asI2705
(lp5976
S'wheel'
p5977
aS'software'
p5978
aS'year'
p5979
asI2706
(lp5980
sI2707
(lp5981
S'device'
p5982
aS'people'
p5983
asI2708
(lp5984
sI2709
(lp5985
sI2710
(lp5986
Vproducts
p5987
asI2711
(lp5988
sI2712
(lp5989
S'jack'
p5990
asI2713
(lp5991
sI2714
(lp5992
sI2715
(lp5993
Vreviews
p5994
asI2716
(lp5995
S'way'
p5996
aVreviewers
p5997
aS'construction'
p5998
asI2717
(lp5999
sI2718
(lp6000
Vreviewers
p6001
asI2719
(lp6002
S'behavior'
p6003
asI2720
(lp6004
S'device'
p6005
asI2721
(lp6006
S'state'
p6007
aS'device'
p6008
asI2722
(lp6009
sI2723
(lp6010
Vmeasure
p6011
asI2724
(lp6012
sI2725
(lp6013
S'days'
p6014
asI2726
(lp6015
Vfeeling
p6016
aVstability
p6017
asI2727
(lp6018
Vimprovement
p6019
asI2728
(lp6020
Vpoint
p6021
asI2729
(lp6022
Vdrive
p6023
aVlesson
p6024
aVcard
p6025
aS'gut'
p6026
asI2730
(lp6027
sI2731
(lp6028
sI2732
(lp6029
sI2733
(lp6030
Vsoftware
p6031
asI2734
(lp6032
sI2735
(lp6033
Vproduct
p6034
asI2736
(lp6035
sI2737
(lp6036
Vman
p6037
asI2738
(lp6038
sI2739
(lp6039
sI2740
(lp6040
sI2741
(lp6041
Vcollection
p6042
asI2742
(lp6043
sI2743
(lp6044
Voutput
p6045
aS'power'
p6046
aVspeakers
p6047
aS'noise'
p6048
aS'signal'
p6049
aVratio
p6050
aVphones
p6051
asI2744
(lp6052
sI2745
(lp6053
S'speakers'
p6054
asI2746
(lp6055
Vnavigation
p6056
aVcollection
p6057
asI2747
(lp6058
S'explorer'
p6059
aS'states'
p6060
aS'tech'
p6061
aVpurpose
p6062
asI2748
(lp6063
S'explorer'
p6064
asI2749
(lp6065
S'transfers'
p6066
aS'usb'
p6067
aS'song'
p6068
asI2750
(lp6069
S'cheap'
p6070
aVadvantage
p6071
asI2751
(lp6072
sI2752
(lp6073
Vplayer
p6074
aVform
p6075
aVlook
p6076
asI2753
(lp6077
Vcase
p6078
aVdesign
p6079
asI2754
(lp6080
Vmediasource
p6081
asI2755
(lp6082
Vdownloads
p6083
aS'information'
p6084
aS'cd'
p6085
asI2756
(lp6086
Vediting
p6087
asI2757
(lp6088
Vcd
p6089
aS'b.'
p6090
aS'mediasource'
p6091
asI2758
(lp6092
Vplayer
p6093
aS'collection'
p6094
aVsync
p6095
asI2759
(lp6096
Vtime
p6097
asI2760
(lp6098
Valarm
p6099
asI2761
(lp6100
Vplay
p6101
aS'tracks'
p6102
aVplayers
p6103
asI2762
(lp6104
Vachievement
p6105
aS'player'
p6106
aS'pause'
p6107
asI2763
(lp6108
Vcollection
p6109
aVdevice
p6110
asI2764
(lp6111
sI2765
(lp6112
S'mediasource'
p6113
aS'explorer'
p6114
asI2766
(lp6115
S'organization'
p6116
aVfiles
p6117
aS'information'
p6118
asI2767
(lp6119
sI2768
(lp6120
S'folders'
p6121
asI2769
(lp6122
S'zen'
p6123
aS'people'
p6124
aS'subfolders'
p6125
aS'files'
p6126
asI2770
(lp6127
Vfiles
p6128
aS'music'
p6129
asI2771
(lp6130
Vextras
p6131
aS'fm'
p6132
asI2772
(lp6133
sI2773
(lp6134
Vtransmitters
p6135
asI2774
(lp6136
S'cable'
p6137
asI2775
(lp6138
S'screen'
p6139
aS'case'
p6140
asI2776
(lp6141
sI2777
(lp6142
Vswitch
p6143
aS'case'
p6144
asI2778
(lp6145
sI2779
(lp6146
Vmediasource
p6147
aS'figure'
p6148
asI2780
(lp6149
sI2781
(lp6150
Vaudigy
p6151
aS'connector'
p6152
aS'version'
p6153
aS'mediasource'
p6154
asI2782
(lp6155
S'updates'
p6156
aVupgrade
p6157
asI2783
(lp6158
sI2784
(lp6159
Vcoverage
p6160
aVdrive
p6161
aS'parts'
p6162
aS'device'
p6163
asI2785
(lp6164
Vpair
p6165
asI2786
(lp6166
sI2787
(lp6167
Vset
p6168
aS'transmitter'
p6169
asI2788
(lp6170
sI2789
(lp6171
sI2790
(lp6172
sI2791
(lp6173
Vsound
p6174
aVinterface
p6175
aVbattery
p6176
aVsoftware
p6177
aVplay
p6178
aS'modes'
p6179
asI2792
(lp6180
sI2793
(lp6181
sI2794
(lp6182
sI2795
(lp6183
S'beat'
p6184
asI2796
(lp6185
sI2797
(lp6186
Vspeakers
p6187
asI2798
(lp6188
S'jukebox'
p6189
asI2799
(lp6190
sI2800
(lp6191
sI2801
(lp6192
sI2802
(lp6193
Vnothing
p6194
aS'hassle'
p6195
asI2803
(lp6196
sI2804
(lp6197
S'job'
p6198
aS'thing'
p6199
asI2805
(lp6200
sI2806
(lp6201
Vipod
p6202
asI2807
(lp6203
S'feature'
p6204
asI2808
(lp6205
sI2809
(lp6206
sI2810
(lp6207
sI2811
(lp6208
Vthing
p6209
asI2812
(lp6210
Vcarpet
p6211
aS'cover'
p6212
asI2813
(lp6213
sI2814
(lp6214
S'ones'
p6215
aS'eax'
p6216
asI2815
(lp6217
sI2816
(lp6218
S'songs'
p6219
asI2817
(lp6220
sI2818
(lp6221
Vtitle
p6222
asI2819
(lp6223
sI2820
(lp6224
S'jack'
p6225
asI2821
(lp6226
sI2822
(lp6227
Vthing
p6228
aS'replacement'
p6229
asI2823
(lp6230
S'somebody'
p6231
asI2824
(lp6232
Vreviews
p6233
asI2825
(lp6234
Vcollection
p6235
asI2826
(lp6236
sI2827
(lp6237
sI2828
(lp6238
S'time'
p6239
asI2829
(lp6240
Vdrive
p6241
aS'player'
p6242
asI2830
(lp6243
Vsoftware
p6244
aS'drivers'
p6245
asI2831
(lp6246
sI2832
(lp6247
Vwhile
p6248
aVreviews
p6249
asI2833
(lp6250
Vtime
p6251
asI2834
(lp6252
Vsound
p6253
aVsongs
p6254
asI2835
(lp6255
Vsize
p6256
aVzero
p6257
aS'durability'
p6258
asI2836
(lp6259
Vdrive
p6260
aVbriefcase
p6261
aS'day'
p6262
asI2837
(lp6263
sI2838
(lp6264
sI2839
(lp6265
S'zen'
p6266
asI2840
(lp6267
S'combination'
p6268
aVprice
p6269
aS'size'
p6270
aS'features'
p6271
asI2841
(lp6272
Vdrawback
p6273
asI2842
(lp6274
sI2843
(lp6275
sI2844
(lp6276
sI2845
(lp6277
Vquality
p6278
aVproducts
p6279
asI2846
(lp6280
S'default'
p6281
asI2847
(lp6282
S'menu'
p6283
aVartist
p6284
aS'genre'
p6285
aS'album'
p6286
asI2848
(lp6287
Vadapter
p6288
asI2849
(lp6289
sI2850
(lp6290
Vdrive
p6291
aVlibrary
p6292
asI2851
(lp6293
Vfeature
p6294
asI2852
(lp6295
sI2853
(lp6296
Vcomplaints
p6297
asI2854
(lp6298
Vartists
p6299
aS'genres'
p6300
asI2855
(lp6301
S'files'
p6302
aS'xtra'
p6303
aVplayer
p6304
aS'name'
p6305
asI2856
(lp6306
Vhassle
p6307
asI2857
(lp6308
S'music'
p6309
aS'tags'
p6310
aVid3
p6311
asI2858
(lp6312
S'tags'
p6313
aS'stick'
p6314
asI2859
(lp6315
Vversions
p6316
aS'problem'
p6317
aS'people'
p6318
aS'sets'
p6319
aS'musicmatch'
p6320
asI2860
(lp6321
sI2861
(lp6322
S'explorer'
p6323
aS'nomad'
p6324
asI2862
(lp6325
S'system'
p6326
aVtimes
p6327
asI2863
(lp6328
sI2864
(lp6329
sI2865
(lp6330
sI2866
(lp6331
sI2867
(lp6332
Vdrive
p6333
aS'weeks'
p6334
aS'time'
p6335
asI2868
(lp6336
Vquality
p6337
aVreviewer
p6338
aS'interference'
p6339
aS'eax'
p6340
asI2869
(lp6341
Vheadphones
p6342
asI2870
(lp6343
sI2871
(lp6344
Vsystem
p6345
aS'controls'
p6346
asI2872
(lp6347
sI2873
(lp6348
Vuser
p6349
aS'placement'
p6350
asI2874
(lp6351
Vproblem
p6352
aVbasis
p6353
asI2875
(lp6354
Vdesign
p6355
asI2876
(lp6356
S'flap'
p6357
aS'screen'
p6358
asI2877
(lp6359
sI2878
(lp6360
sI2879
(lp6361
sI2880
(lp6362
Vbuy
p6363
asI2881
(lp6364
Vbutton
p6365
aS'thumbwheel'
p6366
aS'scroll'
p6367
asI2882
(lp6368
Vlife
p6369
aS'lack'
p6370
aVcomplaint
p6371
asI2883
(lp6372
S'hours'
p6373
aS'battery'
p6374
asI2884
(lp6375
sI2885
(lp6376
Vturn
p6377
asI2886
(lp6378
sI2887
(lp6379
S'thought'
p6380
aS'battery'
p6381
asI2888
(lp6382
S'times'
p6383
aS'zen'
p6384
asI2889
(lp6385
Vnews
p6386
asI2890
(lp6387
Vplayers
p6388
aVipod
p6389
asI2891
(lp6390
Vconstruction
p6391
aS'zen'
p6392
aS'kind'
p6393
aVcase
p6394
aVjukeboxes
p6395
asI2892
(lp6396
sI2893
(lp6397
Vcapacity
p6398
aVprice
p6399
aVbattery
p6400
asI2894
(lp6401
sI2895
(lp6402
Vlockups
p6403
aS'line'
p6404
aS'zen'
p6405
asI2896
(lp6406
V40gb
p6407
asI2897
(lp6408
Vmedia
p6409
aS'kind'
p6410
aS'card'
p6411
aVsoftware
p6412
aS'operating'
p6413
asI2898
(lp6414
Vlabs
p6415
asI2899
(lp6416
Vbuy
p6417
aS'zen'
p6418
asI2900
(lp6419
sI2901
(lp6420
Vzen
p6421
aVpros
p6422
aS'cons'
p6423
aVcontenders
p6424
asI2902
(lp6425
Vsupport
p6426
asI2903
(lp6427
S'drawbacks'
p6428
aS'products'
p6429
aS'while'
p6430
aVvalue
p6431
aS'reliability'
p6432
asI2904
(lp6433
S'x00'
p6434
asI2905
(lp6435
Vbuzz
p6436
aS'ipod'
p6437
asI2906
(lp6438
Vdesign
p6439
aS'looks'
p6440
asI2907
(lp6441
Vbuttons
p6442
aS'appearance'
p6443
aS'people'
p6444
asI2908
(lp6445
Vreviewers
p6446
aS'button'
p6447
aS'device'
p6448
asI2909
(lp6449
S'interface'
p6450
aS'while'
p6451
asI2910
(lp6452
Vbattery
p6453
aVconstruction
p6454
asI2911
(lp6455
Vdisk
p6456
asI2912
(lp6457
Vmusic
p6458
aS'data'
p6459
aVmode
p6460
aS'appointments'
p6461
asI2913
(lp6462
Vcomputers
p6463
asI2914
(lp6464
Vquality
p6465
asI2915
(lp6466
S'delivery'
p6467
asI2916
(lp6468
sI2917
(lp6469
Vusers
p6470
aS'button'
p6471
aS'ipod'
p6472
aS'veterans'
p6473
asI2918
(lp6474
Vfeedback
p6475
aVsupport
p6476
aVquality
p6477
aS'difficulty'
p6478
aVwheel
p6479
asI2919
(lp6480
Vitem
p6481
aS'quality'
p6482
asI2920
(lp6483
S'plate'
p6484
aS'zen'
p6485
aS'battery'
p6486
asI2921
(lp6487
S'battery'
p6488
aS'functionality'
p6489
asI2922
(lp6490
Vsurface
p6491
aS'faceplate'
p6492
asI2923
(lp6493
S'faceplate'
p6494
asI2924
(lp6495
S'products'
p6496
asI2925
(lp6497
Vusers
p6498
asI2926
(lp6499
Vsoftware
p6500
aVload
p6501
asI2927
(lp6502
Vpeople
p6503
aVmanufacturing
p6504
aS'problem'
p6505
asI2928
(lp6506
S'folders'
p6507
aS'zen'
p6508
aS'documents'
p6509
aS'programs'
p6510
asI2929
(lp6511
Vquality
p6512
asI2930
(lp6513
S'button'
p6514
aS'zen'
p6515
asI2931
(lp6516
Vusers
p6517
asI2932
(lp6518
sI2933
(lp6519
Vmovement
p6520
asI2934
(lp6521
Vdevice
p6522
asI2935
(lp6523
Vreviews
p6524
aVquality
p6525
aS'karma'
p6526
aS'connectivity'
p6527
aS'rca'
p6528
aS'output'
p6529
asI2936
(lp6530
Vfeedback
p6531
aS'usability'
p6532
aS'selection'
p6533
aS'structure'
p6534
aS'size'
p6535
aS'quality'
p6536
aS'usage'
p6537
aS'button'
p6538
asI2937
(lp6539
sI2938
(lp6540
Vplayer
p6541
asI2939
(lp6542
Vbase
p6543
asI2940
(lp6544
S'folders'
p6545
aS'karma'
p6546
aS'storage'
p6547
aS'data'
p6548
asI2941
(lp6549
Vcollections
p6550
aVrates
p6551
asI2942
(lp6552
S'button'
p6553
aS'karma'
p6554
asI2943
(lp6555
sI2944
(lp6556
sI2945
(lp6557
Vcomplaint
p6558
aVdelays
p6559
aVdisplay
p6560
asI2946
(lp6561
sI2947
(lp6562
sI2948
(lp6563
Vbutton
p6564
aS'photos'
p6565
asI2949
(lp6566
sI2950
(lp6567
S'appetite'
p6568
aS'one'
p6569
asI2951
(lp6570
Vdevices
p6571
aVgenerations
p6572
asI2952
(lp6573
Vbuyer
p6574
asI2953
(lp6575
S'pros'
p6576
aS'experiment'
p6577
aS'cons'
p6578
asI2954
(lp6579
sI2955
(lp6580
Vprice
p6581
asI2956
(lp6582
Vfriends
p6583
aVquality
p6584
aS'sound'
p6585
aVfeatures
p6586
aVlife
p6587
aVprice
p6588
asI2957
(lp6589
sI2958
(lp6590
sI2959
(lp6591
sI2960
(lp6592
S'house'
p6593
aS'headphones'
p6594
asI2961
(lp6595
S'product'
p6596
asI2962
(lp6597
sI2963
(lp6598
sI2964
(lp6599
sI2965
(lp6600
Vrefund
p6601
asI2966
(lp6602
S'player'
p6603
aS'mp3'
p6604
asI2967
(lp6605
sI2968
(lp6606
Vjukebox2
p6607
aS'player'
p6608
aS'nomad'
p6609
aS'mp3'
p6610
asI2969
(lp6611
sI2970
(lp6612
sI2971
(lp6613
S'battery'
p6614
asI2972
(lp6615
S'pod'
p6616
aS'friend'
p6617
asI2973
(lp6618
sI2974
(lp6619
sI2975
(lp6620
sI2976
(lp6621
sI2977
(lp6622
Vsize
p6623
aS'style'
p6624
asI2978
(lp6625
S'appearance'
p6626
asI2979
(lp6627
Vbit
p6628
asI2980
(lp6629
sI2981
(lp6630
sI2982
(lp6631
sI2983
(lp6632
S'pc'
p6633
aS'software'
p6634
asI2984
(lp6635
S'problem'
p6636
aS'tons'
p6637
asI2985
(lp6638
Vmp3
p6639
aS'problem'
p6640
aS'players'
p6641
asI2986
(lp6642
Vlab
p6643
asI2987
(lp6644
sI2988
(lp6645
Vfunctions
p6646
asI2989
(lp6647
S'c'
aS'd'
asI2990
(lp6648
sI2991
(lp6649
Vread
p6650
aS'alot'
p6651
aVthings
p6652
asI2992
(lp6653
Vhistory
p6654
asI2993
(lp6655
sI2994
(lp6656
sI2995
(lp6657
Vpiece
p6658
aS'player'
p6659
asI2996
(lp6660
sI2997
(lp6661
sI2998
(lp6662
Vweeks
p6663
asI2999
(lp6664
Vplayer
p6665
asI3000
(lp6666
sI3001
(lp6667
sI3002
(lp6668
sI3003
(lp6669
sI3004
(lp6670
Vspace
p6671
aVcollection
p6672
asI3005
(lp6673
sI3006
(lp6674
sI3007
(lp6675
sI3008
(lp6676
S'u'
aS'sound'
p6677
asI3009
(lp6678
sI3010
(lp6679
Vpresets
p6680
aVvariations
p6681
asI3011
(lp6682
sI3012
(lp6683
S'software'
p6684
aVcollection
p6685
asI3013
(lp6686
sI3014
(lp6687
sI3015
(lp6688
Vpeople
p6689
asI3016
(lp6690
Vcollection
p6691
asI3017
(lp6692
Vfill
p6693
asI3018
(lp6694
sI3019
(lp6695
Vthing
p6696
aS'hours'
p6697
asI3020
(lp6698
sI3021
(lp6699
S'player'
p6700
asI3022
(lp6701
sI3023
(lp6702
Vtype
p6703
asI3024
(lp6704
Vthings
p6705
asI3025
(lp6706
sI3026
(lp6707
Vclock
p6708
aS'date'
p6709
asI3027
(lp6710
sI3028
(lp6711
S'firmware'
p6712
aS'player'
p6713
asI3029
(lp6714
sI3030
(lp6715
sI3031
(lp6716
sI3032
(lp6717
sI3033
(lp6718
S'thing'
p6719
asI3034
(lp6720
sI3035
(lp6721
sI3036
(lp6722
sI3037
(lp6723
sI3038
(lp6724
Vpeople
p6725
asI3039
(lp6726
sI3040
(lp6727
sI3041
(lp6728
sI3042
(lp6729
Vglitches
p6730
aS'player'
p6731
asI3043
(lp6732
Vproblem
p6733
asI3044
(lp6734
Vdrive
p6735
aVpoints
p6736
asI3045
(lp6737
Vpreviews
p6738
aS'havent'
p6739
asI3046
(lp6740
sI3047
(lp6741
sI3048
(lp6742
Vroom
p6743
aS'ipod'
p6744
asI3049
(lp6745
Vcollection
p6746
aVplane
p6747
aS'trips'
p6748
asI3050
(lp6749
sI3051
(lp6750
Vfeatures
p6751
aVchair
p6752
asI3052
(lp6753
Vheadphones
p6754
asI3053
(lp6755
S'headphones'
p6756
asI3054
(lp6757
Vsettings
p6758
aVpreference
p6759
asI3055
(lp6760
Vartist
p6761
aS'album'
p6762
asI3056
(lp6763
Vbattery
p6764
aS'user'
p6765
aVadvantage
p6766
aS'price'
p6767
asI3057
(lp6768
Vsaver
p6769
aS'dell'
p6770
aS'batteries'
p6771
aS'bones'
p6772
aS'apple'
p6773
asI3058
(lp6774
Vvalue
p6775
aS'everyone'
p6776
aS'zen'
p6777
aVhardware
p6778
aS'interface'
p6779
aS'ipod'
p6780
asI3059
(lp6781
Vipod
p6782
aS'nomad'
p6783
asI3060
(lp6784
Vlook
p6785
aVplastic
p6786
asI3061
(lp6787
S'color'
p6788
asI3062
(lp6789
Vway
p6790
aVipod
p6791
asI3063
(lp6792
S'players'
p6793
aS'mp3'
p6794
asI3064
(lp6795
sI3065
(lp6796
sI3066
(lp6797
sI3067
(lp6798
sI3068
(lp6799
sI3069
(lp6800
Vquality
p6801
aVnormalization
p6802
aS'sound'
p6803
asI3070
(lp6804
Vearphones
p6805
asI3071
(lp6806
S'playlist'
p6807
aS'etc'
p6808
aS'song'
p6809
asI3072
(lp6810
sI3073
(lp6811
sI3074
(lp6812
Vsoftware
p6813
asI3075
(lp6814
sI3076
(lp6815
Vsoftware
p6816
asI3077
(lp6817
S'cover'
p6818
asI3078
(lp6819
sI3079
(lp6820
sI3080
(lp6821
Vlife
p6822
aS'sound'
p6823
aS'rate'
p6824
aVbattery
p6825
aVscreen
p6826
aVprice
p6827
aS'size'
p6828
aS'updates'
p6829
asI3081
(lp6830
sI3082
(lp6831
Vwarranty
p6832
aVfreeze
p6833
aVnavigation
p6834
asI3083
(lp6835
sI3084
(lp6836
Vsoftware
p6837
asI3085
(lp6838
Vdrag
p6839
aVcase
p6840
aS'manager'
p6841
aS'notmad'
p6842
asI3086
(lp6843
Vplayer
p6844
asI3087
(lp6845
Vpart
p6846
aVmonster
p6847
asI3088
(lp6848
Vdetail
p6849
asI3089
(lp6850
sI3090
(lp6851
S'imo'
p6852
aVsize
p6853
aS'design'
p6854
asI3091
(lp6855
S'size'
p6856
aVinch
p6857
aS'people'
p6858
asI3092
(lp6859
Vfeel
p6860
asI3093
(lp6861
sI3094
(lp6862
S'wheel'
p6863
aVnudge
p6864
asI3095
(lp6865
sI3096
(lp6866
Vbeef
p6867
asI3097
(lp6868
sI3098
(lp6869
sI3099
(lp6870
Vthings
p6871
aVlevels
p6872
asI3100
(lp6873
sI3101
(lp6874
sI3102
(lp6875
S'songs'
p6876
aVplayer
p6877
asI3103
(lp6878
sI3104
(lp6879
Vmusic
p6880
asI3105
(lp6881
Vartist
p6882
aS'album'
p6883
aS'search'
p6884
asI3106
(lp6885
Vbonus
p6886
aS'playlists'
p6887
asI3107
(lp6888
Vthing
p6889
asI3108
(lp6890
sI3109
(lp6891
Vsoftware
p6892
aS'notmad'
p6893
asI3110
(lp6894
sI3111
(lp6895
S'editing'
p6896
aS'tag'
p6897
aS'id3'
p6898
asI3112
(lp6899
sI3113
(lp6900
Vplayer
p6901
aVdrive
p6902
aVaccessory
p6903
asI3114
(lp6904
Vsoftware
p6905
aS'design'
p6906
asI3115
(lp6907
S'havoc'
p6908
aS'nothing'
p6909
aS'wheel'
p6910
aS'scroll'
p6911
asI3116
(lp6912
Vcustomer
p6913
asI3117
(lp6914
Vpiece
p6915
asI3118
(lp6916
sI3119
(lp6917
sI3120
(lp6918
sI3121
(lp6919
S'songs'
p6920
aS'idea'
p6921
aS'service'
p6922
asI3122
(lp6923
sI3123
(lp6924
sI3124
(lp6925
Vcare
p6926
aVwarranty
p6927
asI3125
(lp6928
sI3126
(lp6929
S'software'
p6930
aS'driver'
p6931
aS'products'
p6932
asI3127
(lp6933
sI3128
(lp6934
sI3129
(lp6935
Vflaw
p6936
asI3130
(lp6937
sI3131
(lp6938
Vpeople
p6939
aVstuff
p6940
aS'jack'
p6941
asI3132
(lp6942
Vdrive
p6943
asI3133
(lp6944
S'zen'
p6945
asI3134
(lp6946
sI3135
(lp6947
sI3136
(lp6948
Vdrive
p6949
asI3137
(lp6950
sI3138
(lp6951
S'anything'
p6952
asI3139
(lp6953
Vthing
p6954
aVprocess
p6955
asI3140
(lp6956
sI3141
(lp6957
sI3142
(lp6958
Vpeople
p6959
aS'bull'
p6960
asI3143
(lp6961
Vpeople
p6962
asI3144
(lp6963
S'doesnt'
p6964
aS'player'
p6965
asI3145
(lp6966
Vplayers
p6967
asI3146
(lp6968
sI3147
(lp6969
sI3148
(lp6970
S'nomad'
p6971
asI3149
(lp6972
Vway
p6973
asI3150
(lp6974
Vuse
p6975
asI3151
(lp6976
sI3152
(lp6977
S'reviews'
p6978
asI3153
(lp6979
sI3154
(lp6980
sI3155
(lp6981
sI3156
(lp6982
Vquality
p6983
asI3157
(lp6984
sI3158
(lp6985
Vcapacity
p6986
aS'owners'
p6987
aS'hundreds'
p6988
asI3159
(lp6989
sI3160
(lp6990
sI3161
(lp6991
sI3162
(lp6992
sI3163
(lp6993
sI3164
(lp6994
sI3165
(lp6995
S'nomad'
p6996
aVlabs
p6997
asI3166
(lp6998
sI3167
(lp6999
sI3168
(lp7000
sI3169
(lp7001
S'level'
p7002
asI3170
(lp7003
Vpeople
p7004
aVuse
p7005
asI3171
(lp7006
Vproblem
p7007
aS'jack'
p7008
asI3172
(lp7009
Vthing
p7010
aS'access'
p7011
aVcover
p7012
asI3173
(lp7013
S'jack'
p7014
aS'headphone'
p7015
asI3174
(lp7016
S'owner'
p7017
aS'damage'
p7018
asI3175
(lp7019
S'stores'
p7020
aS'days'
p7021
asI3176
(lp7022
Vnomad
p7023
asI3177
(lp7024
sI3178
(lp7025
sI3179
(lp7026
Vpaperweight
p7027
asI3180
(lp7028
Voptions
p7029
asI3181
(lp7030
sI3182
(lp7031
sI3183
(lp7032
Vdesign
p7033
aVcustomers
p7034
asI3184
(lp7035
Vproducts
p7036
aS'competitors'
p7037
asI3185
(lp7038
sI3186
(lp7039
sI3187
(lp7040
sI3188
(lp7041
sI3189
(lp7042
sI3190
(lp7043
Vday
p7044
asI3191
(lp7045
sI3192
(lp7046
sI3193
(lp7047
sI3194
(lp7048
S'couple'
p7049
asI3195
(lp7050
sI3196
(lp7051
S'nomad'
p7052
aS'jukebox'
p7053
aS'gig'
p7054
asI3197
(lp7055
sI3198
(lp7056
sI3199
(lp7057
Vzen
p7058
asI3200
(lp7059
Vdrive
p7060
asI3201
(lp7061
Vdrive
p7062
aVplayer
p7063
aS'mp3'
p7064
aS'problem'
p7065
asI3202
(lp7066
Vwarranty
p7067
asI3203
(lp7068
sI3204
(lp7069
sI3205
(lp7070
Vfit
p7071
asI3206
(lp7072
S'player'
p7073
aS'audio'
p7074
aS'dvd'
p7075
aS'apex'
p7076
asI3207
(lp7077
S'audio'
p7078
aS'video'
p7079
asI3208
(lp7080
S'player'
p7081
aS'ideas'
p7082
aS'waste'
p7083
aS'apex'
p7084
aS'tech'
p7085
asI3209
(lp7086
sI3210
(lp7087
Vcontrol
p7088
asI3211
(lp7089
sI3212
(lp7090
Vcontrol
p7091
aVcorner
p7092
asI3213
(lp7093
S'display'
p7094
aS'button'
p7095
asI3214
(lp7096
S'picture'
p7097
aS'doesnt'
p7098
asI3215
(lp7099
S'video'
p7100
asI3216
(lp7101
sI3217
(lp7102
Vcontrol
p7103
asI3218
(lp7104
Vcorner
p7105
asI3219
(lp7106
S'signal'
p7107
aS'players'
p7108
aS'video'
p7109
aS'output'
p7110
aS'dvd'
p7111
aS'button'
p7112
aS'ntsc'
p7113
aVpal
p7114
asI3220
(lp7115
Vpicture
p7116
asI3221
(lp7117
Vproblems
p7118
asI3222
(lp7119
S'dvd'
p7120
aS'apex'
p7121
asI3223
(lp7122
sI3224
(lp7123
Vperson
p7124
asI3225
(lp7125
Vscreen
p7126
asI3226
(lp7127
sI3227
(lp7128
S'everything'
p7129
asI3228
(lp7130
Vsound
p7131
asI3229
(lp7132
Vinvestment
p7133
asI3230
(lp7134
sI3231
(lp7135
sI3232
(lp7136
sI3233
(lp7137
Vlayout
p7138
aVset
p7139
aS'button'
p7140
aS'panel'
p7141
asI3234
(lp7142
Vwork
p7143
aVmodels
p7144
asI3235
(lp7145
S'formats'
p7146
aS'video'
p7147
asI3236
(lp7148
sI3237
(lp7149
sI3238
(lp7150
Vreviewers
p7151
asI3239
(lp7152
S'fill'
p7153
asI3240
(lp7154
sI3241
(lp7155
Vfeature
p7156
asI3242
(lp7157
Vlot
p7158
aVcomputer
p7159
aS'mp3s'
p7160
asI3243
(lp7161
Vthing
p7162
aS'unit'
p7163
aVoutputs
p7164
asI3244
(lp7165
Vcable
p7166
asI3245
(lp7167
S'mp3s'
p7168
aVspeed
p7169
asI3246
(lp7170
Vfeature
p7171
asI3247
(lp7172
Vcontrol
p7173
aVnames
p7174
aVsize
p7175
aS'way'
p7176
aVfeel
p7177
aS'layout'
p7178
aS'filenames'
p7179
asI3248
(lp7180
Vfeature
p7181
aS'hunter'
p7182
asI3249
(lp7183
sI3250
(lp7184
Vplay
p7185
asI3251
(lp7186
Vformat
p7187
asI3252
(lp7188
S'problem'
p7189
aS'player'
p7190
aVdvd
p7191
aS'layer'
p7192
asI3253
(lp7193
Vplayer
p7194
asI3254
(lp7195
sI3255
(lp7196
Vquality
p7197
aS'players'
p7198
asI3256
(lp7199
sI3257
(lp7200
S'service'
p7201
aS'support'
p7202
aS'willingness'
p7203
aVproducts
p7204
asI3258
(lp7205
Vproduct
p7206
asI3259
(lp7207
Vplayer
p7208
aS'format'
p7209
aVcase
p7210
asI3260
(lp7211
sI3261
(lp7212
Vcds
p7213
asI3262
(lp7214
S'media'
p7215
aS'apex'
p7216
asI3263
(lp7217
Vridges
p7218
asI3264
(lp7219
sI3265
(lp7220
sI3266
(lp7221
sI3267
(lp7222
S'phone'
p7223
aS'apex'
p7224
asI3268
(lp7225
sI3269
(lp7226
S'service'
p7227
aS'way'
p7228
asI3270
(lp7229
Vquality
p7230
asI3271
(lp7231
Vreviews
p7232
aVvalue
p7233
aVsites
p7234
asI3272
(lp7235
sI3273
(lp7236
sI3274
(lp7237
sI3275
(lp7238
sI3276
(lp7239
sI3277
(lp7240
Vvalue
p7241
aS'tv'
p7242
aS'apex'
p7243
aS'dad'
p7244
asI3278
(lp7245
Vpicture
p7246
aS'quality'
p7247
aS'features'
p7248
asI3279
(lp7249
sI3280
(lp7250
S'dvd'
p7251
aS'apex'
p7252
asI3281
(lp7253
sI3282
(lp7254
sI3283
(lp7255
Vmachines
p7256
asI3284
(lp7257
S'weeks'
p7258
aS'item'
p7259
asI3285
(lp7260
sI3286
(lp7261
S'months'
p7262
aS'return'
p7263
asI3287
(lp7264
sI3288
(lp7265
sI3289
(lp7266
Vtype
p7267
asI3290
(lp7268
sI3291
(lp7269
S'anything'
p7270
asI3292
(lp7271
sI3293
(lp7272
Vperformer
p7273
aS'apex'
p7274
asI3294
(lp7275
Vproblems
p7276
asI3295
(lp7277
sI3296
(lp7278
Vsmell
p7279
asI3297
(lp7280
Vthing
p7281
asI3298
(lp7282
Vissue
p7283
asI3299
(lp7284
Vreasons
p7285
asI3300
(lp7286
sI3301
(lp7287
Vdisk
p7288
aS'slideshows'
p7289
aS'model'
p7290
aS'data'
p7291
aS'r'
aVartist
p7292
asI3302
(lp7293
Vbuttons
p7294
asI3303
(lp7295
Vpause
p7296
aS'stop'
p7297
aS'buttons'
p7298
asI3304
(lp7299
sI3305
(lp7300
S'information'
p7301
asI3306
(lp7302
sI3307
(lp7303
Vtime
p7304
aVgear
p7305
asI3308
(lp7306
Vfeature
p7307
asI3309
(lp7308
sI3310
(lp7309
S'trouble'
p7310
aS'people'
p7311
aS'player'
p7312
aS'dvd'
p7313
asI3311
(lp7314
Vsupport
p7315
aS'sale'
p7316
aS'problems'
p7317
aS'companies'
p7318
asI3312
(lp7319
sI3313
(lp7320
sI3314
(lp7321
S'matter'
p7322
asI3315
(lp7323
sI3316
(lp7324
Vinput2
p7325
aS'help'
p7326
aVinput1
p7327
asI3317
(lp7328
sI3318
(lp7329
sI3319
(lp7330
S'service'
p7331
aS'rep'
p7332
asI3320
(lp7333
Vthing
p7334
aS'service'
p7335
aS'customer'
p7336
aS'electricity'
p7337
aVburning
p7338
asI3321
(lp7339
Vquality
p7340
aS'something'
p7341
aS'money'
p7342
asI3322
(lp7343
Vrating
p7344
asI3323
(lp7345
sI3324
(lp7346
S'lot'
p7347
asI3325
(lp7348
Vcustomers
p7349
asI3326
(lp7350
S'movies'
p7351
aVplay
p7352
aS'today'
p7353
asI3327
(lp7354
sI3328
(lp7355
sI3329
(lp7356
Vfavor
p7357
asI3330
(lp7358
sI3331
(lp7359
sI3332
(lp7360
sI3333
(lp7361
sI3334
(lp7362
sI3335
(lp7363
sI3336
(lp7364
S'return'
p7365
aS'day'
p7366
asI3337
(lp7367
Vexperience
p7368
asI3338
(lp7369
S'player'
p7370
asI3339
(lp7371
Vproblems
p7372
aVfeatures
p7373
aS'dvd'
p7374
aS'player'
p7375
aS'time'
p7376
asI3340
(lp7377
Vdvd
p7378
asI3341
(lp7379
S'telephone'
p7380
aS'support'
p7381
aS'web'
p7382
aS'customer'
p7383
asI3342
(lp7384
sI3343
(lp7385
sI3344
(lp7386
sI3345
(lp7387
sI3346
(lp7388
Vepisodes
p7389
asI3347
(lp7390
sI3348
(lp7391
S'ps2'
p7392
aS'everything'
p7393
aS'player'
p7394
aS'dvds'
p7395
asI3349
(lp7396
sI3350
(lp7397
S'night'
p7398
asI3351
(lp7399
Vcds
p7400
asI3352
(lp7401
sI3353
(lp7402
Vsound
p7403
aS'picture'
p7404
asI3354
(lp7405
sI3355
(lp7406
sI3356
(lp7407
Vreturn
p7408
asI3357
(lp7409
S'amazon'
p7410
aVapex
p7411
asI3358
(lp7412
sI3359
(lp7413
sI3360
(lp7414
S'dvd'
p7415
aS'apex'
p7416
aVplayers
p7417
aS'none'
p7418
aVremotes
p7419
asI3361
(lp7420
Vreplacement
p7421
aVplayer
p7422
asI3362
(lp7423
sI3363
(lp7424
Vones
p7425
aS'play'
p7426
asI3364
(lp7427
sI3365
(lp7428
S'months'
p7429
asI3366
(lp7430
Vnumber
p7431
aVhassle
p7432
aVline
p7433
aS'dept'
p7434
asI3367
(lp7435
sI3368
(lp7436
sI3369
(lp7437
sI3370
(lp7438
S'months'
p7439
aS'anything'
p7440
aVuse
p7441
asI3371
(lp7442
sI3372
(lp7443
sI3373
(lp7444
Vpanasonics
p7445
aS'toshibas'
p7446
aS'sonys'
p7447
asI3374
(lp7448
sI3375
(lp7449
Vscenes
p7450
asI3376
(lp7451
S'crap'
p7452
asI3377
(lp7453
sI3378
(lp7454
sI3379
(lp7455
Vsignals
p7456
aVmoment
p7457
aS'pictures'
p7458
aS'tv'
p7459
asI3380
(lp7460
Vthing
p7461
asI3381
(lp7462
Vsettings
p7463
aS'color'
p7464
aVpictures
p7465
asI3382
(lp7466
Vfeeling
p7467
asI3383
(lp7468
sI3384
(lp7469
Vunit
p7470
asI3385
(lp7471
S'unit'
p7472
aVboard
p7473
asI3386
(lp7474
sI3387
(lp7475
Vcondition
p7476
asI3388
(lp7477
sI3389
(lp7478
sI3390
(lp7479
sI3391
(lp7480
Vmpeg2
p7481
aS'videos'
p7482
aS'feature'
p7483
aS'cdr'
p7484
aS'dvdr'
p7485
asI3392
(lp7486
S'baby'
p7487
aVdivx
p7488
aS'videos'
p7489
aS'features'
p7490
asI3393
(lp7491
sI3394
(lp7492
Vnames
p7493
aVfeatures
p7494
aS'player'
p7495
aVsony
p7496
asI3395
(lp7497
Vplayer
p7498
asI3396
(lp7499
sI3397
(lp7500
sI3398
(lp7501
sI3399
(lp7502
sI3400
(lp7503
sI3401
(lp7504
Vdvd
p7505
asI3402
(lp7506
sI3403
(lp7507
Vthing
p7508
aVfile
p7509
aVmp3
p7510
aS'cds'
p7511
aS'jpeg'
p7512
aS'kodak'
p7513
aS'picture'
p7514
asI3404
(lp7515
S'video'
p7516
aVfeature
p7517
asI3405
(lp7518
Vfeature
p7519
asI3406
(lp7520
sI3407
(lp7521
Vfeatures
p7522
aS'machines'
p7523
asI3408
(lp7524
sI3409
(lp7525
Vprofile
p7526
aS'space'
p7527
asI3410
(lp7528
Vbuy
p7529
asI3411
(lp7530
Vplayer
p7531
asI3412
(lp7532
sI3413
(lp7533
sI3414
(lp7534
S'dvd'
p7535
aS'apex'
p7536
asI3415
(lp7537
sI3416
(lp7538
sI3417
(lp7539
Vbucks
p7540
asI3418
(lp7541
Vripper
p7542
aS'format'
p7543
aS'player'
p7544
asI3419
(lp7545
Vjob
p7546
aS'image'
p7547
aS'feature'
p7548
asI3420
(lp7549
Vdesign
p7550
asI3421
(lp7551
S'half'
p7552
aS'unit'
p7553
asI3422
(lp7554
sI3423
(lp7555
S'ups'
p7556
asI3424
(lp7557
sI3425
(lp7558
sI3426
(lp7559
sI3427
(lp7560
sI3428
(lp7561
sI3429
(lp7562
Vdvd
p7563
aVcd
p7564
aS'r'
asI3430
(lp7565
Vdisks
p7566
asI3431
(lp7567
sI3432
(lp7568
S'movie'
p7569
aS'type'
p7570
aVbuttons
p7571
asI3433
(lp7572
S'instructions'
p7573
asI3434
(lp7574
sI3435
(lp7575
sI3436
(lp7576
sI3437
(lp7577
sI3438
(lp7578
S'hook'
p7579
aVuse
p7580
asI3439
(lp7581
S'outputs'
p7582
aS'video'
p7583
aS'output'
p7584
aVcable
p7585
asI3440
(lp7586
S'option'
p7587
aVcontrol
p7588
aVcontrols
p7589
asI3441
(lp7590
sI3442
(lp7591
Vdifference
p7592
aS'models'
p7593
asI3443
(lp7594
sI3444
(lp7595
S'friends'
p7596
aS'tv'
p7597
aS'apex'
p7598
asI3445
(lp7599
sI3446
(lp7600
Vgift
p7601
asI3447
(lp7602
sI3448
(lp7603
sI3449
(lp7604
sI3450
(lp7605
sI3451
(lp7606
sI3452
(lp7607
sI3453
(lp7608
sI3454
(lp7609
S'run'
p7610
asI3455
(lp7611
sI3456
(lp7612
Vsony
p7613
aS'toshiba'
p7614
asI3457
(lp7615
sI3458
(lp7616
Vplayer
p7617
asI3459
(lp7618
S'quality'
p7619
aVfunction
p7620
aS'image'
p7621
aS'one'
p7622
aS'dvd'
p7623
asI3460
(lp7624
Vsetting
p7625
aVmode
p7626
asI3461
(lp7627
S'player'
p7628
asI3462
(lp7629
S'panasonic'
p7630
aVsony
p7631
asI3463
(lp7632
sI3464
(lp7633
sI3465
(lp7634
sI3466
(lp7635
Vdisney
p7636
aVmessage
p7637
aS'movies'
p7638
aS'disc'
p7639
aS'dvd'
p7640
asI3467
(lp7641
Vad2600
p7642
asI3468
(lp7643
Vproblem
p7644
aVmovies
p7645
aVplayer
p7646
aS'customer'
p7647
aS'apex'
p7648
aVdisney
p7649
aS'kids'
p7650
asI3469
(lp7651
Vplayer
p7652
asI3470
(lp7653
S'dvd'
p7654
aS'apex'
p7655
asI3471
(lp7656
Vvcd
p7657
aVplayer
p7658
aS'media'
p7659
aS'dvd'
p7660
asI3472
(lp7661
Vjpeg
p7662
aS'mp3'
p7663
aS'files'
p7664
aS'rs'
p7665
asI3473
(lp7666
S'media'
p7667
aS'/'
asI3474
(lp7668
Vexpectations
p7669
aVplayer
p7670
aS'end'
p7671
aVprice
p7672
asI3475
(lp7673
sI3476
(lp7674
Vunit
p7675
asI3477
(lp7676
sI3478
(lp7677
Vfactor
p7678
aVlook
p7679
aS'player'
p7680
asI3479
(lp7681
Vthing
p7682
asI3480
(lp7683
Vshipping
p7684
aS'days'
p7685
asI3481
(lp7686
sI3482
(lp7687
sI3483
(lp7688
S'weeks'
p7689
aS'video'
p7690
asI3484
(lp7691
S'replacement'
p7692
asI3485
(lp7693
sI3486
(lp7694
S'times'
p7695
aS'emails'
p7696
asI3487
(lp7697
Vproduct
p7698
asI3488
(lp7699
Vplayer
p7700
aVpart
p7701
asI3489
(lp7702
S'movie'
p7703
aS'picture'
p7704
asI3490
(lp7705
sI3491
(lp7706
sI3492
(lp7707
S'yesterday'
p7708
aVmonth
p7709
asI3493
(lp7710
S'analog'
p7711
aVvideo
p7712
aS'outputs'
p7713
aS'audio'
p7714
asI3494
(lp7715
Vpicture
p7716
aS'sound'
p7717
asI3495
(lp7718
sI3496
(lp7719
Vconnections
p7720
asI3497
(lp7721
Vcontrol
p7722
asI3498
(lp7723
S'player'
p7724
aS'mode'
p7725
asI3499
(lp7726
Vsignals
p7727
aS'audio'
p7728
aS'analog'
p7729
aVoutput
p7730
aVmode
p7731
asI3500
(lp7732
sI3501
(lp7733
Vmanual
p7734
asI3502
(lp7735
Vbutton
p7736
aS'pal'
p7737
aS'video'
p7738
aS'p/n'
p7739
aS'i/p'
p7740
aVntsc
p7741
asI3503
(lp7742
Vmove
p7743
asI3504
(lp7744
sI3505
(lp7745
Vunit
p7746
aVone
p7747
asI3506
(lp7748
Vsignal
p7749
aS'day'
p7750
aS'times'
p7751
asI3507
(lp7752
S'support'
p7753
aS'apex'
p7754
asI3508
(lp7755
S'message'
p7756
asI3509
(lp7757
S'info'
p7758
aVmessages
p7759
asI3510
(lp7760
S'tv'
p7761
aS'players'
p7762
aS'dvd'
p7763
asI3511
(lp7764
S'replacement'
p7765
asI3512
(lp7766
sI3513
(lp7767
sI3514
(lp7768
sI3515
(lp7769
sI3516
(lp7770
Vprice
p7771
aVmanufacturers
p7772
aVtoshiba
p7773
aS'pioneer'
p7774
aS'panasonic'
p7775
aS'player'
p7776
aVplayers
p7777
asI3517
(lp7778
Vdisc
p7779
aS'noise'
p7780
asI3518
(lp7781
Vtrouble
p7782
asI3519
(lp7783
S'output'
p7784
asI3520
(lp7785
sI3521
(lp7786
Vplayers
p7787
aS'discs'
p7788
asI3522
(lp7789
S'display'
p7790
asI3523
(lp7791
Vgripe
p7792
aVunits
p7793
asI3524
(lp7794
S'button'
p7795
aS'navigation'
p7796
aS'play'
p7797
asI3525
(lp7798
sI3526
(lp7799
Vdifference
p7800
asI3527
(lp7801
sI3528
(lp7802
S'mine'
p7803
aS'right'
p7804
asI3529
(lp7805
sI3530
(lp7806
Vfeatures
p7807
asI3531
(lp7808
Vchrome
p7809
asI3532
(lp7810
sI3533
(lp7811
sI3534
(lp7812
S'everything'
p7813
aS'thing'
p7814
asI3535
(lp7815
sI3536
(lp7816
sI3537
(lp7817
sI3538
(lp7818
Vfeatures
p7819
asI3539
(lp7820
Vdisc
p7821
aS'r'
aVplayers
p7822
aS'problem'
p7823
aS'burner'
p7824
aVanything
p7825
asI3540
(lp7826
Vfactor
p7827
asI3541
(lp7828
sI3542
(lp7829
Vstars
p7830
asI3543
(lp7831
sI3544
(lp7832
Vtoday
p7833
asI3545
(lp7834
Vproduct
p7835
aVfeatures
p7836
asI3546
(lp7837
sI3547
(lp7838
sI3548
(lp7839
Vones
p7840
aS'thing'
p7841
asI3549
(lp7842
sI3550
(lp7843
sI3551
(lp7844
sI3552
(lp7845
sI3553
(lp7846
sI3554
(lp7847
Vproducts
p7848
asI3555
(lp7849
Vproduct
p7850
asI3556
(lp7851
sI3557
(lp7852
sI3558
(lp7853
Vtvs
p7854
aS'methods'
p7855
aS'signal'
p7856
asI3559
(lp7857
sI3560
(lp7858
Vproblems
p7859
asI3561
(lp7860
sI3562
(lp7861
S'light'
p7862
aVdisplay
p7863
aS'operation'
p7864
asI3563
(lp7865
sI3564
(lp7866
sI3565
(lp7867
sI3566
(lp7868
S'service'
p7869
aS'customer'
p7870
asI3567
(lp7871
sI3568
(lp7872
sI3569
(lp7873
sI3570
(lp7874
sI3571
(lp7875
sI3572
(lp7876
S'purchase'
p7877
aS'player'
p7878
asI3573
(lp7879
S'disk'
p7880
asI3574
(lp7881
sI3575
(lp7882
sI3576
(lp7883
sI3577
(lp7884
sI3578
(lp7885
sI3579
(lp7886
sI3580
(lp7887
Vsound
p7888
aS'picture'
p7889
asI3581
(lp7890
S'service'
p7891
asI3582
(lp7892
Vcontact
p7893
aS'phone'
p7894
asI3583
(lp7895
Vprice
p7896
asI3584
(lp7897
sI3585
(lp7898
sI3586
(lp7899
sI3587
(lp7900
sI3588
(lp7901
sI3589
(lp7902
sI3590
(lp7903
sI3591
(lp7904
S'appearance'
p7905
asI3592
(lp7906
sI3593
(lp7907
Vability
p7908
asI3594
(lp7909
sI3595
(lp7910
sI3596
(lp7911
sI3597
(lp7912
Vburning
p7913
aS'smell'
p7914
asI3598
(lp7915
sI3599
(lp7916
sI3600
(lp7917
sI3601
(lp7918
Vpar
p7919
aVpioneer
p7920
aS'panasonic'
p7921
aS'players'
p7922
asI3602
(lp7923
sI3603
(lp7924
sI3604
(lp7925
S'impression'
p7926
aS'apex'
p7927
asI3605
(lp7928
Vuse
p7929
asI3606
(lp7930
Vpioneer
p7931
aS'rest'
p7932
aS'play'
p7933
asI3607
(lp7934
sI3608
(lp7935
Vpeople
p7936
aVcondition
p7937
asI3609
(lp7938
Vdesign
p7939
aS'player'
p7940
asI3610
(lp7941
Vdvds
p7942
asI3611
(lp7943
Vpirates
p7944
aS'player'
p7945
asI3612
(lp7946
sI3613
(lp7947
S'player'
p7948
asI3614
(lp7949
Vfeatures
p7950
asI3615
(lp7951
sI3616
(lp7952
Vplayer
p7953
asI3617
(lp7954
sI3618
(lp7955
sI3619
(lp7956
sI3620
(lp7957
sI3621
(lp7958
sI3622
(lp7959
Vr/rw
p7960
aVsony
p7961
asI3623
(lp7962
Vplayer
p7963
aS'apex'
p7964
asI3624
(lp7965
sI3625
(lp7966
sI3626
(lp7967
sI3627
(lp7968
sI3628
(lp7969
sI3629
(lp7970
sI3630
(lp7971
Vplayer
p7972
aVyears
p7973
asI3631
(lp7974
Vtechnologies
p7975
asI3632
(lp7976
S'theater'
p7977
aS'home'
p7978
asI3633
(lp7979
Vcase
p7980
asI3634
(lp7981
sI3635
(lp7982
sI3636
(lp7983
S'brand'
p7984
aS'dvd'
p7985
aS'name'
p7986
asI3637
(lp7987
sI3638
(lp7988
sI3639
(lp7989
S'video'
p7990
aS'weeks'
p7991
asI3640
(lp7992
sI3641
(lp7993
Vmachine
p7994
asI3642
(lp7995
S'lot'
p7996
aVusage
p7997
asI3643
(lp7998
S'fine'
p7999
asI3644
(lp8000
sI3645
(lp8001
sI3646
(lp8002
S'movies'
p8003
asI3647
(lp8004
Vdeal
p8005
asI3648
(lp8006
S'features'
p8007
asI3649
(lp8008
Vplayer
p8009
aVproblem
p8010
asI3650
(lp8011
sI3651
(lp8012
sI3652
(lp8013
sI3653
(lp8014
sI3654
(lp8015
sI3655
(lp8016
sI3656
(lp8017
Vdvd
p8018
aS'picture'
p8019
asI3657
(lp8020
sI3658
(lp8021
Vscreen
p8022
asI3659
(lp8023
sI3660
(lp8024
S'reviews'
p8025
asI3661
(lp8026
sI3662
(lp8027
S'workin'
p8028
aS'output'
p8029
asI3663
(lp8030
Vplayer
p8031
aS'output'
p8032
aS'video'
p8033
asI3664
(lp8034
S'output'
p8035
asI3665
(lp8036
sI3666
(lp8037
sI3667
(lp8038
S'dvd'
p8039
aS'apex'
p8040
asI3668
(lp8041
sI3669
(lp8042
S'lips'
p8043
aS'issue'
p8044
asI3670
(lp8045
S'sound'
p8046
aS'video'
p8047
asI3671
(lp8048
sI3672
(lp8049
sI3673
(lp8050
sI3674
(lp8051
sI3675
(lp8052
sI3676
(lp8053
Vreview
p8054
asI3677
(lp8055
Vlist
p8056
aVreliability
p8057
asI3678
(lp8058
S'connections'
p8059
asI3679
(lp8060
S'shipping'
p8061
aS'amazon'
p8062
asI3680
(lp8063
S'plate'
p8064
aS'mine'
p8065
aS'display'
p8066
asI3681
(lp8067
sI3682
(lp8068
sI3683
(lp8069
sI3684
(lp8070
sI3685
(lp8071
Vreviews
p8072
asI3686
(lp8073
Vtime
p8074
asI3687
(lp8075
Vcontrol
p8076
aVtimes
p8077
asI3688
(lp8078
sI3689
(lp8079
S'everything'
p8080
asI3690
(lp8081
sI3691
(lp8082
sI3692
(lp8083
S'features'
p8084
asI3693
(lp8085
S'dvds'
p8086
asI3694
(lp8087
sI3695
(lp8088
sI3696
(lp8089
sI3697
(lp8090
sI3698
(lp8091
sI3699
(lp8092
sI3700
(lp8093
Vlooks
p8094
aVdvds
p8095
asI3701
(lp8096
S'everything'
p8097
asI3702
(lp8098
sI3703
(lp8099
S'everything'
p8100
asI3704
(lp8101
Vwatch
p8102
asI3705
(lp8103
sI3706
(lp8104
sI3707
(lp8105
sI3708
(lp8106
sI3709
(lp8107
sI3710
(lp8108
Vbuy
p8109
asI3711
(lp8110
S'player'
p8111
asI3712
(lp8112
Vdvds
p8113
asI3713
(lp8114
S'disk'
p8115
aS'display'
p8116
asI3714
(lp8117
sI3715
(lp8118
S'disk'
p8119
asI3716
(lp8120
sI3717
(lp8121
sI3718
(lp8122
sI3719
(lp8123
sI3720
(lp8124
S'motor'
p8125
aS'discs'
p8126
asI3721
(lp8127
sI3722
(lp8128
S'didn'
p8129
asI3723
(lp8130
Vdisdain
p8131
asI3724
(lp8132
Vsupply
p8133
aS'power'
p8134
aS'player'
p8135
asI3725
(lp8136
sI3726
(lp8137
Vplayer
p8138
aVdrive
p8139
aVinterface
p8140
aS'ide'
p8141
asI3727
(lp8142
sI3728
(lp8143
sI3729
(lp8144
sI3730
(lp8145
sI3731
(lp8146
sI3732
(lp8147
Vreputation
p8148
aS'cents'
p8149
aS'lack'
p8150
aS'testing'
p8151
aS'research'
p8152
asI3733
(lp8153
sI3734
(lp8154
sI3735
(lp8155
sI3736
(lp8156
Vplayer
p8157
asI3737
(lp8158
Vthing
p8159
asI3738
(lp8160
S'range'
p8161
asI3739
(lp8162
sI3740
(lp8163
S'name'
p8164
aS'brand'
p8165
aVbells
p8166
aS'whistles'
p8167
asI3741
(lp8168
sI3742
(lp8169
sI3743
(lp8170
S'something'
p8171
aVfeatures
p8172
aS'machine'
p8173
asI3744
(lp8174
sI3745
(lp8175
S'problems'
p8176
asI3746
(lp8177
S'gift'
p8178
aS'amazon'
p8179
asI3747
(lp8180
Vprice
p8181
asI3748
(lp8182
sI3749
(lp8183
sI3750
(lp8184
sI3751
(lp8185
sI3752
(lp8186
Vtoshiba
p8187
asI3753
(lp8188
Vposts
p8189
asI3754
(lp8190
Vstar
p8191
asI3755
(lp8192
Vquality
p8193
aS'player'
p8194
aS'weeks'
p8195
asI3756
(lp8196
sI3757
(lp8197
sI3758
(lp8198
sI3759
(lp8199
sI3760
(lp8200
Vnumber
p8201
asI3761
(lp8202
S'player'
p8203
aS'person'
p8204
asI3762
(lp8205
Vcompany
p8206
aS'today'
p8207
asI3763
(lp8208
sI3764
(lp8209
sI3765
(lp8210
sI3766
(lp8211
S'everything'
p8212
asI3767
(lp8213
S'stand'
p8214
asI3768
(lp8215
sI3769
(lp8216
Vrating
p8217
asI3770
(lp8218
Vwhistles
p8219
aS'bells'
p8220
asI3771
(lp8221
sI3772
(lp8222
sI3773
(lp8223
Vcommander
p8224
asI3774
(lp8225
Vproblem
p8226
asI3775
(lp8227
sI3776
(lp8228
sI3777
(lp8229
S'lot'
p8230
asI3778
(lp8231
sI3779
(lp8232
sI3780
(lp8233
sI3781
(lp8234
S'dissapointment'
p8235
asI3782
(lp8236
sI3783
(lp8237
Vadoo
p8238
asI3784
(lp8239
sI3785
(lp8240
Vworks
p8241
aVstanding
p8242
asI3786
(lp8243
Vunit
p8244
aS'play'
p8245
aS'seconds'
p8246
asI3787
(lp8247
S'photos'
p8248
aS'wow'
p8249
asI3788
(lp8250
Vcontrol
p8251
asI3789
(lp8252
sI3790
(lp8253
sI3791
(lp8254
sI3792
(lp8255
sI3793
(lp8256
S'fist'
p8257
aS'dvd'
p8258
asI3794
(lp8259
sI3795
(lp8260
sI3796
(lp8261
S'one'
p8262
asI3797
(lp8263
sI3798
(lp8264
S'phone'
p8265
asI3799
(lp8266
sI3800
(lp8267
sI3801
(lp8268
S'playback'
p8269
aS'dvd'
p8270
asI3802
(lp8271
Vplayers
p8272
asI3803
(lp8273
Vplayer
p8274
asI3804
(lp8275
sI3805
(lp8276
sI3806
(lp8277
Vdisc
p8278
asI3807
(lp8279
sI3808
(lp8280
sI3809
(lp8281
sI3810
(lp8282
S'cd'
p8283
aS'picture'
p8284
asI3811
(lp8285
sI3812
(lp8286
Vaddition
p8287
asI3813
(lp8288
Vplayer
p8289
asI3814
(lp8290
sI3815
(lp8291
sI3816
(lp8292
S'dvds'
p8293
asI3817
(lp8294
sI3818
(lp8295
sI3819
(lp8296
sI3820
(lp8297
sI3821
(lp8298
sI3822
(lp8299
sI3823
(lp8300
sI3824
(lp8301
Vfeeling
p8302
asI3825
(lp8303
sI3826
(lp8304
S'player'
p8305
aS'dvds'
p8306
asI3827
(lp8307
S'out'
p8308
asI3828
(lp8309
Vplayer
p8310
asI3829
(lp8311
Vreviews
p8312
aVplaces
p8313
asI3830
(lp8314
Vdisappointment
p8315
asI3831
(lp8316
sI3832
(lp8317
sI3833
(lp8318
Vspeed
p8319
aS'one'
p8320
asI3834
(lp8321
sI3835
(lp8322
S'door'
p8323
aS'time'
p8324
aS'top'
p8325
asI3836
(lp8326
Vsize
p8327
aS'layout'
p8328
asI3837
(lp8329
Vplayer
p8330
aS'vcr'
p8331
aS'combo'
p8332
aS'dvd'
p8333
aVgift
p8334
asI3838
(lp8335
Vplayer.for
p8336
asI3839
(lp8337
Vsomething
p8338
asI3840
(lp8339
Vplayer
p8340
asI3841
(lp8341
S'everything'
p8342
asI3842
(lp8343
S'machine'
p8344
aVdisplay
p8345
aS'tray'
p8346
aVdistance
p8347
aS'button'
p8348
asI3843
(lp8349
S'unit'
p8350
asI3844
(lp8351
Vdvd
p8352
asI3845
(lp8353
sI3846
(lp8354
sI3847
(lp8355
sI3848
(lp8356
sI3849
(lp8357
Vmenu
p8358
asI3850
(lp8359
S'dvd'
p8360
asI3851
(lp8361
Vscratch
p8362
asI3852
(lp8363
Vunit
p8364
aVthing
p8365
asI3853
(lp8366
sI3854
(lp8367
sI3855
(lp8368
sI3856
(lp8369
sI3857
(lp8370
Vprice
p8371
aS'reviews'
p8372
asI3858
(lp8373
sI3859
(lp8374
S'region'
p8375
asI3860
(lp8376
Vtimes
p8377
asI3861
(lp8378
Vbrand
p8379
asI3862
(lp8380
sI3863
(lp8381
sI3864
(lp8382
sI3865
(lp8383
sI3866
(lp8384
sI3867
(lp8385
Vcd
p8386
aVdvd
p8387
asI3868
(lp8388
sI3869
(lp8389
sI3870
(lp8390
sI3871
(lp8391
sI3872
(lp8392
Vscratches
p8393
aVplate
p8394
aS'something'
p8395
asI3873
(lp8396
sI3874
(lp8397
Vbuttons
p8398
asI3875
(lp8399
Vissues
p8400
asI3876
(lp8401
sI3877
(lp8402
sI3878
(lp8403
Vbrand
p8404
aS'apex'
p8405
aS'quality'
p8406
asI3879
(lp8407
sI3880
(lp8408
S'disc'
p8409
asI3881
(lp8410
sI3882
(lp8411
sI3883
(lp8412
Vreview
p8413
asI3884
(lp8414
Vcustomer
p8415
asI3885
(lp8416
sI3886
(lp8417
sI3887
(lp8418
sI3888
(lp8419
sI3889
(lp8420
sI3890
(lp8421
S'difficulty'
p8422
aS'trouble'
p8423
asI3891
(lp8424
Voccasions
p8425
aS'disc'
p8426
asI3892
(lp8427
Vreviews
p8428
asI3893
(lp8429
Vbrand
p8430
aS'apex'
p8431
aVreviews
p8432
aVhomework
p8433
asI3894
(lp8434
Vproblems
p8435
asI3895
(lp8436
sI3896
(lp8437
sI3897
(lp8438
S'ad2600'
p8439
aS'case'
p8440
asI3898
(lp8441
Vbait
p8442
aS'switch'
p8443
asI3899
(lp8444
S'picture'
p8445
aS'plate'
p8446
aS'play'
p8447
asI3900
(lp8448
sI3901
(lp8449
Vlawsuit
p8450
asI3902
(lp8451
sI3903
(lp8452
Vreviewers
p8453
asI3904
(lp8454
sI3905
(lp8455
S'dvds'
p8456
aS'cds'
p8457
aS'jpegs'
p8458
aVmp3s
p8459
asI3906
(lp8460
S'media'
p8461
asI3907
(lp8462
Vformats
p8463
aS'others'
p8464
asI3908
(lp8465
Vshipping
p8466
aVplayer
p8467
aS'tax'
p8468
asI3909
(lp8469
Vvideo
p8470
asI3910
(lp8471
Vrw
p8472
aS'vcd'
p8473
asI3911
(lp8474
S'rw'
p8475
aVmodel
p8476
aS'vcd'
p8477
asI3912
(lp8478
Vmachine
p8479
asI3913
(lp8480
sI3914
(lp8481
sI3915
(lp8482
Vbag
p8483
aS'price'
p8484
asI3916
(lp8485
sI3917
(lp8486
sI3918
(lp8487
S'quality'
p8488
aVnotch
p8489
aS'dts'
p8490
aVdiscs
p8491
aS'picture'
p8492
aS'sound'
p8493
aS'dd5.1'
p8494
asI3919
(lp8495
Vdollars
p8496
aVprice
p8497
asI3920
(lp8498
sI3921
(lp8499
Vplayer
p8500
aS'qulaity'
p8501
aS'dvd'
p8502
asI3922
(lp8503
sI3923
(lp8504
S'everything'
p8505
asI3924
(lp8506
Vformats
p8507
asI3925
(lp8508
Vproduct
p8509
aS'price'
p8510
asI3926
(lp8511
Vdirections
p8512
asI3927
(lp8513
S'things'
p8514
asI3928
(lp8515
Vproblem
p8516
aS'breath'
p8517
asI3929
(lp8518
sI3930
(lp8519
sI3931
(lp8520
sI3932
(lp8521
Vtouch
p8522
aS'color'
p8523
asI3933
(lp8524
Vslots
p8525
asI3934
(lp8526
sI3935
(lp8527
sI3936
(lp8528
Vbrands
p8529
asI3937
(lp8530
sI3938
(lp8531
Vload
p8532
asI3939
(lp8533
sI3940
(lp8534
sI3941
(lp8535
S'player'
p8536
asI3942
(lp8537
Vw
aS'dvds'
p8538
asI3943
(lp8539
sI3944
(lp8540
s.