(dp1
I0
(lp2
sI1
(lp3
S'past'
p4
asI2
(lp5
sI3
(lp6
S'green'
p7
asI4
(lp8
sI5
(lp9
S'few'
p10
asI6
(lp11
S'possible'
p12
aS'super'
p13
asI7
(lp14
S'larger'
p15
asI8
(lp16
Vflexible
p17
aS'powerful'
p18
aS'easy'
p19
aS'external'
p20
asI9
(lp21
S'excellent'
p22
asI10
(lp23
S'great'
p24
asI11
(lp25
sI12
(lp26
S'digital'
p27
asI13
(lp28
S'digital'
p29
aS'worth'
p30
aS'technical'
p31
aS'single'
p32
asI14
(lp33
S'little'
p34
aS'full'
p35
asI15
(lp36
sI16
(lp37
S'different'
p38
asI17
(lp39
S'bigger'
p40
asI18
(lp41
S'great'
p42
asI19
(lp43
S'good'
p44
asI20
(lp45
sI21
(lp46
S'main'
p47
asI22
(lp48
S'visible'
p49
aS'optical'
p50
asI23
(lp51
S'optical'
p52
aS'hard'
p53
asI24
(lp54
sI25
(lp55
S'extensive'
p56
aS'different'
p57
asI26
(lp58
S'online'
p59
aS'complete'
p60
aS'exhaustive'
p61
aS'great'
p62
aS'high'
p63
asI27
(lp64
sI28
(lp65
sI29
(lp66
S'great'
p67
aS'functional'
p68
asI30
(lp69
S'automatic'
p70
aS'bad'
p71
asI31
(lp72
S'panoramic'
p73
aS'seamless'
p74
aS'multiple'
p75
asI32
(lp76
S'enormous'
p77
asI33
(lp78
sI34
(lp79
sI35
(lp80
sI36
(lp81
S'digital'
p82
aS'smaller'
p83
aS'useful'
p84
aS'slower'
p85
aS'steady'
p86
asI37
(lp87
sI38
(lp88
S'most'
p89
aS'wide'
p90
asI39
(lp91
sI40
(lp92
S'minor'
p93
aS'digital'
p94
asI41
(lp95
S'full'
p96
asI42
(lp97
sI43
(lp98
S'digital'
p99
asI44
(lp100
S'little'
p101
asI45
(lp102
Vsmall
p103
aS'hard'
p104
aS'accurate'
p105
asI46
(lp106
S'accurate'
p107
asI47
(lp108
sI48
(lp109
S'excellent'
p110
asI49
(lp111
S'excellent'
p112
asI50
(lp113
sI51
(lp114
sI52
(lp115
sI53
(lp116
S'great'
p117
asI54
(lp118
sI55
(lp119
sI56
(lp120
sI57
(lp121
S'heavy'
p122
asI58
(lp123
sI59
(lp124
sI60
(lp125
S'wonderful'
p126
asI61
(lp127
S'easy'
p128
asI62
(lp129
sI63
(lp130
S'optical'
p131
aS'great'
p132
aS'digital'
p133
aS'nice'
p134
asI64
(lp135
S'optical'
p136
asI65
(lp137
S'usual'
p138
asI66
(lp139
Vnice
p140
aS'easy'
p141
aS'digital'
p142
asI67
(lp143
S'only'
p144
aS'minor'
p145
asI68
(lp146
sI69
(lp147
S'fantastic'
p148
asI70
(lp149
S'best'
p150
aS'digital'
p151
asI71
(lp152
S'advanced'
p153
aS'creative'
p154
asI72
(lp155
S'perfect'
p156
aS'full'
p157
asI73
(lp158
sI74
(lp159
sI75
(lp160
sI76
(lp161
Vcomfortable
p162
aS'friendly'
p163
asI77
(lp164
S'huge'
p165
aS'moderate'
p166
asI78
(lp167
S'extended'
p168
aS'faster'
p169
asI79
(lp170
sI80
(lp171
S'digital'
p172
aS'better'
p173
aS'potential'
p174
asI81
(lp175
S'great'
p176
aS'single'
p177
asI82
(lp178
sI83
(lp179
sI84
(lp180
sI85
(lp181
S'other'
p182
asI86
(lp183
S'larger'
p184
asI87
(lp185
S'great'
p186
asI88
(lp187
sI89
(lp188
sI90
(lp189
sI91
(lp190
S'larger'
p191
asI92
(lp192
sI93
(lp193
S'great'
p194
asI94
(lp195
sI95
(lp196
S'highest'
p197
asI96
(lp198
S'other'
p199
aS'optical'
p200
asI97
(lp201
S'more'
p202
asI98
(lp203
S'great'
p204
asI99
(lp205
sI100
(lp206
S'great'
p207
asI101
(lp208
sI102
(lp209
S'great'
p210
asI103
(lp211
sI104
(lp212
sI105
(lp213
sI106
(lp214
S'quick'
p215
aS'high'
p216
aS'full'
p217
aS'ideal'
p218
asI107
(lp219
S'manual'
p220
aS'fast'
p221
asI108
(lp222
sI109
(lp223
S'great'
p224
asI110
(lp225
S'cheap'
p226
asI111
(lp227
S'more'
p228
asI112
(lp229
Vsmall
p230
aS'slow'
p231
asI113
(lp232
sI114
(lp233
S'digital'
p234
asI115
(lp235
sI116
(lp236
S'amateur'
p237
asI117
(lp238
S'wonderful'
p239
aS'average'
p240
asI118
(lp241
sI119
(lp242
S'mp'
p243
asI120
(lp244
sI121
(lp245
S'simple'
p246
asI122
(lp247
S'outstanding'
p248
asI123
(lp249
S'amazing'
p250
asI124
(lp251
sI125
(lp252
sI126
(lp253
S'excellent'
p254
asI127
(lp255
sI128
(lp256
sI129
(lp257
S'only'
p258
asI130
(lp259
S'minor'
p260
asI131
(lp261
S'best'
p262
asI132
(lp263
sI133
(lp264
S'more'
p265
asI134
(lp266
sI135
(lp267
sI136
(lp268
S'digital'
p269
asI137
(lp270
S'potential'
p271
asI138
(lp272
sI139
(lp273
S'uneasy'
p274
asI140
(lp275
sI141
(lp276
S'reputable'
p277
asI142
(lp278
sI143
(lp279
sI144
(lp280
sI145
(lp281
S'great'
p282
aS'white'
p283
asI146
(lp284
S'optical'
p285
asI147
(lp286
S'little'
p287
asI148
(lp288
sI149
(lp289
S'expensive'
p290
asI150
(lp291
sI151
(lp292
sI152
(lp293
S'superior'
p294
aS'minimal'
p295
asI153
(lp296
sI154
(lp297
S'low'
p298
aS'light'
p299
asI155
(lp300
sI156
(lp301
sI157
(lp302
sI158
(lp303
sI159
(lp304
sI160
(lp305
sI161
(lp306
S'outdoor'
p307
asI162
(lp308
sI163
(lp309
sI164
(lp310
sI165
(lp311
S'simple'
p312
asI166
(lp313
S'extra'
p314
asI167
(lp315
sI168
(lp316
sI169
(lp317
sI170
(lp318
sI171
(lp319
sI172
(lp320
sI173
(lp321
S'responsive'
p322
aS'professional'
p323
aS'external'
p324
asI174
(lp325
sI175
(lp326
S'digital'
p327
aS'full'
p328
asI176
(lp329
sI177
(lp330
S'inherent'
p331
asI178
(lp332
sI179
(lp333
S'light'
p334
aS'unsatisfactory'
p335
aS'long'
p336
aS'bright'
p337
asI180
(lp338
S'lock'
p339
aS'modern'
p340
asI181
(lp341
S'ive'
p342
asI182
(lp343
S'lock'
p344
aS'extreme'
p345
asI183
(lp346
S'subject'
p347
aS'reasonable'
p348
aS'restless'
p349
asI184
(lp350
sI185
(lp351
S'hot'
p352
aS'ugly'
p353
aS'external'
p354
aS'internal'
p355
aS'harsh'
p356
aS'flat'
p357
asI186
(lp358
S'external'
p359
aS'highest'
p360
aS'hot'
p361
asI187
(lp362
S'external'
p363
asI188
(lp364
S'absolute'
p365
aS'ultimate'
p366
asI189
(lp367
sI190
(lp368
S'ive'
p369
aS'dedicated'
p370
asI191
(lp371
sI192
(lp372
sI193
(lp373
sI194
(lp374
sI195
(lp375
S'neutral'
p376
asI196
(lp377
S'direct'
p378
aS'attendant'
p379
asI197
(lp380
S'acceptable'
p381
aS'stunning'
p382
asI198
(lp383
sI199
(lp384
S'natural'
p385
aS'gentlest'
p386
aS'free'
p387
asI200
(lp388
S'more'
p389
aS'raw'
p390
aS'only'
p391
asI201
(lp392
S'raw'
p393
asI202
(lp394
sI203
(lp395
S'true'
p396
aS'raw'
p397
asI204
(lp398
sI205
(lp399
sI206
(lp400
S'stunning'
p401
aS'raw'
p402
asI207
(lp403
S'raw'
p404
asI208
(lp405
S'raw'
p406
asI209
(lp407
S'raw'
p408
asI210
(lp409
sI211
(lp410
S'photorealistic'
p411
asI212
(lp412
S'raw'
p413
aS'professional'
p414
asI213
(lp415
sI214
(lp416
S'perfect'
p417
aS'easy'
p418
asI215
(lp419
sI216
(lp420
S'digital'
p421
asI217
(lp422
sI218
(lp423
S'manual'
p424
asI219
(lp425
S'other'
p426
aS'similar'
p427
aS'good'
p428
aS'digital'
p429
aS'best'
p430
asI220
(lp431
sI221
(lp432
S'digital'
p433
asI222
(lp434
sI223
(lp435
S'positive'
p436
aS'online'
p437
asI224
(lp438
S'different'
p439
asI225
(lp440
sI226
(lp441
sI227
(lp442
S'perfect'
p443
asI228
(lp444
S'topnotch'
p445
asI229
(lp446
sI230
(lp447
sI231
(lp448
S'ready'
p449
aS'other'
p450
aS'contrary'
p451
asI232
(lp452
S'tremendous'
p453
aS'manual'
p454
asI233
(lp455
S'additional'
p456
aS'wonderful'
p457
aS'other'
p458
asI234
(lp459
S'online'
p460
asI235
(lp461
sI236
(lp462
sI237
(lp463
sI238
(lp464
S'little'
p465
aS'great'
p466
aS'positive'
p467
asI239
(lp468
S'difficult'
p469
aS'negative'
p470
aS'great'
p471
asI240
(lp472
sI241
(lp473
S'great'
p474
asI242
(lp475
S'raw'
p476
aS'incredible'
p477
aS'more'
p478
asI243
(lp479
sI244
(lp480
S'remote'
p481
asI245
(lp482
Veasy
p483
aS'intuitive'
p484
asI246
(lp485
S'little'
p486
aS'better'
p487
asI247
(lp488
sI248
(lp489
sI249
(lp490
S'light'
p491
asI250
(lp492
sI251
(lp493
S'selectable'
p494
aS'available'
p495
asI252
(lp496
sI253
(lp497
S'new'
p498
aS'panoramic'
p499
asI254
(lp500
sI255
(lp501
sI256
(lp502
S'white'
p503
asI257
(lp504
sI258
(lp505
S'other'
p506
asI259
(lp507
S'real'
p508
asI260
(lp509
S'best'
p510
aS'tonal'
p511
asI261
(lp512
sI262
(lp513
sI263
(lp514
sI264
(lp515
sI265
(lp516
S'big'
p517
asI266
(lp518
S'low'
p519
asI267
(lp520
S'blurry'
p521
asI268
(lp522
sI269
(lp523
S'digital'
p524
asI270
(lp525
sI271
(lp526
S'casual'
p527
aS'photographic'
p528
aS'artistic'
p529
asI272
(lp530
S'main'
p531
asI273
(lp532
S'great'
p533
asI274
(lp534
S'optical'
p535
aS'great'
p536
asI275
(lp537
S'friendly'
p538
aS'raw'
p539
asI276
(lp540
S'solid'
p541
asI277
(lp542
S'great'
p543
asI278
(lp544
Vlimited
p545
asI279
(lp546
sI280
(lp547
sI281
(lp548
sI282
(lp549
S'nice'
p550
asI283
(lp551
sI284
(lp552
sI285
(lp553
S'above'
p554
aS'optical'
p555
aS'beautiful'
p556
aS'4mp'
p557
aS'easy'
p558
aS'great'
p559
asI286
(lp560
S'digital'
p561
asI287
(lp562
S'other'
p563
asI288
(lp564
sI289
(lp565
S'great'
p566
asI290
(lp567
S'great'
p568
asI291
(lp569
sI292
(lp570
S'spectacular'
p571
asI293
(lp572
sI294
(lp573
S'more'
p574
asI295
(lp575
S'big'
p576
asI296
(lp577
S'digital'
p578
aS'precious'
p579
asI297
(lp580
S'digital'
p581
asI298
(lp582
sI299
(lp583
sI300
(lp584
Vcool
p585
asI301
(lp586
sI302
(lp587
sI303
(lp588
S'major'
p589
asI304
(lp590
S'indefinite'
p591
asI305
(lp592
sI306
(lp593
sI307
(lp594
sI308
(lp595
sI309
(lp596
sI310
(lp597
S'new'
p598
asI311
(lp599
sI312
(lp600
sI313
(lp601
S'first'
p602
asI314
(lp603
sI315
(lp604
S'unresponsive'
p605
asI316
(lp606
sI317
(lp607
sI318
(lp608
Vdim
p609
aS'bright'
p610
asI319
(lp611
sI320
(lp612
Vslow
p613
asI321
(lp614
Vfast
p615
aS'responsive'
p616
aS'direct'
p617
asI322
(lp618
sI323
(lp619
sI324
(lp620
sI325
(lp621
sI326
(lp622
sI327
(lp623
sI328
(lp624
S'digital'
p625
asI329
(lp626
S'real'
p627
asI330
(lp628
sI331
(lp629
sI332
(lp630
sI333
(lp631
S'current'
p632
asI334
(lp633
S'disposable'
p634
asI335
(lp635
S'digital'
p636
asI336
(lp637
S'digital'
p638
asI337
(lp639
sI338
(lp640
sI339
(lp641
S'fantastic'
p642
asI340
(lp643
S'better'
p644
aS'good'
p645
asI341
(lp646
sI342
(lp647
S'best'
p648
asI343
(lp649
sI344
(lp650
sI345
(lp651
S'easy'
p652
asI346
(lp653
S'exhustive'
p654
asI347
(lp655
sI348
(lp656
S'positive'
p657
asI349
(lp658
S'previous'
p659
asI350
(lp660
S'included'
p661
asI351
(lp662
sI352
(lp663
sI353
(lp664
sI354
(lp665
sI355
(lp666
sI356
(lp667
S'sturdy'
p668
aS'heavier'
p669
asI357
(lp670
sI358
(lp671
sI359
(lp672
sI360
(lp673
sI361
(lp674
S'obvious'
p675
asI362
(lp676
S'different'
p677
asI363
(lp678
sI364
(lp679
sI365
(lp680
S'perfect'
p681
asI366
(lp682
S'advanced'
p683
asI367
(lp684
sI368
(lp685
sI369
(lp686
sI370
(lp687
sI371
(lp688
sI372
(lp689
S'digital'
p690
asI373
(lp691
sI374
(lp692
sI375
(lp693
S'happy'
p694
asI376
(lp695
sI377
(lp696
sI378
(lp697
S'intuitive'
p698
asI379
(lp699
sI380
(lp700
S'standard'
p701
asI381
(lp702
sI382
(lp703
S'optical'
p704
asI383
(lp705
S'minor'
p706
asI384
(lp707
S'digital'
p708
aS'best'
p709
asI385
(lp710
S'digital'
p711
aS'hard'
p712
asI386
(lp713
Vavailable
p714
aS'easy'
p715
aS'optical'
p716
asI387
(lp717
sI388
(lp718
S'digital'
p719
aS'more'
p720
asI389
(lp721
S'other'
p722
asI390
(lp723
sI391
(lp724
sI392
(lp725
sI393
(lp726
sI394
(lp727
S'sharp'
p728
aS'excellent'
p729
aS'other'
p730
asI395
(lp731
S'digital'
p732
aS'elegant'
p733
asI396
(lp734
S'digital'
p735
asI397
(lp736
sI398
(lp737
sI399
(lp738
S'good'
p739
asI400
(lp740
sI401
(lp741
S'round'
p742
asI402
(lp743
sI403
(lp744
sI404
(lp745
S'easier'
p746
asI405
(lp747
sI406
(lp748
sI407
(lp749
S'nice'
p750
asI408
(lp751
sI409
(lp752
sI410
(lp753
sI411
(lp754
S'digital'
p755
asI412
(lp756
sI413
(lp757
sI414
(lp758
S'much'
p759
aS'included'
p760
asI415
(lp761
sI416
(lp762
sI417
(lp763
sI418
(lp764
sI419
(lp765
S'cool'
p766
asI420
(lp767
S'digital'
p768
asI421
(lp769
sI422
(lp770
sI423
(lp771
S'better'
p772
asI424
(lp773
sI425
(lp774
sI426
(lp775
sI427
(lp776
S'extra'
p777
asI428
(lp778
sI429
(lp779
S'new'
p780
aS'great'
p781
asI430
(lp782
S'digital'
p783
asI431
(lp784
S'poor'
p785
aS'slow'
p786
aS'digital'
p787
asI432
(lp788
sI433
(lp789
S'new'
p790
aS'digital'
p791
asI434
(lp792
S'good'
p793
asI435
(lp794
sI436
(lp795
S'new'
p796
aS'expensive'
p797
asI437
(lp798
sI438
(lp799
sI439
(lp800
S'different'
p801
aS'digital'
p802
asI440
(lp803
S'more'
p804
aS'better'
p805
asI441
(lp806
S'excellent'
p807
asI442
(lp808
Veasy
p809
aS'configurable'
p810
aS'customizable'
p811
aS'beautiful'
p812
asI443
(lp813
sI444
(lp814
S'excellent'
p815
asI445
(lp816
S'bad'
p817
aS'pitiful'
p818
asI446
(lp819
S'digital'
p820
aS'general'
p821
asI447
(lp822
S'good'
p823
aS'dark'
p824
asI448
(lp825
sI449
(lp826
S'greatest'
p827
asI450
(lp828
sI451
(lp829
sI452
(lp830
S'small'
p831
aS'cool'
p832
asI453
(lp833
sI454
(lp834
S'pro'
p835
aS'good'
p836
aS'manual'
p837
asI455
(lp838
S'good'
p839
asI456
(lp840
sI457
(lp841
sI458
(lp842
S'mobile'
p843
asI459
(lp844
S'negative'
p845
asI460
(lp846
S'included'
p847
asI461
(lp848
sI462
(lp849
sI463
(lp850
S'unnerving'
p851
asI464
(lp852
sI465
(lp853
S'fragile'
p854
aS'good'
p855
asI466
(lp856
sI467
(lp857
S'small'
p858
asI468
(lp859
S'fragile'
p860
asI469
(lp861
S'small'
p862
aS'main'
p863
asI470
(lp864
S'powerful'
p865
aS'other'
p866
aS'expensive'
p867
asI471
(lp868
sI472
(lp869
S'better'
p870
aS'minor'
p871
asI473
(lp872
S'good'
p873
asI474
(lp874
sI475
(lp875
sI476
(lp876
sI477
(lp877
sI478
(lp878
S'good'
p879
aS'excellent'
p880
asI479
(lp881
sI480
(lp882
S'advanced'
p883
asI481
(lp884
S'digital'
p885
asI482
(lp886
sI483
(lp887
S'extensive'
p888
asI484
(lp889
S'finest'
p890
asI485
(lp891
S'electronic'
p892
asI486
(lp893
S'great'
p894
aS'medical'
p895
asI487
(lp896
S'other'
p897
asI488
(lp898
sI489
(lp899
S'glad'
p900
aS'new'
p901
asI490
(lp902
S'flat'
p903
asI491
(lp904
S'complete'
p905
asI492
(lp906
S'personal'
p907
asI493
(lp908
sI494
(lp909
sI495
(lp910
sI496
(lp911
S'digital'
p912
aS'other'
p913
aS'certain'
p914
asI497
(lp915
sI498
(lp916
sI499
(lp917
S'short'
p918
asI500
(lp919
S'important'
p920
aS'extra'
p921
asI501
(lp922
S'full'
p923
asI502
(lp924
S'compact'
p925
aS'full'
p926
aS'hard'
p927
aS'long'
p928
aS'extra'
p929
asI503
(lp930
S'compact'
p931
asI504
(lp932
sI505
(lp933
sI506
(lp934
sI507
(lp935
S'only'
p936
aS'many'
p937
asI508
(lp938
S'best'
p939
asI509
(lp940
sI510
(lp941
sI511
(lp942
S'great'
p943
asI512
(lp944
S'previous'
p945
aS'negative'
p946
aS'left'
p947
asI513
(lp948
S'continuous'
p949
asI514
(lp950
S'better'
p951
asI515
(lp952
sI516
(lp953
S'expedited'
p954
asI517
(lp955
sI518
(lp956
sI519
(lp957
sI520
(lp958
sI521
(lp959
sI522
(lp960
sI523
(lp961
sI524
(lp962
sI525
(lp963
sI526
(lp964
sI527
(lp965
sI528
(lp966
S'major'
p967
asI529
(lp968
sI530
(lp969
S'defective'
p970
asI531
(lp971
sI532
(lp972
sI533
(lp973
sI534
(lp974
sI535
(lp975
sI536
(lp976
S'longer'
p977
aS'hot'
p978
aS'external'
p979
aS'remote'
p980
aS'more'
p981
asI537
(lp982
sI538
(lp983
sI539
(lp984
sI540
(lp985
S'noticeable'
p986
asI541
(lp987
S'larger'
p988
aS'better'
p989
aS'closer'
p990
aS'low'
p991
aS'optical'
p992
asI542
(lp993
S'moveable'
p994
asI543
(lp995
S'best'
p996
asI544
(lp997
S'remote'
p998
aS'tiny'
p999
asI545
(lp1000
S'sturdy'
p1001
aS'good'
p1002
aS'remarkable'
p1003
aS'indoor'
p1004
aS'new'
p1005
aS'remote'
p1006
aS'light'
p1007
asI546
(lp1008
S'hot'
p1009
aS'sophisticated'
p1010
asI547
(lp1011
sI548
(lp1012
S'greatest'
p1013
aS'flat'
p1014
aS'annoying'
p1015
aS'natural'
p1016
asI549
(lp1017
S'real'
p1018
asI550
(lp1019
sI551
(lp1020
S'different'
p1021
aS'smaller'
p1022
asI552
(lp1023
S'light'
p1024
asI553
(lp1025
S'automatic'
p1026
aS'manual'
p1027
asI554
(lp1028
sI555
(lp1029
sI556
(lp1030
S'digital'
p1031
asI557
(lp1032
S'tiny'
p1033
aS'awkward'
p1034
aS'flimsy'
p1035
aS'little'
p1036
asI558
(lp1037
sI559
(lp1038
S'highest'
p1039
asI560
(lp1040
sI561
(lp1041
S'remote'
p1042
aS'digital'
p1043
asI562
(lp1044
S'internal'
p1045
asI563
(lp1046
sI564
(lp1047
sI565
(lp1048
S'digital'
p1049
asI566
(lp1050
S'digital'
p1051
asI567
(lp1052
sI568
(lp1053
sI569
(lp1054
sI570
(lp1055
S'gray'
p1056
asI571
(lp1057
S'light'
p1058
asI572
(lp1059
S'gray'
p1060
aS'plain'
p1061
aS'white'
p1062
asI573
(lp1063
sI574
(lp1064
S'useful'
p1065
asI575
(lp1066
S'required'
p1067
asI576
(lp1068
sI577
(lp1069
sI578
(lp1070
S'easy'
p1071
aS'comfortable'
p1072
aS'digital'
p1073
asI579
(lp1074
sI580
(lp1075
S'outstanding'
p1076
asI581
(lp1077
S'external'
p1078
aS'available'
p1079
asI582
(lp1080
sI583
(lp1081
S'finer'
p1082
asI584
(lp1083
S'slr'
p1084
aS'best'
p1085
aS'digital'
p1086
asI585
(lp1087
sI586
(lp1088
sI587
(lp1089
S'digital'
p1090
asI588
(lp1091
sI589
(lp1092
S'fine'
p1093
asI590
(lp1094
sI591
(lp1095
sI592
(lp1096
S'available'
p1097
aS'digital'
p1098
asI593
(lp1099
S'great'
p1100
asI594
(lp1101
sI595
(lp1102
sI596
(lp1103
S'great'
p1104
asI597
(lp1105
S'enthusiastic'
p1106
aS'amateur'
p1107
asI598
(lp1108
sI599
(lp1109
sI600
(lp1110
sI601
(lp1111
S'most'
p1112
asI602
(lp1113
S'fine'
p1114
asI603
(lp1115
sI604
(lp1116
Vfast
p1117
aS'small'
p1118
aS'compact'
p1119
aS'rechargable'
p1120
asI605
(lp1121
S'long'
p1122
asI606
(lp1123
sI607
(lp1124
S'digital'
p1125
asI608
(lp1126
sI609
(lp1127
S'rich'
p1128
asI610
(lp1129
S'good'
p1130
asI611
(lp1131
S'manual'
p1132
asI612
(lp1133
sI613
(lp1134
sI614
(lp1135
S'fine'
p1136
aS'highest'
p1137
aS'bigger'
p1138
asI615
(lp1139
sI616
(lp1140
S'older'
p1141
asI617
(lp1142
S'more'
p1143
asI618
(lp1144
S'immense'
p1145
asI619
(lp1146
sI620
(lp1147
S'more'
p1148
asI621
(lp1149
sI622
(lp1150
sI623
(lp1151
S'easy'
p1152
asI624
(lp1153
sI625
(lp1154
sI626
(lp1155
sI627
(lp1156
S'included'
p1157
asI628
(lp1158
S'only'
p1159
asI629
(lp1160
sI630
(lp1161
sI631
(lp1162
S'low'
p1163
aS'entire'
p1164
asI632
(lp1165
sI633
(lp1166
S'sure'
p1167
aS'extra'
p1168
asI634
(lp1169
S'other'
p1170
aS'good'
p1171
asI635
(lp1172
S'major'
p1173
asI636
(lp1174
sI637
(lp1175
sI638
(lp1176
sI639
(lp1177
sI640
(lp1178
S'direct'
p1179
aS'different'
p1180
asI641
(lp1181
S'slightest'
p1182
asI642
(lp1183
sI643
(lp1184
sI644
(lp1185
sI645
(lp1186
S'high'
p1187
aS'higher'
p1188
asI646
(lp1189
S'simpler'
p1190
asI647
(lp1191
sI648
(lp1192
S'good'
p1193
asI649
(lp1194
sI650
(lp1195
sI651
(lp1196
S'stucked'
p1197
asI652
(lp1198
S'whole'
p1199
asI653
(lp1200
S'internal'
p1201
asI654
(lp1202
sI655
(lp1203
S'good'
p1204
asI656
(lp1205
sI657
(lp1206
sI658
(lp1207
sI659
(lp1208
sI660
(lp1209
sI661
(lp1210
S'good'
p1211
aS'bad'
p1212
asI662
(lp1213
sI663
(lp1214
S'digital'
p1215
asI664
(lp1216
S'best'
p1217
asI665
(lp1218
S'digital'
p1219
asI666
(lp1220
S'5x7'
p1221
aS'great'
p1222
asI667
(lp1223
S'small'
p1224
asI668
(lp1225
S'decent'
p1226
asI669
(lp1227
S'different'
p1228
aS'manual'
p1229
asI670
(lp1230
S'respected'
p1231
aS'expensive'
p1232
aS'much'
p1233
asI671
(lp1234
S'above'
p1235
asI672
(lp1236
S'final'
p1237
aS'good'
p1238
aS'previous'
p1239
asI673
(lp1240
sI674
(lp1241
S'minutest'
p1242
asI675
(lp1243
sI676
(lp1244
S'indoor'
p1245
asI677
(lp1246
S'little'
p1247
asI678
(lp1248
S'entire'
p1249
asI679
(lp1250
S'above'
p1251
aS'digital'
p1252
aS'major'
p1253
asI680
(lp1254
sI681
(lp1255
S'additional'
p1256
asI682
(lp1257
S'extra'
p1258
asI683
(lp1259
sI684
(lp1260
sI685
(lp1261
S'great'
p1262
asI686
(lp1263
S'digital'
p1264
asI687
(lp1265
S'extra'
p1266
asI688
(lp1267
S'better'
p1268
aS'fantastic'
p1269
aS'4mb'
p1270
asI689
(lp1271
S'helpful'
p1272
aS'situational'
p1273
asI690
(lp1274
S'great'
p1275
asI691
(lp1276
sI692
(lp1277
S'normal'
p1278
asI693
(lp1279
S'online'
p1280
aS'major'
p1281
aS'great'
p1282
asI694
(lp1283
S'normal'
p1284
aS'visible'
p1285
aS'single'
p1286
asI695
(lp1287
sI696
(lp1288
S'included'
p1289
asI697
(lp1290
sI698
(lp1291
S'nice'
p1292
asI699
(lp1293
sI700
(lp1294
S'compact'
p1295
aS'fantastic'
p1296
aS'new'
p1297
asI701
(lp1298
S'glowing'
p1299
aS'local'
p1300
asI702
(lp1301
S'outdoor'
p1302
aS'wonderful'
p1303
asI703
(lp1304
Vblurry
p1305
aS'grainy'
p1306
aS'indoor'
p1307
aS'more'
p1308
asI704
(lp1309
sI705
(lp1310
sI706
(lp1311
Vorange
p1312
aS'blurry'
p1313
asI707
(lp1314
sI708
(lp1315
sI709
(lp1316
sI710
(lp1317
S'wonderful'
p1318
asI711
(lp1319
S'average'
p1320
aS'unsteady'
p1321
aS'lower'
p1322
aS'light'
p1323
asI712
(lp1324
sI713
(lp1325
sI714
(lp1326
S'incredible'
p1327
asI715
(lp1328
S'digital'
p1329
asI716
(lp1330
Vsimple
p1331
aS'effective'
p1332
aS'inside'
p1333
asI717
(lp1334
sI718
(lp1335
S'incredible'
p1336
asI719
(lp1337
sI720
(lp1338
sI721
(lp1339
S'large'
p1340
asI722
(lp1341
S'good'
p1342
asI723
(lp1343
S'large'
p1344
asI724
(lp1345
sI725
(lp1346
sI726
(lp1347
S'great'
p1348
asI727
(lp1349
sI728
(lp1350
S'great'
p1351
asI729
(lp1352
S'digital'
p1353
asI730
(lp1354
S'easy'
p1355
asI731
(lp1356
S'extra'
p1357
aS'good'
p1358
asI732
(lp1359
S'most'
p1360
aS'manual'
p1361
asI733
(lp1362
sI734
(lp1363
sI735
(lp1364
S'few'
p1365
aS'great'
p1366
aS'bad'
p1367
asI736
(lp1368
S'excellent'
p1369
asI737
(lp1370
S'great'
p1371
asI738
(lp1372
S'only'
p1373
asI739
(lp1374
sI740
(lp1375
sI741
(lp1376
sI742
(lp1377
S'little'
p1378
asI743
(lp1379
S'offensive'
p1380
aVbig
p1381
asI744
(lp1382
S'few'
p1383
aS'single'
p1384
asI745
(lp1385
S'beautiful'
p1386
asI746
(lp1387
S'digital'
p1388
asI747
(lp1389
S'compact'
p1390
asI748
(lp1391
sI749
(lp1392
S'great'
p1393
aS'happy'
p1394
asI750
(lp1395
S'wonderful'
p1396
asI751
(lp1397
S'different'
p1398
asI752
(lp1399
sI753
(lp1400
S'whole'
p1401
asI754
(lp1402
S'ample'
p1403
asI755
(lp1404
S'little'
p1405
aS'digital'
p1406
aS'much'
p1407
asI756
(lp1408
S'online'
p1409
asI757
(lp1410
sI758
(lp1411
sI759
(lp1412
sI760
(lp1413
sI761
(lp1414
sI762
(lp1415
sI763
(lp1416
S'digital'
p1417
asI764
(lp1418
sI765
(lp1419
sI766
(lp1420
sI767
(lp1421
sI768
(lp1422
S'friendly'
p1423
aS'simple'
p1424
aS'great'
p1425
aS'excellent'
p1426
asI769
(lp1427
sI770
(lp1428
S'digital'
p1429
asI771
(lp1430
sI772
(lp1431
sI773
(lp1432
sI774
(lp1433
sI775
(lp1434
S'enough'
p1435
asI776
(lp1436
sI777
(lp1437
S'larger'
p1438
asI778
(lp1439
S'great'
p1440
asI779
(lp1441
sI780
(lp1442
sI781
(lp1443
sI782
(lp1444
Vuncomfortable
p1445
aS'awkward'
p1446
aS'small'
p1447
aS'bigger'
p1448
asI783
(lp1449
S'older'
p1450
aS'excellent'
p1451
asI784
(lp1452
S'compact'
p1453
aS'durable'
p1454
asI785
(lp1455
sI786
(lp1456
sI787
(lp1457
S'only'
p1458
asI788
(lp1459
S'rechargable'
p1460
asI789
(lp1461
S'good'
p1462
aS'extra'
p1463
asI790
(lp1464
S'light'
p1465
aS'low'
p1466
asI791
(lp1467
S'major'
p1468
asI792
(lp1469
S'optical'
p1470
asI793
(lp1471
S'optical'
p1472
aS'more'
p1473
asI794
(lp1474
S'digital'
p1475
aS'optical'
p1476
asI795
(lp1477
S'main'
p1478
asI796
(lp1479
S'other'
p1480
asI797
(lp1481
S'single'
p1482
asI798
(lp1483
S'only'
p1484
aS'less'
p1485
aS'other'
p1486
asI799
(lp1487
sI800
(lp1488
S'awesome'
p1489
asI801
(lp1490
sI802
(lp1491
S'excellent'
p1492
asI803
(lp1493
sI804
(lp1494
S'other'
p1495
asI805
(lp1496
sI806
(lp1497
sI807
(lp1498
S'nikon'
p1499
asI808
(lp1500
sI809
(lp1501
S'fine'
p1502
aS'friendly'
p1503
aS'digital'
p1504
asI810
(lp1505
sI811
(lp1506
S'digital'
p1507
aS'compact'
p1508
aS'little'
p1509
asI812
(lp1510
S'high'
p1511
aS'regular'
p1512
asI813
(lp1513
S'good'
p1514
aS'extra'
p1515
asI814
(lp1516
S'rechargeable'
p1517
asI815
(lp1518
S'rechargeable'
p1519
asI816
(lp1520
sI817
(lp1521
sI818
(lp1522
sI819
(lp1523
S'happier'
p1524
aS'good'
p1525
asI820
(lp1526
S'digital'
p1527
aS'good'
p1528
aS'great'
p1529
asI821
(lp1530
S'different'
p1531
asI822
(lp1532
sI823
(lp1533
S'optical'
p1534
aS'little'
p1535
aS'compact'
p1536
aS'good'
p1537
asI824
(lp1538
S'various'
p1539
asI825
(lp1540
sI826
(lp1541
sI827
(lp1542
S'indoor'
p1543
asI828
(lp1544
S'high'
p1545
aS'compact'
p1546
asI829
(lp1547
Vfast
p1548
aS'simple'
p1549
asI830
(lp1550
S'only'
p1551
aS'indoor'
p1552
asI831
(lp1553
S'inexpensive'
p1554
aS'digital'
p1555
asI832
(lp1556
S'short'
p1557
asI833
(lp1558
S'indoor'
p1559
asI834
(lp1560
S'extra'
p1561
aS'good'
p1562
asI835
(lp1563
Vadequate
p1564
aS'robust'
p1565
asI836
(lp1566
sI837
(lp1567
S'more'
p1568
aS'low'
p1569
asI838
(lp1570
S'indirect'
p1571
aS'dark'
p1572
asI839
(lp1573
sI840
(lp1574
sI841
(lp1575
sI842
(lp1576
sI843
(lp1577
sI844
(lp1578
sI845
(lp1579
sI846
(lp1580
sI847
(lp1581
sI848
(lp1582
Vexpensive
p1583
aS'hard'
p1584
aS'small'
p1585
asI849
(lp1586
S'great'
p1587
asI850
(lp1588
sI851
(lp1589
S'great'
p1590
asI852
(lp1591
sI853
(lp1592
sI854
(lp1593
S'quick'
p1594
asI855
(lp1595
sI856
(lp1596
sI857
(lp1597
sI858
(lp1598
sI859
(lp1599
sI860
(lp1600
sI861
(lp1601
S'little'
p1602
asI862
(lp1603
S'extra'
p1604
asI863
(lp1605
sI864
(lp1606
S'digital'
p1607
asI865
(lp1608
S'high'
p1609
asI866
(lp1610
sI867
(lp1611
S'outdoor'
p1612
asI868
(lp1613
S'indoor'
p1614
asI869
(lp1615
S'indoor'
p1616
aS'accurate'
p1617
aS'far'
p1618
asI870
(lp1619
sI871
(lp1620
sI872
(lp1621
Vgood
p1622
aS'short'
p1623
aS'extra'
p1624
asI873
(lp1625
sI874
(lp1626
S'decent'
p1627
asI875
(lp1628
sI876
(lp1629
sI877
(lp1630
S'regular'
p1631
asI878
(lp1632
S'regular'
p1633
asI879
(lp1634
S'optical'
p1635
asI880
(lp1636
S'optical'
p1637
asI881
(lp1638
sI882
(lp1639
S'compact'
p1640
aS'super'
p1641
aS'digital'
p1642
aS'small'
p1643
asI883
(lp1644
S'high'
p1645
aS'little'
p1646
aS'superior'
p1647
aVlengthy
p1648
aS'extensive'
p1649
asI884
(lp1650
S'huge'
p1651
asI885
(lp1652
S'easy'
p1653
aS'sheer'
p1654
asI886
(lp1655
sI887
(lp1656
S'legendary'
p1657
asI888
(lp1658
sI889
(lp1659
S'elusive'
p1660
aS'photographic'
p1661
asI890
(lp1662
sI891
(lp1663
S'powerful'
p1664
aS'little'
p1665
asI892
(lp1666
sI893
(lp1667
S'old'
p1668
asI894
(lp1669
sI895
(lp1670
sI896
(lp1671
sI897
(lp1672
sI898
(lp1673
sI899
(lp1674
S'fine'
p1675
asI900
(lp1676
sI901
(lp1677
sI902
(lp1678
S'little'
p1679
asI903
(lp1680
sI904
(lp1681
S'excellent'
p1682
aS'serious'
p1683
asI905
(lp1684
S'enough'
p1685
aS'light'
p1686
aS'outstanding'
p1687
asI906
(lp1688
S'rapid'
p1689
aS'continuous'
p1690
aS'great'
p1691
asI907
(lp1692
sI908
(lp1693
sI909
(lp1694
sI910
(lp1695
S'more'
p1696
asI911
(lp1697
S'minor'
p1698
asI912
(lp1699
S'digital'
p1700
aS'best'
p1701
asI913
(lp1702
S'great'
p1703
asI914
(lp1704
sI915
(lp1705
sI916
(lp1706
sI917
(lp1707
S'extra'
p1708
aS'optional'
p1709
aS'wide'
p1710
asI918
(lp1711
Veasy
p1712
aS'cheap'
p1713
aS'reliable'
p1714
aS'digital'
p1715
aS'other'
p1716
asI919
(lp1717
S'established'
p1718
aS'newer'
p1719
asI920
(lp1720
sI921
(lp1721
sI922
(lp1722
S'optical'
p1723
asI923
(lp1724
S'great'
p1725
asI924
(lp1726
sI925
(lp1727
sI926
(lp1728
sI927
(lp1729
S'optical'
p1730
asI928
(lp1731
sI929
(lp1732
S'whole'
p1733
asI930
(lp1734
sI931
(lp1735
sI932
(lp1736
sI933
(lp1737
sI934
(lp1738
S'other'
p1739
asI935
(lp1740
S'whole'
p1741
aS'digital'
p1742
asI936
(lp1743
S'spectacular'
p1744
asI937
(lp1745
S'versatile'
p1746
aS'manual'
p1747
asI938
(lp1748
S'ideal'
p1749
asI939
(lp1750
S'little'
p1751
aVdependable
p1752
aS'robust'
p1753
aS'useful'
p1754
aS'nikon'
p1755
asI940
(lp1756
S'awesome'
p1757
aS'huge'
p1758
aS'tiny'
p1759
asI941
(lp1760
S'great'
p1761
aS'rechargable'
p1762
aS'4mp'
p1763
asI942
(lp1764
S'sharp'
p1765
aS'excellent'
p1766
aS'best'
p1767
asI943
(lp1768
S'mobile'
p1769
asI944
(lp1770
S'other'
p1771
aS'great'
p1772
asI945
(lp1773
sI946
(lp1774
sI947
(lp1775
S'long'
p1776
asI948
(lp1777
S'many'
p1778
aS'best'
p1779
aS'only'
p1780
asI949
(lp1781
S'favorite'
p1782
asI950
(lp1783
sI951
(lp1784
S'previous'
p1785
aS'old'
p1786
asI952
(lp1787
sI953
(lp1788
sI954
(lp1789
S'expensive'
p1790
asI955
(lp1791
S'decent'
p1792
asI956
(lp1793
S'brief'
p1794
asI957
(lp1795
S'cute'
p1796
aS'personal'
p1797
asI958
(lp1798
S'spent'
p1799
asI959
(lp1800
sI960
(lp1801
S'good'
p1802
asI961
(lp1803
S'okay'
p1804
aS'decent'
p1805
aS'230kb'
p1806
asI962
(lp1807
sI963
(lp1808
sI964
(lp1809
S'dangerous'
p1810
asI965
(lp1811
sI966
(lp1812
S'small'
p1813
asI967
(lp1814
S'full'
p1815
asI968
(lp1816
S'more'
p1817
asI969
(lp1818
sI970
(lp1819
sI971
(lp1820
S'excellent'
p1821
asI972
(lp1822
S'other'
p1823
asI973
(lp1824
S'amazing'
p1825
asI974
(lp1826
S'overall'
p1827
asI975
(lp1828
sI976
(lp1829
S'exceptional'
p1830
asI977
(lp1831
sI978
(lp1832
sI979
(lp1833
S'cheap'
p1834
asI980
(lp1835
S'countless'
p1836
asI981
(lp1837
sI982
(lp1838
sI983
(lp1839
sI984
(lp1840
sI985
(lp1841
sI986
(lp1842
S'most'
p1843
asI987
(lp1844
sI988
(lp1845
sI989
(lp1846
sI990
(lp1847
sI991
(lp1848
sI992
(lp1849
sI993
(lp1850
sI994
(lp1851
S'good'
p1852
asI995
(lp1853
S'static'
p1854
aS'clear'
p1855
asI996
(lp1856
sI997
(lp1857
sI998
(lp1858
sI999
(lp1859
S'expensive'
p1860
asI1000
(lp1861
sI1001
(lp1862
S'bad'
p1863
asI1002
(lp1864
S'better'
p1865
asI1003
(lp1866
sI1004
(lp1867
S'complete'
p1868
asI1005
(lp1869
sI1006
(lp1870
S'complete'
p1871
asI1007
(lp1872
S'apparent'
p1873
asI1008
(lp1874
sI1009
(lp1875
S'best'
p1876
asI1010
(lp1877
S'other'
p1878
asI1011
(lp1879
S'personal'
p1880
aS'nifty'
p1881
asI1012
(lp1882
sI1013
(lp1883
S'flip'
p1884
asI1014
(lp1885
sI1015
(lp1886
sI1016
(lp1887
S'heaviest'
p1888
asI1017
(lp1889
S'few'
p1890
asI1018
(lp1891
sI1019
(lp1892
S'frequent'
p1893
asI1020
(lp1894
sI1021
(lp1895
sI1022
(lp1896
sI1023
(lp1897
Veasy
p1898
aS'pitched'
p1899
asI1024
(lp1900
S'subtle'
p1901
asI1025
(lp1902
sI1026
(lp1903
S'teeny'
p1904
aS'big'
p1905
asI1027
(lp1906
sI1028
(lp1907
sI1029
(lp1908
sI1030
(lp1909
S'favorite'
p1910
asI1031
(lp1911
S'great'
p1912
aS'perfect'
p1913
asI1032
(lp1914
sI1033
(lp1915
sI1034
(lp1916
S'nice'
p1917
asI1035
(lp1918
sI1036
(lp1919
sI1037
(lp1920
sI1038
(lp1921
S'mobile'
p1922
aS'good'
p1923
asI1039
(lp1924
sI1040
(lp1925
sI1041
(lp1926
S'better'
p1927
asI1042
(lp1928
sI1043
(lp1929
S'nice'
p1930
asI1044
(lp1931
sI1045
(lp1932
S'mobile'
p1933
aS'easy'
p1934
aS'broken'
p1935
asI1046
(lp1936
S'much'
p1937
asI1047
(lp1938
S'local'
p1939
asI1048
(lp1940
sI1049
(lp1941
S'unchangeable'
p1942
asI1050
(lp1943
sI1051
(lp1944
sI1052
(lp1945
sI1053
(lp1946
sI1054
(lp1947
S'sound'
p1948
aS'good'
p1949
aS'positive'
p1950
aS'excellent'
p1951
asI1055
(lp1952
S'visible'
p1953
aVtiny
p1954
aS'difficult'
p1955
asI1056
(lp1956
S'poor'
p1957
asI1057
(lp1958
sI1058
(lp1959
sI1059
(lp1960
S'biggest'
p1961
aS'excellent'
p1962
aS'superb'
p1963
asI1060
(lp1964
sI1061
(lp1965
S'big'
p1966
asI1062
(lp1967
sI1063
(lp1968
sI1064
(lp1969
sI1065
(lp1970
sI1066
(lp1971
S'cool'
p1972
asI1067
(lp1973
sI1068
(lp1974
S'big'
p1975
asI1069
(lp1976
S'other'
p1977
asI1070
(lp1978
sI1071
(lp1979
sI1072
(lp1980
sI1073
(lp1981
sI1074
(lp1982
S'decent'
p1983
aS'normal'
p1984
asI1075
(lp1985
sI1076
(lp1986
S'beneficial'
p1987
aS'least'
p1988
asI1077
(lp1989
sI1078
(lp1990
S'only'
p1991
aS'small'
p1992
asI1079
(lp1993
S'full'
p1994
asI1080
(lp1995
sI1081
(lp1996
S'other'
p1997
asI1082
(lp1998
S'international'
p1999
asI1083
(lp2000
S'good'
p2001
aS'typical'
p2002
aS'american'
p2003
asI1084
(lp2004
S'rare'
p2005
asI1085
(lp2006
S'big'
p2007
aS'european'
p2008
asI1086
(lp2009
sI1087
(lp2010
S'extended'
p2011
asI1088
(lp2012
S'international'
p2013
asI1089
(lp2014
sI1090
(lp2015
sI1091
(lp2016
sI1092
(lp2017
sI1093
(lp2018
sI1094
(lp2019
sI1095
(lp2020
S'single'
p2021
asI1096
(lp2022
Vsmall
p2023
asI1097
(lp2024
S'other'
p2025
asI1098
(lp2026
S'minor'
p2027
aS'few'
p2028
asI1099
(lp2029
sI1100
(lp2030
S'perfect'
p2031
aS'appealing'
p2032
asI1101
(lp2033
sI1102
(lp2034
sI1103
(lp2035
Vsmall
p2036
aS'convenient'
p2037
asI1104
(lp2038
S'polyphonic'
p2039
aS'nice'
p2040
asI1105
(lp2041
S'extra'
p2042
aS'nice'
p2043
asI1106
(lp2044
sI1107
(lp2045
sI1108
(lp2046
S'crazy'
p2047
aS'regular'
p2048
asI1109
(lp2049
sI1110
(lp2050
S'additional'
p2051
asI1111
(lp2052
S'little'
p2053
aS'nice'
p2054
asI1112
(lp2055
S'great'
p2056
asI1113
(lp2057
S'sticky'
p2058
aS'free'
p2059
asI1114
(lp2060
sI1115
(lp2061
S'sexy'
p2062
asI1116
(lp2063
S'functional'
p2064
asI1117
(lp2065
S'outstanding'
p2066
asI1118
(lp2067
sI1119
(lp2068
sI1120
(lp2069
S'little'
p2070
asI1121
(lp2071
S'other'
p2072
asI1122
(lp2073
S'rectangular'
p2074
aS'standard'
p2075
asI1123
(lp2076
sI1124
(lp2077
sI1125
(lp2078
S'nice'
p2079
asI1126
(lp2080
S'nice'
p2081
aS'other'
p2082
asI1127
(lp2083
sI1128
(lp2084
S'whole'
p2085
asI1129
(lp2086
sI1130
(lp2087
sI1131
(lp2088
S'silent'
p2089
asI1132
(lp2090
sI1133
(lp2091
S'good'
p2092
asI1134
(lp2093
S'other'
p2094
aS'standard'
p2095
asI1135
(lp2096
sI1136
(lp2097
sI1137
(lp2098
S'compact'
p2099
aS'light'
p2100
asI1138
(lp2101
S'solid'
p2102
asI1139
(lp2103
S'backlit'
p2104
asI1140
(lp2105
S'outstanding'
p2106
asI1141
(lp2107
S'sound'
p2108
aS'excellent'
p2109
asI1142
(lp2110
S'visible'
p2111
aS'bright'
p2112
asI1143
(lp2113
sI1144
(lp2114
S'lasting'
p2115
asI1145
(lp2116
sI1146
(lp2117
sI1147
(lp2118
sI1148
(lp2119
S'individualized'
p2120
asI1149
(lp2121
S'propietary'
p2122
asI1150
(lp2123
sI1151
(lp2124
sI1152
(lp2125
sI1153
(lp2126
sI1154
(lp2127
sI1155
(lp2128
S'east'
p2129
asI1156
(lp2130
S'best'
p2131
asI1157
(lp2132
sI1158
(lp2133
S'other'
p2134
asI1159
(lp2135
sI1160
(lp2136
S'key'
p2137
aS'automatic'
p2138
asI1161
(lp2139
sI1162
(lp2140
sI1163
(lp2141
sI1164
(lp2142
S'most'
p2143
asI1165
(lp2144
sI1166
(lp2145
sI1167
(lp2146
S'much'
p2147
aS'present'
p2148
asI1168
(lp2149
S'best'
p2150
asI1169
(lp2151
sI1170
(lp2152
Vlightweight
p2153
aS'sleek'
p2154
aS'attractive'
p2155
asI1171
(lp2156
S'easy'
p2157
asI1172
(lp2158
sI1173
(lp2159
sI1174
(lp2160
S'long'
p2161
asI1175
(lp2162
S'sweet'
p2163
aS'polyphonic'
p2164
asI1176
(lp2165
sI1177
(lp2166
S'other'
p2167
asI1178
(lp2168
sI1179
(lp2169
S'other'
p2170
asI1180
(lp2171
sI1181
(lp2172
sI1182
(lp2173
S'small'
p2174
asI1183
(lp2175
sI1184
(lp2176
sI1185
(lp2177
sI1186
(lp2178
S'such'
p2179
asI1187
(lp2180
sI1188
(lp2181
S'previous'
p2182
asI1189
(lp2183
sI1190
(lp2184
sI1191
(lp2185
sI1192
(lp2186
sI1193
(lp2187
sI1194
(lp2188
sI1195
(lp2189
S'free'
p2190
asI1196
(lp2191
S'big'
p2192
asI1197
(lp2193
Vsuperior
p2194
aS'cheaper'
p2195
asI1198
(lp2196
S'mobile'
p2197
aS'other'
p2198
asI1199
(lp2199
S'sound'
p2200
asI1200
(lp2201
S'important'
p2202
aS'sound'
p2203
asI1201
(lp2204
S'good'
p2205
asI1202
(lp2206
S'sound'
p2207
asI1203
(lp2208
S'loud'
p2209
aS'next'
p2210
asI1204
(lp2211
S'overall'
p2212
asI1205
(lp2213
sI1206
(lp2214
sI1207
(lp2215
sI1208
(lp2216
S'flip'
p2217
aS'better'
p2218
asI1209
(lp2219
sI1210
(lp2220
S'certain'
p2221
asI1211
(lp2222
S'certain'
p2223
aS'directional'
p2224
asI1212
(lp2225
S'nice'
p2226
asI1213
(lp2227
sI1214
(lp2228
sI1215
(lp2229
sI1216
(lp2230
sI1217
(lp2231
S'horrible'
p2232
aS'longer'
p2233
asI1218
(lp2234
sI1219
(lp2235
S'most'
p2236
asI1220
(lp2237
S'integrated'
p2238
aS'digital'
p2239
asI1221
(lp2240
sI1222
(lp2241
sI1223
(lp2242
sI1224
(lp2243
S'useful'
p2244
asI1225
(lp2245
S'big'
p2246
aS'beautiful'
p2247
asI1226
(lp2248
S'polymorphic'
p2249
asI1227
(lp2250
S'other'
p2251
aS'different'
p2252
asI1228
(lp2253
S'infrared'
p2254
asI1229
(lp2255
sI1230
(lp2256
sI1231
(lp2257
S'average'
p2258
asI1232
(lp2259
S'more'
p2260
asI1233
(lp2261
S'flip'
p2262
aS'more'
p2263
asI1234
(lp2264
S'good'
p2265
aS'samsung'
p2266
asI1235
(lp2267
S'mobile'
p2268
asI1236
(lp2269
S'new'
p2270
aS'mobile'
p2271
aS'cheap'
p2272
aS'other'
p2273
asI1237
(lp2274
S'best'
p2275
asI1238
(lp2276
sI1239
(lp2277
sI1240
(lp2278
sI1241
(lp2279
S'great'
p2280
asI1242
(lp2281
sI1243
(lp2282
S'free'
p2283
asI1244
(lp2284
S'sound'
p2285
aS'great'
p2286
aS'loud'
p2287
aS'only'
p2288
asI1245
(lp2289
S'slick'
p2290
asI1246
(lp2291
Vnice
p2292
aS'small'
p2293
aS'excellent'
p2294
asI1247
(lp2295
S'coolest'
p2296
asI1248
(lp2297
sI1249
(lp2298
S'next'
p2299
aS'favorite'
p2300
asI1250
(lp2301
S'great'
p2302
asI1251
(lp2303
sI1252
(lp2304
S'other'
p2305
asI1253
(lp2306
sI1254
(lp2307
sI1255
(lp2308
sI1256
(lp2309
S'ultimate'
p2310
aS'basic'
p2311
aS'comaptible'
p2312
asI1257
(lp2313
sI1258
(lp2314
S'great'
p2315
asI1259
(lp2316
S'mobile'
p2317
aS'good'
p2318
asI1260
(lp2319
S'little'
p2320
aS'great'
p2321
aS'nice'
p2322
asI1261
(lp2323
sI1262
(lp2324
S'big'
p2325
asI1263
(lp2326
S'big'
p2327
asI1264
(lp2328
sI1265
(lp2329
sI1266
(lp2330
sI1267
(lp2331
S'right'
p2332
aS'quieter'
p2333
asI1268
(lp2334
S'crowded'
p2335
aS'public'
p2336
asI1269
(lp2337
sI1270
(lp2338
sI1271
(lp2339
sI1272
(lp2340
S'flip'
p2341
asI1273
(lp2342
sI1274
(lp2343
Vloud
p2344
aS'clear'
p2345
asI1275
(lp2346
sI1276
(lp2347
Vsmall
p2348
aS'light'
p2349
aS'attractive'
p2350
asI1277
(lp2351
sI1278
(lp2352
S'polyphonic'
p2353
asI1279
(lp2354
sI1280
(lp2355
sI1281
(lp2356
sI1282
(lp2357
S'cool'
p2358
aS'older'
p2359
asI1283
(lp2360
S'constant'
p2361
aS'pitched'
p2362
aS'distorted'
p2363
asI1284
(lp2364
S'new'
p2365
asI1285
(lp2366
sI1286
(lp2367
sI1287
(lp2368
S'great'
p2369
aS'wonderful'
p2370
asI1288
(lp2371
sI1289
(lp2372
S'long'
p2373
aS'new'
p2374
asI1290
(lp2375
sI1291
(lp2376
S'free'
p2377
asI1292
(lp2378
sI1293
(lp2379
Vsleek
p2380
aS'powerful'
p2381
asI1294
(lp2382
sI1295
(lp2383
sI1296
(lp2384
S'infrared'
p2385
asI1297
(lp2386
S'more'
p2387
asI1298
(lp2388
sI1299
(lp2389
S'more'
p2390
asI1300
(lp2391
S'mobile'
p2392
aS'other'
p2393
asI1301
(lp2394
sI1302
(lp2395
sI1303
(lp2396
S'digital'
p2397
aS'good'
p2398
aS'mobile'
p2399
asI1304
(lp2400
sI1305
(lp2401
sI1306
(lp2402
sI1307
(lp2403
sI1308
(lp2404
S'smaller'
p2405
asI1309
(lp2406
sI1310
(lp2407
sI1311
(lp2408
S'perfect'
p2409
asI1312
(lp2410
S'more'
p2411
asI1313
(lp2412
S'true'
p2413
aS'delicate'
p2414
aS'little'
p2415
aS'other'
p2416
asI1314
(lp2417
sI1315
(lp2418
S'optional'
p2419
asI1316
(lp2420
sI1317
(lp2421
S'convenient'
p2422
asI1318
(lp2423
Vsmall
p2424
aS'difficult'
p2425
aS'decent'
p2426
asI1319
(lp2427
sI1320
(lp2428
sI1321
(lp2429
S'small'
p2430
aS'significant'
p2431
asI1322
(lp2432
S'other'
p2433
aS'standard'
p2434
asI1323
(lp2435
S'best'
p2436
asI1324
(lp2437
sI1325
(lp2438
sI1326
(lp2439
sI1327
(lp2440
sI1328
(lp2441
sI1329
(lp2442
sI1330
(lp2443
sI1331
(lp2444
S'current'
p2445
aS'little'
p2446
asI1332
(lp2447
S'right'
p2448
asI1333
(lp2449
sI1334
(lp2450
S'better'
p2451
asI1335
(lp2452
S'great'
p2453
aS'excellent'
p2454
aS'free'
p2455
aS'favorite'
p2456
asI1336
(lp2457
sI1337
(lp2458
sI1338
(lp2459
sI1339
(lp2460
sI1340
(lp2461
S'great'
p2462
asI1341
(lp2463
S'great'
p2464
asI1342
(lp2465
sI1343
(lp2466
S'small'
p2467
aS'great'
p2468
aS'corporate'
p2469
asI1344
(lp2470
S'corporate'
p2471
asI1345
(lp2472
S'corporate'
p2473
asI1346
(lp2474
S'unlimited'
p2475
asI1347
(lp2476
sI1348
(lp2477
sI1349
(lp2478
sI1350
(lp2479
S'great'
p2480
asI1351
(lp2481
S'excellent'
p2482
aS'better'
p2483
asI1352
(lp2484
sI1353
(lp2485
S'more'
p2486
asI1354
(lp2487
S'excellent'
p2488
asI1355
(lp2489
sI1356
(lp2490
S'winning'
p2491
asI1357
(lp2492
sI1358
(lp2493
S'easy'
p2494
aS'great'
p2495
aS'excellent'
p2496
asI1359
(lp2497
sI1360
(lp2498
S'mobile'
p2499
asI1361
(lp2500
S'bulky'
p2501
aS'organizational'
p2502
asI1362
(lp2503
S'little'
p2504
aS'coveted'
p2505
asI1363
(lp2506
sI1364
(lp2507
sI1365
(lp2508
sI1366
(lp2509
S'flip'
p2510
aS'annoying'
p2511
aS'best'
p2512
asI1367
(lp2513
sI1368
(lp2514
sI1369
(lp2515
S'great'
p2516
asI1370
(lp2517
sI1371
(lp2518
sI1372
(lp2519
sI1373
(lp2520
S'sound'
p2521
aS'quieter'
p2522
aS'other'
p2523
asI1374
(lp2524
Vcomfortable
p2525
aS'easy'
p2526
aS'included'
p2527
asI1375
(lp2528
sI1376
(lp2529
sI1377
(lp2530
sI1378
(lp2531
S'sound'
p2532
aS'superb'
p2533
asI1379
(lp2534
S'such'
p2535
asI1380
(lp2536
sI1381
(lp2537
S'classic'
p2538
asI1382
(lp2539
S'cheap'
p2540
asI1383
(lp2541
sI1384
(lp2542
sI1385
(lp2543
S'better'
p2544
asI1386
(lp2545
sI1387
(lp2546
S'mobile'
p2547
aS'small'
p2548
asI1388
(lp2549
S'regular'
p2550
asI1389
(lp2551
S'best'
p2552
aS'such'
p2553
aS'cheap'
p2554
aS'more'
p2555
aS'other'
p2556
asI1390
(lp2557
sI1391
(lp2558
S'good'
p2559
asI1392
(lp2560
sI1393
(lp2561
S'mobile'
p2562
asI1394
(lp2563
sI1395
(lp2564
S'extra'
p2565
aS'unlimited'
p2566
asI1396
(lp2567
sI1397
(lp2568
S'entire'
p2569
asI1398
(lp2570
S'only'
p2571
asI1399
(lp2572
S'great'
p2573
asI1400
(lp2574
sI1401
(lp2575
sI1402
(lp2576
S'free'
p2577
asI1403
(lp2578
sI1404
(lp2579
sI1405
(lp2580
sI1406
(lp2581
sI1407
(lp2582
sI1408
(lp2583
S'only'
p2584
asI1409
(lp2585
sI1410
(lp2586
S'large'
p2587
asI1411
(lp2588
sI1412
(lp2589
sI1413
(lp2590
sI1414
(lp2591
S'good'
p2592
asI1415
(lp2593
sI1416
(lp2594
S'only'
p2595
asI1417
(lp2596
S'great'
p2597
asI1418
(lp2598
S'first'
p2599
asI1419
(lp2600
sI1420
(lp2601
S'great'
p2602
aS'mobile'
p2603
asI1421
(lp2604
S'bright'
p2605
asI1422
(lp2606
S'only'
p2607
asI1423
(lp2608
sI1424
(lp2609
S'traditional'
p2610
aS'key'
p2611
aS'unconventional'
p2612
asI1425
(lp2613
S'light'
p2614
asI1426
(lp2615
S'perfect'
p2616
asI1427
(lp2617
sI1428
(lp2618
S'overloaded'
p2619
aS'unpleasant'
p2620
asI1429
(lp2621
sI1430
(lp2622
S'nokia'
p2623
aS'new'
p2624
aS'great'
p2625
asI1431
(lp2626
sI1432
(lp2627
sI1433
(lp2628
S'small'
p2629
aS'comfortable'
p2630
asI1434
(lp2631
sI1435
(lp2632
S'previous'
p2633
aS'other'
p2634
asI1436
(lp2635
sI1437
(lp2636
Vbright
p2637
aS'changeable'
p2638
asI1438
(lp2639
sI1439
(lp2640
sI1440
(lp2641
sI1441
(lp2642
sI1442
(lp2643
S'annoying'
p2644
asI1443
(lp2645
sI1444
(lp2646
S'special'
p2647
asI1445
(lp2648
S'multiple'
p2649
aS'massive'
p2650
asI1446
(lp2651
sI1447
(lp2652
S'instant'
p2653
aS'other'
p2654
aS'included'
p2655
asI1448
(lp2656
sI1449
(lp2657
S'other'
p2658
asI1450
(lp2659
S'mobile'
p2660
asI1451
(lp2661
S'compatible'
p2662
asI1452
(lp2663
sI1453
(lp2664
sI1454
(lp2665
S'good'
p2666
asI1455
(lp2667
sI1456
(lp2668
sI1457
(lp2669
S'brief'
p2670
asI1458
(lp2671
sI1459
(lp2672
S'old'
p2673
asI1460
(lp2674
S'least'
p2675
asI1461
(lp2676
S'different'
p2677
aS'mobile'
p2678
asI1462
(lp2679
sI1463
(lp2680
sI1464
(lp2681
S'great'
p2682
asI1465
(lp2683
S'complicated'
p2684
asI1466
(lp2685
S'huge'
p2686
aS'many'
p2687
aS'mobile'
p2688
asI1467
(lp2689
sI1468
(lp2690
sI1469
(lp2691
S'different'
p2692
asI1470
(lp2693
S'local'
p2694
asI1471
(lp2695
sI1472
(lp2696
sI1473
(lp2697
sI1474
(lp2698
S'huge'
p2699
asI1475
(lp2700
sI1476
(lp2701
sI1477
(lp2702
S'good'
p2703
asI1478
(lp2704
S'good'
p2705
asI1479
(lp2706
S'main'
p2707
aS'sound'
p2708
asI1480
(lp2709
sI1481
(lp2710
sI1482
(lp2711
sI1483
(lp2712
sI1484
(lp2713
sI1485
(lp2714
sI1486
(lp2715
S'nicest'
p2716
asI1487
(lp2717
sI1488
(lp2718
S'cool'
p2719
asI1489
(lp2720
sI1490
(lp2721
sI1491
(lp2722
sI1492
(lp2723
S'decent'
p2724
aS'navigational'
p2725
asI1493
(lp2726
S'blue'
p2727
aS'larger'
p2728
asI1494
(lp2729
sI1495
(lp2730
S'short'
p2731
asI1496
(lp2732
Vshort
p2733
asI1497
(lp2734
S'equivalent'
p2735
asI1498
(lp2736
S'popular'
p2737
asI1499
(lp2738
sI1500
(lp2739
sI1501
(lp2740
sI1502
(lp2741
S'best'
p2742
asI1503
(lp2743
sI1504
(lp2744
sI1505
(lp2745
sI1506
(lp2746
sI1507
(lp2747
sI1508
(lp2748
S'easy'
p2749
asI1509
(lp2750
S'less'
p2751
asI1510
(lp2752
sI1511
(lp2753
sI1512
(lp2754
sI1513
(lp2755
S'other'
p2756
asI1514
(lp2757
sI1515
(lp2758
S'overpriced'
p2759
asI1516
(lp2760
sI1517
(lp2761
sI1518
(lp2762
sI1519
(lp2763
sI1520
(lp2764
S'beautiful'
p2765
aS'fast'
p2766
asI1521
(lp2767
sI1522
(lp2768
sI1523
(lp2769
S'new'
p2770
asI1524
(lp2771
sI1525
(lp2772
sI1526
(lp2773
sI1527
(lp2774
sI1528
(lp2775
S'great'
p2776
aS'good'
p2777
asI1529
(lp2778
S'included'
p2779
asI1530
(lp2780
sI1531
(lp2781
sI1532
(lp2782
sI1533
(lp2783
sI1534
(lp2784
S'nice'
p2785
asI1535
(lp2786
sI1536
(lp2787
sI1537
(lp2788
sI1538
(lp2789
sI1539
(lp2790
sI1540
(lp2791
S'main'
p2792
aS'longer'
p2793
aS'lower'
p2794
asI1541
(lp2795
S'straight'
p2796
asI1542
(lp2797
S'cheaper'
p2798
asI1543
(lp2799
S'real'
p2800
asI1544
(lp2801
S'good'
p2802
asI1545
(lp2803
sI1546
(lp2804
S'big'
p2805
asI1547
(lp2806
S'little'
p2807
asI1548
(lp2808
S'little'
p2809
aS'overused'
p2810
asI1549
(lp2811
S'real'
p2812
asI1550
(lp2813
sI1551
(lp2814
S'other'
p2815
aS'included'
p2816
asI1552
(lp2817
Vsmall
p2818
aS'other'
p2819
aS'changable'
p2820
aS'decent'
p2821
asI1553
(lp2822
sI1554
(lp2823
S'other'
p2824
asI1555
(lp2825
Vdifficult
p2826
aS'expensive'
p2827
asI1556
(lp2828
S'overpriced'
p2829
aVgreat
p2830
aS'expensive'
p2831
asI1557
(lp2832
sI1558
(lp2833
S'good'
p2834
asI1559
(lp2835
sI1560
(lp2836
S'other'
p2837
aS'much'
p2838
asI1561
(lp2839
S'creative'
p2840
aS'great'
p2841
asI1562
(lp2842
S'best'
p2843
asI1563
(lp2844
sI1564
(lp2845
S'blue'
p2846
asI1565
(lp2847
S'great'
p2848
asI1566
(lp2849
S'new'
p2850
asI1567
(lp2851
sI1568
(lp2852
S'intuitive'
p2853
asI1569
(lp2854
sI1570
(lp2855
sI1571
(lp2856
S'only'
p2857
asI1572
(lp2858
S'other'
p2859
aS'easy'
p2860
asI1573
(lp2861
S'certain'
p2862
asI1574
(lp2863
S'only'
p2864
asI1575
(lp2865
sI1576
(lp2866
sI1577
(lp2867
S'less'
p2868
asI1578
(lp2869
sI1579
(lp2870
S'decent'
p2871
asI1580
(lp2872
sI1581
(lp2873
sI1582
(lp2874
S'main'
p2875
asI1583
(lp2876
sI1584
(lp2877
sI1585
(lp2878
sI1586
(lp2879
sI1587
(lp2880
sI1588
(lp2881
sI1589
(lp2882
sI1590
(lp2883
sI1591
(lp2884
sI1592
(lp2885
sI1593
(lp2886
S'frustrating'
p2887
asI1594
(lp2888
S'positive'
p2889
asI1595
(lp2890
S'creative'
p2891
asI1596
(lp2892
S'disappointing'
p2893
asI1597
(lp2894
sI1598
(lp2895
sI1599
(lp2896
S'good'
p2897
asI1600
(lp2898
sI1601
(lp2899
sI1602
(lp2900
S'other'
p2901
asI1603
(lp2902
S'great'
p2903
aS'multiple'
p2904
asI1604
(lp2905
sI1605
(lp2906
sI1606
(lp2907
sI1607
(lp2908
sI1608
(lp2909
S'replaceable'
p2910
aS'deciding'
p2911
asI1609
(lp2912
S'rechargeable'
p2913
asI1610
(lp2914
S'new'
p2915
aS'paltry'
p2916
asI1611
(lp2917
S'other'
p2918
asI1612
(lp2919
sI1613
(lp2920
S'red'
p2921
aS'simple'
p2922
asI1614
(lp2923
sI1615
(lp2924
sI1616
(lp2925
S'new'
p2926
aS'rechargeable'
p2927
asI1617
(lp2928
S'lower'
p2929
aS'arrogant'
p2930
asI1618
(lp2931
sI1619
(lp2932
S'rechargeable'
p2933
asI1620
(lp2934
sI1621
(lp2935
S'new'
p2936
asI1622
(lp2937
sI1623
(lp2938
S'pretty'
p2939
asI1624
(lp2940
sI1625
(lp2941
sI1626
(lp2942
S'only'
p2943
aS'good'
p2944
asI1627
(lp2945
S'normal'
p2946
aS'nice'
p2947
aS'sound'
p2948
asI1628
(lp2949
S'cool'
p2950
aS'availible'
p2951
aS'sexy'
p2952
asI1629
(lp2953
S'great'
p2954
asI1630
(lp2955
sI1631
(lp2956
S'flat'
p2957
asI1632
(lp2958
sI1633
(lp2959
S'new'
p2960
asI1634
(lp2961
S'early'
p2962
asI1635
(lp2963
sI1636
(lp2964
S'closest'
p2965
aS'best'
p2966
asI1637
(lp2967
sI1638
(lp2968
sI1639
(lp2969
sI1640
(lp2970
sI1641
(lp2971
sI1642
(lp2972
sI1643
(lp2973
S'super'
p2974
asI1644
(lp2975
sI1645
(lp2976
sI1646
(lp2977
sI1647
(lp2978
S'sound'
p2979
asI1648
(lp2980
S'sound'
p2981
asI1649
(lp2982
sI1650
(lp2983
S'previous'
p2984
asI1651
(lp2985
sI1652
(lp2986
sI1653
(lp2987
sI1654
(lp2988
sI1655
(lp2989
S'nice'
p2990
aS'random'
p2991
asI1656
(lp2992
sI1657
(lp2993
sI1658
(lp2994
S'massive'
p2995
asI1659
(lp2996
S'little'
p2997
asI1660
(lp2998
sI1661
(lp2999
S'new'
p3000
asI1662
(lp3001
S'best'
p3002
aS'current'
p3003
asI1663
(lp3004
sI1664
(lp3005
sI1665
(lp3006
S'online'
p3007
asI1666
(lp3008
sI1667
(lp3009
sI1668
(lp3010
Vquick
p3011
aS'painless'
p3012
asI1669
(lp3013
sI1670
(lp3014
sI1671
(lp3015
sI1672
(lp3016
S'only'
p3017
asI1673
(lp3018
S'good'
p3019
asI1674
(lp3020
sI1675
(lp3021
sI1676
(lp3022
sI1677
(lp3023
Vlarge
p3024
aS'readable'
p3025
asI1678
(lp3026
sI1679
(lp3027
sI1680
(lp3028
S'great'
p3029
asI1681
(lp3030
S'best'
p3031
asI1682
(lp3032
S'whole'
p3033
asI1683
(lp3034
S'different'
p3035
asI1684
(lp3036
S'standard'
p3037
asI1685
(lp3038
S'whole'
p3039
aS'newer'
p3040
aS'original'
p3041
asI1686
(lp3042
Vsmaller
p3043
aS'expensive'
p3044
asI1687
(lp3045
sI1688
(lp3046
S'new'
p3047
asI1689
(lp3048
sI1690
(lp3049
S'huge'
p3050
asI1691
(lp3051
sI1692
(lp3052
sI1693
(lp3053
S'other'
p3054
asI1694
(lp3055
S'different'
p3056
asI1695
(lp3057
S'personal'
p3058
asI1696
(lp3059
S'other'
p3060
aS'better'
p3061
asI1697
(lp3062
S'portable'
p3063
asI1698
(lp3064
sI1699
(lp3065
sI1700
(lp3066
sI1701
(lp3067
sI1702
(lp3068
S'nice'
p3069
asI1703
(lp3070
sI1704
(lp3071
sI1705
(lp3072
sI1706
(lp3073
sI1707
(lp3074
sI1708
(lp3075
sI1709
(lp3076
Vlightweight
p3077
aS'small'
p3078
aS'attractable'
p3079
asI1710
(lp3080
S'great'
p3081
asI1711
(lp3082
S'sound'
p3083
aS'normal'
p3084
asI1712
(lp3085
sI1713
(lp3086
S'more'
p3087
asI1714
(lp3088
S'versatile'
p3089
asI1715
(lp3090
sI1716
(lp3091
sI1717
(lp3092
sI1718
(lp3093
S'creative'
p3094
asI1719
(lp3095
S'adminstrative'
p3096
asI1720
(lp3097
sI1721
(lp3098
sI1722
(lp3099
sI1723
(lp3100
sI1724
(lp3101
sI1725
(lp3102
S'expensive'
p3103
asI1726
(lp3104
sI1727
(lp3105
sI1728
(lp3106
S'remote'
p3107
asI1729
(lp3108
S'previous'
p3109
asI1730
(lp3110
S'new'
p3111
asI1731
(lp3112
S'big'
p3113
aS'few'
p3114
aS'sure'
p3115
asI1732
(lp3116
S'chinese'
p3117
aS'actual'
p3118
asI1733
(lp3119
S'chinese'
p3120
aS'different'
p3121
aS'current'
p3122
asI1734
(lp3123
sI1735
(lp3124
S'other'
p3125
asI1736
(lp3126
sI1737
(lp3127
sI1738
(lp3128
sI1739
(lp3129
sI1740
(lp3130
S'english'
p3131
asI1741
(lp3132
S'previous'
p3133
asI1742
(lp3134
sI1743
(lp3135
S'newer'
p3136
asI1744
(lp3137
sI1745
(lp3138
sI1746
(lp3139
sI1747
(lp3140
S'right'
p3141
asI1748
(lp3142
sI1749
(lp3143
sI1750
(lp3144
sI1751
(lp3145
sI1752
(lp3146
sI1753
(lp3147
sI1754
(lp3148
sI1755
(lp3149
sI1756
(lp3150
sI1757
(lp3151
S'big'
p3152
aS'good'
p3153
asI1758
(lp3154
sI1759
(lp3155
Vbright
p3156
aS'easy'
p3157
aS'sound'
p3158
aS'cool'
p3159
aS'replaceable'
p3160
aS'major'
p3161
asI1760
(lp3162
S'good'
p3163
aS'sound'
p3164
asI1761
(lp3165
S'eclectic'
p3166
asI1762
(lp3167
S'only'
p3168
asI1763
(lp3169
S'forward'
p3170
aS'extra'
p3171
asI1764
(lp3172
S'urgent'
p3173
asI1765
(lp3174
S'other'
p3175
asI1766
(lp3176
sI1767
(lp3177
S'creative'
p3178
asI1768
(lp3179
sI1769
(lp3180
S'bigger'
p3181
asI1770
(lp3182
sI1771
(lp3183
sI1772
(lp3184
S'east'
p3185
asI1773
(lp3186
sI1774
(lp3187
S'better'
p3188
asI1775
(lp3189
S'more'
p3190
aS'dandy'
p3191
asI1776
(lp3192
S'great'
p3193
aS'unbeatable'
p3194
asI1777
(lp3195
S'less'
p3196
asI1778
(lp3197
S'basic'
p3198
asI1779
(lp3199
sI1780
(lp3200
sI1781
(lp3201
S'other'
p3202
asI1782
(lp3203
sI1783
(lp3204
sI1784
(lp3205
S'sound'
p3206
aS'great'
p3207
asI1785
(lp3208
sI1786
(lp3209
S'original'
p3210
aS'past'
p3211
asI1787
(lp3212
sI1788
(lp3213
S'neat'
p3214
asI1789
(lp3215
sI1790
(lp3216
sI1791
(lp3217
sI1792
(lp3218
S'little'
p3219
aS'big'
p3220
asI1793
(lp3221
sI1794
(lp3222
sI1795
(lp3223
S'bad'
p3224
asI1796
(lp3225
S'painless'
p3226
asI1797
(lp3227
sI1798
(lp3228
S'more'
p3229
asI1799
(lp3230
Vlarge
p3231
aS'bright'
p3232
asI1800
(lp3233
sI1801
(lp3234
sI1802
(lp3235
Vweak
p3236
aS'quirky'
p3237
aS'little'
p3238
asI1803
(lp3239
S'original'
p3240
asI1804
(lp3241
S'new'
p3242
asI1805
(lp3243
S'better'
p3244
asI1806
(lp3245
sI1807
(lp3246
sI1808
(lp3247
S'enclosed'
p3248
asI1809
(lp3249
S'creative'
p3250
asI1810
(lp3251
sI1811
(lp3252
sI1812
(lp3253
sI1813
(lp3254
Veasier
p3255
asI1814
(lp3256
sI1815
(lp3257
S'creative'
p3258
asI1816
(lp3259
S'enclosed'
p3260
asI1817
(lp3261
sI1818
(lp3262
S'sound'
p3263
asI1819
(lp3264
Veasy
p3265
aS'uncomplicated'
p3266
asI1820
(lp3267
Vfast
p3268
aS'easy'
p3269
asI1821
(lp3270
S'actual'
p3271
asI1822
(lp3272
S'high'
p3273
asI1823
(lp3274
sI1824
(lp3275
sI1825
(lp3276
S'nice'
p3277
asI1826
(lp3278
S'best'
p3279
aS'sound'
p3280
aS'2nd'
p3281
aS'creative'
p3282
asI1827
(lp3283
sI1828
(lp3284
sI1829
(lp3285
sI1830
(lp3286
S'inferior'
p3287
aS'simple'
p3288
asI1831
(lp3289
sI1832
(lp3290
S'various'
p3291
asI1833
(lp3292
S'creative'
p3293
asI1834
(lp3294
S'great'
p3295
aS'red'
p3296
asI1835
(lp3297
sI1836
(lp3298
sI1837
(lp3299
S'great'
p3300
asI1838
(lp3301
S'best'
p3302
asI1839
(lp3303
S'readable'
p3304
aS'easy'
p3305
asI1840
(lp3306
sI1841
(lp3307
sI1842
(lp3308
sI1843
(lp3309
S'little'
p3310
asI1844
(lp3311
sI1845
(lp3312
sI1846
(lp3313
S'particular'
p3314
asI1847
(lp3315
sI1848
(lp3316
sI1849
(lp3317
Vdefective
p3318
aS'inferior'
p3319
aS'strange'
p3320
aS'obvious'
p3321
asI1850
(lp3322
sI1851
(lp3323
sI1852
(lp3324
sI1853
(lp3325
sI1854
(lp3326
sI1855
(lp3327
sI1856
(lp3328
sI1857
(lp3329
sI1858
(lp3330
sI1859
(lp3331
S'normal'
p3332
asI1860
(lp3333
sI1861
(lp3334
S'favorite'
p3335
asI1862
(lp3336
S'creative'
p3337
asI1863
(lp3338
sI1864
(lp3339
sI1865
(lp3340
S'new'
p3341
asI1866
(lp3342
sI1867
(lp3343
sI1868
(lp3344
S'other'
p3345
asI1869
(lp3346
sI1870
(lp3347
sI1871
(lp3348
sI1872
(lp3349
sI1873
(lp3350
sI1874
(lp3351
sI1875
(lp3352
sI1876
(lp3353
sI1877
(lp3354
sI1878
(lp3355
S'extended'
p3356
aS'hard'
p3357
asI1879
(lp3358
sI1880
(lp3359
sI1881
(lp3360
sI1882
(lp3361
S'cumbersome'
p3362
asI1883
(lp3363
sI1884
(lp3364
sI1885
(lp3365
sI1886
(lp3366
S'new'
p3367
asI1887
(lp3368
sI1888
(lp3369
S'available'
p3370
aS'other'
p3371
asI1889
(lp3372
sI1890
(lp3373
S'main'
p3374
aS'odd'
p3375
asI1891
(lp3376
sI1892
(lp3377
S'short'
p3378
asI1893
(lp3379
sI1894
(lp3380
sI1895
(lp3381
sI1896
(lp3382
sI1897
(lp3383
S'other'
p3384
asI1898
(lp3385
sI1899
(lp3386
sI1900
(lp3387
sI1901
(lp3388
S'other'
p3389
asI1902
(lp3390
S'similar'
p3391
aS'other'
p3392
aS'new'
p3393
asI1903
(lp3394
S'new'
p3395
asI1904
(lp3396
S'particular'
p3397
asI1905
(lp3398
S'extended'
p3399
asI1906
(lp3400
sI1907
(lp3401
S'fine'
p3402
aS'creative'
p3403
aS'second'
p3404
asI1908
(lp3405
S'bad'
p3406
asI1909
(lp3407
S'bigger'
p3408
aS'little'
p3409
aS'more'
p3410
asI1910
(lp3411
sI1911
(lp3412
S'positive'
p3413
asI1912
(lp3414
S'sound'
p3415
asI1913
(lp3416
Veasy
p3417
aS'good'
p3418
asI1914
(lp3419
S'better'
p3420
asI1915
(lp3421
S'better'
p3422
aS'short'
p3423
asI1916
(lp3424
sI1917
(lp3425
S'decent'
p3426
asI1918
(lp3427
S'good'
p3428
asI1919
(lp3429
sI1920
(lp3430
sI1921
(lp3431
S'due'
p3432
aS'1st'
p3433
asI1922
(lp3434
sI1923
(lp3435
sI1924
(lp3436
sI1925
(lp3437
sI1926
(lp3438
S'replaceable'
p3439
asI1927
(lp3440
sI1928
(lp3441
S'1st'
p3442
asI1929
(lp3443
sI1930
(lp3444
sI1931
(lp3445
sI1932
(lp3446
sI1933
(lp3447
sI1934
(lp3448
sI1935
(lp3449
sI1936
(lp3450
S'short'
p3451
asI1937
(lp3452
sI1938
(lp3453
sI1939
(lp3454
sI1940
(lp3455
sI1941
(lp3456
sI1942
(lp3457
S'1st'
p3458
asI1943
(lp3459
sI1944
(lp3460
sI1945
(lp3461
sI1946
(lp3462
sI1947
(lp3463
S'extended'
p3464
asI1948
(lp3465
sI1949
(lp3466
sI1950
(lp3467
sI1951
(lp3468
S'best'
p3469
aS'free'
p3470
asI1952
(lp3471
sI1953
(lp3472
sI1954
(lp3473
S'full'
p3474
asI1955
(lp3475
S'10gb'
p3476
asI1956
(lp3477
sI1957
(lp3478
sI1958
(lp3479
sI1959
(lp3480
S'less'
p3481
asI1960
(lp3482
S'less'
p3483
asI1961
(lp3484
sI1962
(lp3485
S'lower'
p3486
asI1963
(lp3487
sI1964
(lp3488
sI1965
(lp3489
S'replaceable'
p3490
aS'main'
p3491
asI1966
(lp3492
sI1967
(lp3493
sI1968
(lp3494
S'compatible'
p3495
asI1969
(lp3496
sI1970
(lp3497
sI1971
(lp3498
sI1972
(lp3499
sI1973
(lp3500
S'past'
p3501
asI1974
(lp3502
S'better'
p3503
asI1975
(lp3504
sI1976
(lp3505
sI1977
(lp3506
sI1978
(lp3507
sI1979
(lp3508
sI1980
(lp3509
sI1981
(lp3510
S'nice'
p3511
aS'easy'
p3512
aS'heavy'
p3513
asI1982
(lp3514
sI1983
(lp3515
sI1984
(lp3516
sI1985
(lp3517
sI1986
(lp3518
sI1987
(lp3519
sI1988
(lp3520
sI1989
(lp3521
sI1990
(lp3522
S'low'
p3523
asI1991
(lp3524
S'separate'
p3525
asI1992
(lp3526
sI1993
(lp3527
S'sound'
p3528
asI1994
(lp3529
S'high'
p3530
asI1995
(lp3531
sI1996
(lp3532
S'similar'
p3533
asI1997
(lp3534
S'tough'
p3535
aS'old'
p3536
asI1998
(lp3537
sI1999
(lp3538
S'good'
p3539
asI2000
(lp3540
sI2001
(lp3541
S'nice'
p3542
asI2002
(lp3543
sI2003
(lp3544
sI2004
(lp3545
sI2005
(lp3546
S'good'
p3547
asI2006
(lp3548
sI2007
(lp3549
sI2008
(lp3550
sI2009
(lp3551
sI2010
(lp3552
sI2011
(lp3553
S'other'
p3554
asI2012
(lp3555
S'new'
p3556
aS'much'
p3557
asI2013
(lp3558
sI2014
(lp3559
S'creative'
p3560
asI2015
(lp3561
sI2016
(lp3562
sI2017
(lp3563
sI2018
(lp3564
S'better'
p3565
asI2019
(lp3566
sI2020
(lp3567
S'hard'
p3568
aS'better'
p3569
asI2021
(lp3570
sI2022
(lp3571
sI2023
(lp3572
Vuseless
p3573
aS'ugly'
p3574
aS'creative'
p3575
asI2024
(lp3576
sI2025
(lp3577
S'bad'
p3578
asI2026
(lp3579
sI2027
(lp3580
sI2028
(lp3581
S'vast'
p3582
asI2029
(lp3583
S'only'
p3584
aS'stylish'
p3585
aS'little'
p3586
asI2030
(lp3587
sI2031
(lp3588
sI2032
(lp3589
sI2033
(lp3590
S'longer'
p3591
aS'greater'
p3592
asI2034
(lp3593
S'sound'
p3594
aS'visceral'
p3595
asI2035
(lp3596
sI2036
(lp3597
S'violent'
p3598
aS'extreme'
p3599
asI2037
(lp3600
sI2038
(lp3601
S'lonely'
p3602
asI2039
(lp3603
sI2040
(lp3604
sI2041
(lp3605
S'only'
p3606
asI2042
(lp3607
sI2043
(lp3608
sI2044
(lp3609
S'alphebetical'
p3610
asI2045
(lp3611
sI2046
(lp3612
S'live'
p3613
asI2047
(lp3614
sI2048
(lp3615
sI2049
(lp3616
sI2050
(lp3617
sI2051
(lp3618
sI2052
(lp3619
sI2053
(lp3620
sI2054
(lp3621
sI2055
(lp3622
S'hard'
p3623
aS'doesnt'
p3624
asI2056
(lp3625
sI2057
(lp3626
S'doesnt'
p3627
asI2058
(lp3628
sI2059
(lp3629
S'shiny'
p3630
aS'new'
p3631
aS'nice'
p3632
asI2060
(lp3633
S'more'
p3634
aS'functional'
p3635
asI2061
(lp3636
sI2062
(lp3637
sI2063
(lp3638
sI2064
(lp3639
sI2065
(lp3640
S'creative'
p3641
asI2066
(lp3642
sI2067
(lp3643
sI2068
(lp3644
sI2069
(lp3645
sI2070
(lp3646
sI2071
(lp3647
sI2072
(lp3648
sI2073
(lp3649
S'blue'
p3650
aS'clear'
p3651
asI2074
(lp3652
sI2075
(lp3653
sI2076
(lp3654
sI2077
(lp3655
sI2078
(lp3656
S'other'
p3657
asI2079
(lp3658
sI2080
(lp3659
S'sound'
p3660
asI2081
(lp3661
Veasy
p3662
aS'intuitive'
p3663
asI2082
(lp3664
sI2083
(lp3665
Vquick
p3666
aS'easy'
p3667
asI2084
(lp3668
sI2085
(lp3669
S'minimal'
p3670
asI2086
(lp3671
S'great'
p3672
asI2087
(lp3673
sI2088
(lp3674
Vdifficult
p3675
aS'horrible'
p3676
asI2089
(lp3677
sI2090
(lp3678
sI2091
(lp3679
S'interesting'
p3680
aS'such'
p3681
asI2092
(lp3682
S'replacable'
p3683
asI2093
(lp3684
sI2094
(lp3685
sI2095
(lp3686
S'big'
p3687
asI2096
(lp3688
Vstrong
p3689
aS'stylish'
p3690
aS'big'
p3691
asI2097
(lp3692
S'regular'
p3693
asI2098
(lp3694
sI2099
(lp3695
S'ideal'
p3696
asI2100
(lp3697
sI2101
(lp3698
sI2102
(lp3699
S'good'
p3700
asI2103
(lp3701
S'good'
p3702
asI2104
(lp3703
S'main'
p3704
asI2105
(lp3705
sI2106
(lp3706
sI2107
(lp3707
sI2108
(lp3708
S'other'
p3709
asI2109
(lp3710
sI2110
(lp3711
S'quick'
p3712
asI2111
(lp3713
sI2112
(lp3714
S'bigger'
p3715
aS'small'
p3716
aVdifferent
p3717
aS'expensive'
p3718
aS'inferior'
p3719
asI2113
(lp3720
S'sound'
p3721
aS'superior'
p3722
asI2114
(lp3723
S'previous'
p3724
aS'blue'
p3725
aS'green'
p3726
asI2115
(lp3727
Vcumbersome
p3728
aS'difficult'
p3729
aS'great'
p3730
asI2116
(lp3731
S'creative'
p3732
asI2117
(lp3733
S'big'
p3734
asI2118
(lp3735
S'environmental'
p3736
aS'variable'
p3737
asI2119
(lp3738
S'detectable'
p3739
aS'useful'
p3740
aS'larger'
p3741
asI2120
(lp3742
sI2121
(lp3743
S'separate'
p3744
asI2122
(lp3745
S'average'
p3746
asI2123
(lp3747
S'more'
p3748
asI2124
(lp3749
S'fantastic'
p3750
asI2125
(lp3751
sI2126
(lp3752
S'better'
p3753
aS'terrible'
p3754
aS'prospective'
p3755
asI2127
(lp3756
S'sound'
p3757
aS'great'
p3758
aS'personal'
p3759
aS'large'
p3760
asI2128
(lp3761
sI2129
(lp3762
S'bitter'
p3763
aS'sad'
p3764
asI2130
(lp3765
sI2131
(lp3766
sI2132
(lp3767
S'new'
p3768
asI2133
(lp3769
S'new'
p3770
asI2134
(lp3771
sI2135
(lp3772
sI2136
(lp3773
S'pretty'
p3774
asI2137
(lp3775
Vgood
p3776
aS'loud'
p3777
aS'portable'
p3778
asI2138
(lp3779
sI2139
(lp3780
S'cool'
p3781
asI2140
(lp3782
sI2141
(lp3783
sI2142
(lp3784
sI2143
(lp3785
S'good'
p3786
asI2144
(lp3787
sI2145
(lp3788
sI2146
(lp3789
S'spare'
p3790
asI2147
(lp3791
sI2148
(lp3792
S'hard'
p3793
asI2149
(lp3794
sI2150
(lp3795
sI2151
(lp3796
S'sound'
p3797
aS'exceptional'
p3798
aS'good'
p3799
asI2152
(lp3800
sI2153
(lp3801
sI2154
(lp3802
S'environmental'
p3803
aS'great'
p3804
asI2155
(lp3805
S'additional'
p3806
asI2156
(lp3807
S'easier'
p3808
asI2157
(lp3809
S'hard'
p3810
aS'other'
p3811
asI2158
(lp3812
sI2159
(lp3813
sI2160
(lp3814
S'portable'
p3815
asI2161
(lp3816
S'large'
p3817
asI2162
(lp3818
sI2163
(lp3819
sI2164
(lp3820
sI2165
(lp3821
sI2166
(lp3822
S'fast'
p3823
asI2167
(lp3824
sI2168
(lp3825
sI2169
(lp3826
sI2170
(lp3827
sI2171
(lp3828
sI2172
(lp3829
sI2173
(lp3830
sI2174
(lp3831
S'single'
p3832
asI2175
(lp3833
sI2176
(lp3834
S'simple'
p3835
aS'local'
p3836
asI2177
(lp3837
sI2178
(lp3838
S'hard'
p3839
asI2179
(lp3840
S'actual'
p3841
aS'delicate'
p3842
aS'hard'
p3843
asI2180
(lp3844
sI2181
(lp3845
S'portable'
p3846
aS'durable'
p3847
asI2182
(lp3848
S'thin'
p3849
asI2183
(lp3850
sI2184
(lp3851
sI2185
(lp3852
sI2186
(lp3853
sI2187
(lp3854
S'entire'
p3855
asI2188
(lp3856
sI2189
(lp3857
S'easier'
p3858
asI2190
(lp3859
sI2191
(lp3860
S'good'
p3861
asI2192
(lp3862
Vdifficult
p3863
aS'awkward'
p3864
asI2193
(lp3865
sI2194
(lp3866
sI2195
(lp3867
sI2196
(lp3868
sI2197
(lp3869
sI2198
(lp3870
S'true'
p3871
asI2199
(lp3872
S'true'
p3873
aS'decent'
p3874
asI2200
(lp3875
sI2201
(lp3876
sI2202
(lp3877
sI2203
(lp3878
sI2204
(lp3879
S'old'
p3880
aS'digital'
p3881
asI2205
(lp3882
S'instant'
p3883
asI2206
(lp3884
S'crappy'
p3885
asI2207
(lp3886
S'included'
p3887
asI2208
(lp3888
S'comfortable'
p3889
asI2209
(lp3890
sI2210
(lp3891
sI2211
(lp3892
S'biggest'
p3893
asI2212
(lp3894
sI2213
(lp3895
S'better'
p3896
asI2214
(lp3897
sI2215
(lp3898
sI2216
(lp3899
sI2217
(lp3900
sI2218
(lp3901
sI2219
(lp3902
sI2220
(lp3903
S'decent'
p3904
asI2221
(lp3905
S'sound'
p3906
aS'low'
p3907
asI2222
(lp3908
S'multiple'
p3909
aS'large'
p3910
asI2223
(lp3911
sI2224
(lp3912
S'multiple'
p3913
aS'hard'
p3914
asI2225
(lp3915
sI2226
(lp3916
sI2227
(lp3917
S'simple'
p3918
asI2228
(lp3919
S'major'
p3920
asI2229
(lp3921
S'multiple'
p3922
asI2230
(lp3923
sI2231
(lp3924
S'good'
p3925
asI2232
(lp3926
sI2233
(lp3927
S'hard'
p3928
asI2234
(lp3929
S'simple'
p3930
asI2235
(lp3931
sI2236
(lp3932
S'special'
p3933
aS'less'
p3934
aS'cumbersome'
p3935
asI2237
(lp3936
sI2238
(lp3937
S'more'
p3938
asI2239
(lp3939
sI2240
(lp3940
S'better'
p3941
asI2241
(lp3942
S'basic'
p3943
asI2242
(lp3944
sI2243
(lp3945
sI2244
(lp3946
sI2245
(lp3947
S'little'
p3948
asI2246
(lp3949
sI2247
(lp3950
sI2248
(lp3951
sI2249
(lp3952
S'small'
p3953
asI2250
(lp3954
S'good'
p3955
aS'lttle'
p3956
asI2251
(lp3957
S'very'
p3958
aS'friendly'
p3959
asI2252
(lp3960
sI2253
(lp3961
S'creative'
p3962
aS'excellent'
p3963
asI2254
(lp3964
sI2255
(lp3965
Vsmall
p3966
aS'light'
p3967
aS'nice'
p3968
asI2256
(lp3969
sI2257
(lp3970
S'different'
p3971
aS'best'
p3972
asI2258
(lp3973
S'single'
p3974
asI2259
(lp3975
S'hard'
p3976
asI2260
(lp3977
S'smooth'
p3978
asI2261
(lp3979
S'simple'
p3980
asI2262
(lp3981
S'sound'
p3982
aS'huge'
p3983
asI2263
(lp3984
sI2264
(lp3985
sI2265
(lp3986
sI2266
(lp3987
S'glaring'
p3988
asI2267
(lp3989
S'cool'
p3990
asI2268
(lp3991
sI2269
(lp3992
sI2270
(lp3993
sI2271
(lp3994
sI2272
(lp3995
sI2273
(lp3996
sI2274
(lp3997
sI2275
(lp3998
sI2276
(lp3999
sI2277
(lp4000
S'enough'
p4001
asI2278
(lp4002
sI2279
(lp4003
S'nice'
p4004
asI2280
(lp4005
sI2281
(lp4006
S'included'
p4007
asI2282
(lp4008
sI2283
(lp4009
S'portable'
p4010
aS'regular'
p4011
asI2284
(lp4012
sI2285
(lp4013
S'major'
p4014
asI2286
(lp4015
S'significant'
p4016
aS'sound'
p4017
asI2287
(lp4018
S'limited'
p4019
asI2288
(lp4020
S'enough'
p4021
asI2289
(lp4022
sI2290
(lp4023
S'portable'
p4024
aS'simple'
p4025
aS'sound'
p4026
asI2291
(lp4027
S'sound'
p4028
asI2292
(lp4029
S'minor'
p4030
asI2293
(lp4031
sI2294
(lp4032
sI2295
(lp4033
sI2296
(lp4034
sI2297
(lp4035
S'other'
p4036
asI2298
(lp4037
sI2299
(lp4038
sI2300
(lp4039
S'other'
p4040
asI2301
(lp4041
sI2302
(lp4042
sI2303
(lp4043
sI2304
(lp4044
sI2305
(lp4045
S'big'
p4046
aS'better'
p4047
asI2306
(lp4048
S'better'
p4049
asI2307
(lp4050
sI2308
(lp4051
sI2309
(lp4052
S'fine'
p4053
asI2310
(lp4054
sI2311
(lp4055
sI2312
(lp4056
sI2313
(lp4057
S'only'
p4058
asI2314
(lp4059
sI2315
(lp4060
S'fast'
p4061
asI2316
(lp4062
sI2317
(lp4063
S'weighty'
p4064
asI2318
(lp4065
S'big'
p4066
asI2319
(lp4067
sI2320
(lp4068
sI2321
(lp4069
S'big'
p4070
aS'easy'
p4071
asI2322
(lp4072
S'favorite'
p4073
asI2323
(lp4074
sI2324
(lp4075
sI2325
(lp4076
S'sound'
p4077
aS'good'
p4078
asI2326
(lp4079
sI2327
(lp4080
sI2328
(lp4081
sI2329
(lp4082
S'nice'
p4083
asI2330
(lp4084
S'remote'
p4085
asI2331
(lp4086
S'more'
p4087
asI2332
(lp4088
sI2333
(lp4089
S'doesnt'
p4090
asI2334
(lp4091
sI2335
(lp4092
S'small'
p4093
asI2336
(lp4094
S'better'
p4095
asI2337
(lp4096
sI2338
(lp4097
sI2339
(lp4098
S'great'
p4099
aS'open'
p4100
asI2340
(lp4101
S'horrible'
p4102
asI2341
(lp4103
S'fine'
p4104
aS'top'
p4105
aS'intuitive'
p4106
asI2342
(lp4107
sI2343
(lp4108
sI2344
(lp4109
Vbad
p4110
aS'larger'
p4111
asI2345
(lp4112
S'mediocre'
p4113
asI2346
(lp4114
S'horrible'
p4115
asI2347
(lp4116
sI2348
(lp4117
S'excellent'
p4118
asI2349
(lp4119
sI2350
(lp4120
sI2351
(lp4121
S'dynamic'
p4122
aS'creative'
p4123
aS'long'
p4124
aS'awkward'
p4125
asI2352
(lp4126
sI2353
(lp4127
sI2354
(lp4128
S'satisfactory'
p4129
aS'average'
p4130
asI2355
(lp4131
S'responsive'
p4132
asI2356
(lp4133
S'new'
p4134
aS'hard'
p4135
asI2357
(lp4136
S'attractive'
p4137
asI2358
(lp4138
sI2359
(lp4139
sI2360
(lp4140
sI2361
(lp4141
sI2362
(lp4142
S'longer'
p4143
aS'heavier'
p4144
asI2363
(lp4145
sI2364
(lp4146
Vlarge
p4147
aS'huge'
p4148
asI2365
(lp4149
S'huge'
p4150
asI2366
(lp4151
sI2367
(lp4152
sI2368
(lp4153
sI2369
(lp4154
S'short'
p4155
asI2370
(lp4156
sI2371
(lp4157
S'older'
p4158
aS'quicker'
p4159
asI2372
(lp4160
S'only'
p4161
asI2373
(lp4162
sI2374
(lp4163
sI2375
(lp4164
S'different'
p4165
aS'separate'
p4166
asI2376
(lp4167
S'classic'
p4168
aS'other'
p4169
asI2377
(lp4170
S'weirdest'
p4171
asI2378
(lp4172
sI2379
(lp4173
S'troublesome'
p4174
aS'different'
p4175
asI2380
(lp4176
sI2381
(lp4177
S'minor'
p4178
aS'other'
p4179
asI2382
(lp4180
sI2383
(lp4181
sI2384
(lp4182
sI2385
(lp4183
sI2386
(lp4184
sI2387
(lp4185
S'alphabetical'
p4186
asI2388
(lp4187
S'alphabetical'
p4188
asI2389
(lp4189
S'other'
p4190
aS'unlisted'
p4191
asI2390
(lp4192
sI2391
(lp4193
sI2392
(lp4194
S'minor'
p4195
asI2393
(lp4196
sI2394
(lp4197
sI2395
(lp4198
sI2396
(lp4199
sI2397
(lp4200
sI2398
(lp4201
sI2399
(lp4202
sI2400
(lp4203
S'better'
p4204
asI2401
(lp4205
sI2402
(lp4206
S'creative'
p4207
asI2403
(lp4208
sI2404
(lp4209
sI2405
(lp4210
S'outstanding'
p4211
aS'hard'
p4212
asI2406
(lp4213
sI2407
(lp4214
sI2408
(lp4215
S'hard'
p4216
asI2409
(lp4217
sI2410
(lp4218
S'creative'
p4219
asI2411
(lp4220
sI2412
(lp4221
sI2413
(lp4222
sI2414
(lp4223
sI2415
(lp4224
S'creative'
p4225
asI2416
(lp4226
sI2417
(lp4227
sI2418
(lp4228
sI2419
(lp4229
S'wrong'
p4230
asI2420
(lp4231
sI2421
(lp4232
sI2422
(lp4233
sI2423
(lp4234
sI2424
(lp4235
sI2425
(lp4236
sI2426
(lp4237
S'temporary'
p4238
asI2427
(lp4239
sI2428
(lp4240
S'beautiful'
p4241
asI2429
(lp4242
sI2430
(lp4243
Vcranky
p4244
aS'easier'
p4245
asI2431
(lp4246
S'good'
p4247
asI2432
(lp4248
sI2433
(lp4249
sI2434
(lp4250
sI2435
(lp4251
S'whole'
p4252
asI2436
(lp4253
S'awful'
p4254
asI2437
(lp4255
S'only'
p4256
asI2438
(lp4257
sI2439
(lp4258
S'large'
p4259
asI2440
(lp4260
S'quick'
p4261
asI2441
(lp4262
S'other'
p4263
asI2442
(lp4264
S'great'
p4265
asI2443
(lp4266
S'mobile'
p4267
aS'much'
p4268
asI2444
(lp4269
S'great'
p4270
asI2445
(lp4271
sI2446
(lp4272
sI2447
(lp4273
S'hard'
p4274
asI2448
(lp4275
S'hard'
p4276
asI2449
(lp4277
Vlight
p4278
aS'compact'
p4279
asI2450
(lp4280
sI2451
(lp4281
sI2452
(lp4282
Vsmall
p4283
aS'light'
p4284
asI2453
(lp4285
sI2454
(lp4286
sI2455
(lp4287
S'hard'
p4288
asI2456
(lp4289
S'prone'
p4290
asI2457
(lp4291
S'sturdy'
p4292
asI2458
(lp4293
sI2459
(lp4294
S'weird'
p4295
asI2460
(lp4296
S'more'
p4297
asI2461
(lp4298
S'lighter'
p4299
aS'hard'
p4300
asI2462
(lp4301
sI2463
(lp4302
sI2464
(lp4303
sI2465
(lp4304
S'hard'
p4305
asI2466
(lp4306
sI2467
(lp4307
S'similar'
p4308
asI2468
(lp4309
S'decent'
p4310
asI2469
(lp4311
S'good'
p4312
asI2470
(lp4313
S'front'
p4314
aS'flimsy'
p4315
aS'solid'
p4316
asI2471
(lp4317
S'other'
p4318
asI2472
(lp4319
sI2473
(lp4320
sI2474
(lp4321
sI2475
(lp4322
sI2476
(lp4323
sI2477
(lp4324
sI2478
(lp4325
sI2479
(lp4326
S'great'
p4327
asI2480
(lp4328
S'more'
p4329
asI2481
(lp4330
sI2482
(lp4331
S'big'
p4332
asI2483
(lp4333
sI2484
(lp4334
sI2485
(lp4335
S'only'
p4336
asI2486
(lp4337
sI2487
(lp4338
sI2488
(lp4339
sI2489
(lp4340
sI2490
(lp4341
sI2491
(lp4342
S'great'
p4343
asI2492
(lp4344
sI2493
(lp4345
sI2494
(lp4346
sI2495
(lp4347
sI2496
(lp4348
S'good'
p4349
aS'blue'
p4350
aS'different'
p4351
asI2497
(lp4352
Vlarger
p4353
aS'light'
p4354
aS'other'
p4355
asI2498
(lp4356
sI2499
(lp4357
S'good'
p4358
aS'best'
p4359
aS'great'
p4360
asI2500
(lp4361
sI2501
(lp4362
sI2502
(lp4363
Vheavier
p4364
aS'larger'
p4365
asI2503
(lp4366
S'new'
p4367
aS'difficult'
p4368
aS'such'
p4369
asI2504
(lp4370
S'unproven'
p4371
asI2505
(lp4372
S'excessive'
p4373
aS'rechargeable'
p4374
asI2506
(lp4375
S'old'
p4376
asI2507
(lp4377
S'viable'
p4378
aS'alternative'
p4379
asI2508
(lp4380
S'small'
p4381
asI2509
(lp4382
S'overall'
p4383
aS'flat'
p4384
aS'sound'
p4385
aS'superior'
p4386
aS'such'
p4387
asI2510
(lp4388
S'superior'
p4389
asI2511
(lp4390
sI2512
(lp4391
sI2513
(lp4392
sI2514
(lp4393
S'removable'
p4394
asI2515
(lp4395
sI2516
(lp4396
S'protective'
p4397
asI2517
(lp4398
sI2518
(lp4399
S'gigantic'
p4400
aS'unnoticed'
p4401
asI2519
(lp4402
S'earlier'
p4403
asI2520
(lp4404
sI2521
(lp4405
S'dimished'
p4406
asI2522
(lp4407
S'digital'
p4408
asI2523
(lp4409
S'enough'
p4410
aS'larger'
p4411
aS'external'
p4412
asI2524
(lp4413
sI2525
(lp4414
S'identical'
p4415
aS'live'
p4416
aS'greatest'
p4417
asI2526
(lp4418
S'random'
p4419
asI2527
(lp4420
sI2528
(lp4421
sI2529
(lp4422
sI2530
(lp4423
S'final'
p4424
asI2531
(lp4425
S'good'
p4426
aS'great'
p4427
aS'terrible'
p4428
aS'difficult'
p4429
asI2532
(lp4430
sI2533
(lp4431
sI2534
(lp4432
S'free'
p4433
aS'good'
p4434
aS'available'
p4435
asI2535
(lp4436
sI2536
(lp4437
S'multiple'
p4438
asI2537
(lp4439
sI2538
(lp4440
sI2539
(lp4441
sI2540
(lp4442
sI2541
(lp4443
sI2542
(lp4444
S'identical'
p4445
asI2543
(lp4446
sI2544
(lp4447
sI2545
(lp4448
sI2546
(lp4449
S'portable'
p4450
asI2547
(lp4451
sI2548
(lp4452
S'extraneous'
p4453
asI2549
(lp4454
sI2550
(lp4455
sI2551
(lp4456
S'great'
p4457
asI2552
(lp4458
sI2553
(lp4459
S'tiny'
p4460
aS'great'
p4461
aS'amazing'
p4462
aS'entire'
p4463
aS'digital'
p4464
asI2554
(lp4465
S'easy'
p4466
aS'terrific'
p4467
asI2555
(lp4468
sI2556
(lp4469
S'powerful'
p4470
asI2557
(lp4471
sI2558
(lp4472
sI2559
(lp4473
S'best'
p4474
aS'large'
p4475
asI2560
(lp4476
sI2561
(lp4477
sI2562
(lp4478
sI2563
(lp4479
sI2564
(lp4480
S'internal'
p4481
asI2565
(lp4482
sI2566
(lp4483
sI2567
(lp4484
sI2568
(lp4485
sI2569
(lp4486
sI2570
(lp4487
sI2571
(lp4488
sI2572
(lp4489
sI2573
(lp4490
S'optional'
p4491
aS'creative'
p4492
aS'extended'
p4493
asI2574
(lp4494
sI2575
(lp4495
S'creative'
p4496
aS'best'
p4497
aS'sound'
p4498
asI2576
(lp4499
sI2577
(lp4500
sI2578
(lp4501
S'more'
p4502
asI2579
(lp4503
S'40gb'
p4504
asI2580
(lp4505
S'extended'
p4506
asI2581
(lp4507
sI2582
(lp4508
S'front'
p4509
asI2583
(lp4510
S'new'
p4511
asI2584
(lp4512
S'new'
p4513
asI2585
(lp4514
sI2586
(lp4515
sI2587
(lp4516
sI2588
(lp4517
sI2589
(lp4518
S'external'
p4519
asI2590
(lp4520
S'included'
p4521
asI2591
(lp4522
sI2592
(lp4523
sI2593
(lp4524
S'other'
p4525
asI2594
(lp4526
sI2595
(lp4527
sI2596
(lp4528
sI2597
(lp4529
sI2598
(lp4530
sI2599
(lp4531
sI2600
(lp4532
S'real'
p4533
asI2601
(lp4534
S'overall'
p4535
aS'big'
p4536
aS'creative'
p4537
aS'potential'
p4538
asI2602
(lp4539
S'good'
p4540
asI2603
(lp4541
S'entire'
p4542
aS'portable'
p4543
aS'more'
p4544
aS'basic'
p4545
asI2604
(lp4546
sI2605
(lp4547
S'minimal'
p4548
aS'audible'
p4549
asI2606
(lp4550
sI2607
(lp4551
S'creative'
p4552
aS'ok'
p4553
asI2608
(lp4554
sI2609
(lp4555
sI2610
(lp4556
sI2611
(lp4557
S'good'
p4558
asI2612
(lp4559
sI2613
(lp4560
sI2614
(lp4561
sI2615
(lp4562
sI2616
(lp4563
S'static'
p4564
asI2617
(lp4565
sI2618
(lp4566
sI2619
(lp4567
sI2620
(lp4568
sI2621
(lp4569
sI2622
(lp4570
S'serious'
p4571
asI2623
(lp4572
sI2624
(lp4573
sI2625
(lp4574
sI2626
(lp4575
sI2627
(lp4576
S'hard'
p4577
asI2628
(lp4578
S'other'
p4579
aS'convenient'
p4580
asI2629
(lp4581
sI2630
(lp4582
sI2631
(lp4583
S'previous'
p4584
asI2632
(lp4585
sI2633
(lp4586
sI2634
(lp4587
S'additional'
p4588
aS'convenient'
p4589
asI2635
(lp4590
sI2636
(lp4591
S'personal'
p4592
asI2637
(lp4593
sI2638
(lp4594
sI2639
(lp4595
sI2640
(lp4596
sI2641
(lp4597
S'other'
p4598
aS'fine'
p4599
asI2642
(lp4600
S'personal'
p4601
asI2643
(lp4602
sI2644
(lp4603
sI2645
(lp4604
S'cute'
p4605
asI2646
(lp4606
sI2647
(lp4607
sI2648
(lp4608
S'creative'
p4609
aS'correct'
p4610
asI2649
(lp4611
S'other'
p4612
aS'more'
p4613
asI2650
(lp4614
sI2651
(lp4615
sI2652
(lp4616
S'only'
p4617
asI2653
(lp4618
sI2654
(lp4619
S'creative'
p4620
aS'mobile'
p4621
asI2655
(lp4622
sI2656
(lp4623
sI2657
(lp4624
S'creative'
p4625
asI2658
(lp4626
sI2659
(lp4627
sI2660
(lp4628
S'available'
p4629
asI2661
(lp4630
S'sound'
p4631
aS'fantastic'
p4632
asI2662
(lp4633
sI2663
(lp4634
sI2664
(lp4635
sI2665
(lp4636
sI2666
(lp4637
sI2667
(lp4638
sI2668
(lp4639
S'whole'
p4640
asI2669
(lp4641
sI2670
(lp4642
S'minor'
p4643
asI2671
(lp4644
S'more'
p4645
asI2672
(lp4646
S'good'
p4647
asI2673
(lp4648
sI2674
(lp4649
sI2675
(lp4650
sI2676
(lp4651
sI2677
(lp4652
sI2678
(lp4653
sI2679
(lp4654
S'sound'
p4655
asI2680
(lp4656
sI2681
(lp4657
S'weird'
p4658
asI2682
(lp4659
sI2683
(lp4660
sI2684
(lp4661
sI2685
(lp4662
sI2686
(lp4663
sI2687
(lp4664
sI2688
(lp4665
sI2689
(lp4666
S'much'
p4667
asI2690
(lp4668
sI2691
(lp4669
S'sound'
p4670
aS'great'
p4671
asI2692
(lp4672
sI2693
(lp4673
Veasy
p4674
aS'effective'
p4675
asI2694
(lp4676
sI2695
(lp4677
sI2696
(lp4678
sI2697
(lp4679
S'front'
p4680
aS'noticeable'
p4681
asI2698
(lp4682
S'front'
p4683
asI2699
(lp4684
S'single'
p4685
asI2700
(lp4686
S'shoddy'
p4687
asI2701
(lp4688
S'good'
p4689
asI2702
(lp4690
sI2703
(lp4691
sI2704
(lp4692
S'right'
p4693
asI2705
(lp4694
S'less'
p4695
asI2706
(lp4696
sI2707
(lp4697
sI2708
(lp4698
sI2709
(lp4699
sI2710
(lp4700
S'electronic'
p4701
asI2711
(lp4702
sI2712
(lp4703
sI2713
(lp4704
sI2714
(lp4705
sI2715
(lp4706
S'other'
p4707
asI2716
(lp4708
S'bad'
p4709
aS'other'
p4710
asI2717
(lp4711
sI2718
(lp4712
S'other'
p4713
asI2719
(lp4714
S'subsequent'
p4715
aS'worse'
p4716
asI2720
(lp4717
sI2721
(lp4718
sI2722
(lp4719
sI2723
(lp4720
S'usual'
p4721
asI2724
(lp4722
sI2725
(lp4723
sI2726
(lp4724
S'good'
p4725
aS'future'
p4726
asI2727
(lp4727
S'vast'
p4728
asI2728
(lp4729
S'moot'
p4730
asI2729
(lp4731
S'hard'
p4732
aS'portable'
p4733
aS'expensive'
p4734
aS'nomad'
p4735
asI2730
(lp4736
sI2731
(lp4737
sI2732
(lp4738
sI2733
(lp4739
S'crummy'
p4740
asI2734
(lp4741
sI2735
(lp4742
S'creative'
p4743
asI2736
(lp4744
sI2737
(lp4745
S'happy'
p4746
asI2738
(lp4747
sI2739
(lp4748
S'new'
p4749
asI2740
(lp4750
sI2741
(lp4751
S'entire'
p4752
asI2742
(lp4753
sI2743
(lp4754
S'great'
p4755
aS'unspecified'
p4756
aS'good'
p4757
aS'external'
p4758
asI2744
(lp4759
sI2745
(lp4760
sI2746
(lp4761
Vlarge
p4762
aS'small'
p4763
aS'easy'
p4764
asI2747
(lp4765
S'primary'
p4766
aS'intended'
p4767
asI2748
(lp4768
S'most'
p4769
asI2749
(lp4770
sI2750
(lp4771
S'replaceable'
p4772
aS'great'
p4773
asI2751
(lp4774
sI2752
(lp4775
S'chic'
p4776
aS'compact'
p4777
asI2753
(lp4778
S'protective'
p4779
aS'fine'
p4780
asI2754
(lp4781
S'creative'
p4782
aS'good'
p4783
asI2755
(lp4784
S'cddb'
p4785
aS'such'
p4786
asI2756
(lp4787
S'easy'
p4788
asI2757
(lp4789
S'fast'
p4790
asI2758
(lp4791
S'audio'
p4792
asI2759
(lp4793
S'specified'
p4794
asI2760
(lp4795
S'musical'
p4796
aS'nice'
p4797
asI2761
(lp4798
S'multiple'
p4799
asI2762
(lp4800
S'good'
p4801
aS'other'
p4802
aS'minimal'
p4803
asI2763
(lp4804
S'entire'
p4805
aS'big'
p4806
aS'small'
p4807
asI2764
(lp4808
sI2765
(lp4809
S'first'
p4810
asI2766
(lp4811
S'older'
p4812
aS'incorrect'
p4813
asI2767
(lp4814
S'most'
p4815
asI2768
(lp4816
sI2769
(lp4817
sI2770
(lp4818
S'many'
p4819
asI2771
(lp4820
S'nice'
p4821
asI2772
(lp4822
sI2773
(lp4823
S'creative'
p4824
aS'great'
p4825
aS'wireless'
p4826
asI2774
(lp4827
S'necessary'
p4828
asI2775
(lp4829
sI2776
(lp4830
sI2777
(lp4831
S'flip'
p4832
asI2778
(lp4833
sI2779
(lp4834
S'creative'
p4835
asI2780
(lp4836
sI2781
(lp4837
S'due'
p4838
aS'creative'
p4839
aS'older'
p4840
asI2782
(lp4841
S'latest'
p4842
asI2783
(lp4843
sI2784
(lp4844
S'extended'
p4845
aS'portable'
p4846
asI2785
(lp4847
S'good'
p4848
asI2786
(lp4849
sI2787
(lp4850
S'wireless'
p4851
asI2788
(lp4852
sI2789
(lp4853
sI2790
(lp4854
sI2791
(lp4855
S'powerful'
p4856
aS'replaceable'
p4857
aS'great'
p4858
aS'good'
p4859
aS'multiple'
p4860
asI2792
(lp4861
sI2793
(lp4862
sI2794
(lp4863
sI2795
(lp4864
sI2796
(lp4865
sI2797
(lp4866
S'attached'
p4867
asI2798
(lp4868
sI2799
(lp4869
sI2800
(lp4870
sI2801
(lp4871
sI2802
(lp4872
sI2803
(lp4873
sI2804
(lp4874
sI2805
(lp4875
sI2806
(lp4876
sI2807
(lp4877
sI2808
(lp4878
sI2809
(lp4879
sI2810
(lp4880
sI2811
(lp4881
S'only'
p4882
asI2812
(lp4883
sI2813
(lp4884
sI2814
(lp4885
sI2815
(lp4886
sI2816
(lp4887
sI2817
(lp4888
sI2818
(lp4889
S'wrong'
p4890
asI2819
(lp4891
sI2820
(lp4892
sI2821
(lp4893
sI2822
(lp4894
S'good'
p4895
asI2823
(lp4896
sI2824
(lp4897
S'other'
p4898
aS'better'
p4899
asI2825
(lp4900
S'entire'
p4901
asI2826
(lp4902
sI2827
(lp4903
sI2828
(lp4904
sI2829
(lp4905
S'hard'
p4906
asI2830
(lp4907
sI2831
(lp4908
S'less'
p4909
asI2832
(lp4910
S'glowing'
p4911
aS'little'
p4912
asI2833
(lp4913
S'acceptible'
p4914
asI2834
(lp4915
S'easy'
p4916
aS'great'
p4917
aS'enough'
p4918
asI2835
(lp4919
S'inconvenient'
p4920
aS'larger'
p4921
aS'big'
p4922
asI2836
(lp4923
S'hard'
p4924
asI2837
(lp4925
sI2838
(lp4926
sI2839
(lp4927
S'known'
p4928
aS'national'
p4929
asI2840
(lp4930
S'best'
p4931
asI2841
(lp4932
S'biggest'
p4933
asI2842
(lp4934
sI2843
(lp4935
S'straight'
p4936
asI2844
(lp4937
sI2845
(lp4938
S'sound'
p4939
aS'creative'
p4940
asI2846
(lp4941
S'crystal'
p4942
asI2847
(lp4943
sI2848
(lp4944
S'included'
p4945
asI2849
(lp4946
sI2850
(lp4947
S'hard'
p4948
aS'massive'
p4949
asI2851
(lp4950
S'awesome'
p4951
asI2852
(lp4952
sI2853
(lp4953
S'minor'
p4954
asI2854
(lp4955
sI2855
(lp4956
sI2856
(lp4957
S'big'
p4958
asI2857
(lp4959
S'unfilled'
p4960
asI2858
(lp4961
sI2859
(lp4962
S'previous'
p4963
asI2860
(lp4964
sI2861
(lp4965
sI2862
(lp4966
S'more'
p4967
asI2863
(lp4968
sI2864
(lp4969
sI2865
(lp4970
sI2866
(lp4971
sI2867
(lp4972
S'hard'
p4973
aS'few'
p4974
asI2868
(lp4975
S'sound'
p4976
aS'other'
p4977
asI2869
(lp4978
sI2870
(lp4979
sI2871
(lp4980
sI2872
(lp4981
sI2873
(lp4982
S'general'
p4983
asI2874
(lp4984
S'great'
p4985
aS'regular'
p4986
asI2875
(lp4987
S'poor'
p4988
asI2876
(lp4989
sI2877
(lp4990
sI2878
(lp4991
sI2879
(lp4992
sI2880
(lp4993
S'good'
p4994
asI2881
(lp4995
S'sturdier'
p4996
asI2882
(lp4997
S'biggest'
p4998
asI2883
(lp4999
sI2884
(lp5000
sI2885
(lp5001
sI2886
(lp5002
sI2887
(lp5003
S'spare'
p5004
asI2888
(lp5005
sI2889
(lp5006
S'good'
p5007
asI2890
(lp5008
S'infamous'
p5009
aS'similar'
p5010
asI2891
(lp5011
S'sturdier'
p5012
aS'resistant'
p5013
asI2892
(lp5014
sI2893
(lp5015
S'huge'
p5016
aS'easy'
p5017
aS'removable'
p5018
asI2894
(lp5019
sI2895
(lp5020
S'advertised'
p5021
aS'available'
p5022
aS'occasional'
p5023
asI2896
(lp5024
S'advertised'
p5025
asI2897
(lp5026
S'digital'
p5027
aS'preloaded'
p5028
asI2898
(lp5029
S'creative'
p5030
asI2899
(lp5031
S'nomad'
p5032
aS'60gb'
p5033
aS'best'
p5034
aS'worst'
p5035
asI2900
(lp5036
sI2901
(lp5037
S'creative'
p5038
aS'main'
p5039
asI2902
(lp5040
S'easy'
p5041
aS'good'
p5042
asI2903
(lp5043
sI2904
(lp5044
S'better'
p5045
aS'less'
p5046
asI2905
(lp5047
sI2906
(lp5048
S'great'
p5049
asI2907
(lp5050
S'sensitive'
p5051
asI2908
(lp5052
S'enough'
p5053
asI2909
(lp5054
sI2910
(lp5055
S'replaceable'
p5056
aS'sturdy'
p5057
asI2911
(lp5058
S'external'
p5059
asI2912
(lp5060
S'random'
p5061
asI2913
(lp5062
S'multiple'
p5063
asI2914
(lp5064
S'sound'
p5065
asI2915
(lp5066
sI2916
(lp5067
sI2917
(lp5068
S'new'
p5069
asI2918
(lp5070
S'creative'
p5071
aS'poor'
p5072
aS'consistent'
p5073
asI2919
(lp5074
S'difficult'
p5075
asI2920
(lp5076
S'detachable'
p5077
asI2921
(lp5078
sI2922
(lp5079
S'hard'
p5080
asI2923
(lp5081
sI2924
(lp5082
sI2925
(lp5083
S'most'
p5084
aS'new'
p5085
asI2926
(lp5086
S'difficult'
p5087
aS'awkward'
p5088
aS'creative'
p5089
asI2927
(lp5090
S'enough'
p5091
aS'inbuilt'
p5092
asI2928
(lp5093
sI2929
(lp5094
S'sound'
p5095
asI2930
(lp5096
sI2931
(lp5097
S'veteran'
p5098
asI2932
(lp5099
sI2933
(lp5100
S'small'
p5101
asI2934
(lp5102
S'mobile'
p5103
asI2935
(lp5104
S'good'
p5105
aS'sound'
p5106
asI2936
(lp5107
S'good'
p5108
asI2937
(lp5109
sI2938
(lp5110
S'new'
p5111
asI2939
(lp5112
S'smaller'
p5113
asI2940
(lp5114
sI2941
(lp5115
S'large'
p5116
aS'high'
p5117
asI2942
(lp5118
sI2943
(lp5119
sI2944
(lp5120
sI2945
(lp5121
S'only'
p5122
aS'longer'
p5123
aS'slow'
p5124
asI2946
(lp5125
sI2947
(lp5126
sI2948
(lp5127
sI2949
(lp5128
sI2950
(lp5129
sI2951
(lp5130
S'better'
p5131
aS'new'
p5132
aS'less'
p5133
asI2952
(lp5134
S'informed'
p5135
asI2953
(lp5136
sI2954
(lp5137
sI2955
(lp5138
S'low'
p5139
asI2956
(lp5140
S'good'
p5141
aS'special'
p5142
aS'great'
p5143
aS'long'
p5144
aS'unbeatable'
p5145
asI2957
(lp5146
sI2958
(lp5147
sI2959
(lp5148
sI2960
(lp5149
sI2961
(lp5150
sI2962
(lp5151
sI2963
(lp5152
sI2964
(lp5153
sI2965
(lp5154
S'full'
p5155
asI2966
(lp5156
S'worthwhile'
p5157
aS'cheap'
p5158
asI2967
(lp5159
sI2968
(lp5160
S'fourth'
p5161
aS'creative'
p5162
asI2969
(lp5163
sI2970
(lp5164
sI2971
(lp5165
Vremovable
p5166
aS'cheap'
p5167
asI2972
(lp5168
sI2973
(lp5169
sI2974
(lp5170
sI2975
(lp5171
sI2976
(lp5172
sI2977
(lp5173
sI2978
(lp5174
sI2979
(lp5175
S'bigger'
p5176
aS'little'
p5177
asI2980
(lp5178
sI2981
(lp5179
sI2982
(lp5180
sI2983
(lp5181
sI2984
(lp5182
sI2985
(lp5183
S'creative'
p5184
asI2986
(lp5185
S'creative'
p5186
asI2987
(lp5187
sI2988
(lp5188
S'similar'
p5189
asI2989
(lp5190
sI2990
(lp5191
sI2991
(lp5192
S'good'
p5193
asI2992
(lp5194
S'bad'
p5195
asI2993
(lp5196
sI2994
(lp5197
sI2995
(lp5198
S'complete'
p5199
asI2996
(lp5200
sI2997
(lp5201
sI2998
(lp5202
sI2999
(lp5203
S'awesome'
p5204
asI3000
(lp5205
sI3001
(lp5206
sI3002
(lp5207
sI3003
(lp5208
sI3004
(lp5209
S'huge'
p5210
aS'entire'
p5211
asI3005
(lp5212
sI3006
(lp5213
sI3007
(lp5214
sI3008
(lp5215
sI3009
(lp5216
sI3010
(lp5217
S'different'
p5218
asI3011
(lp5219
sI3012
(lp5220
S'awesome'
p5221
asI3013
(lp5222
sI3014
(lp5223
sI3015
(lp5224
S'other'
p5225
asI3016
(lp5226
S'big'
p5227
asI3017
(lp5228
S'online'
p5229
asI3018
(lp5230
sI3019
(lp5231
S'awesome'
p5232
asI3020
(lp5233
sI3021
(lp5234
S'fast'
p5235
asI3022
(lp5236
sI3023
(lp5237
S'different'
p5238
asI3024
(lp5239
S'different'
p5240
aS'other'
p5241
aS'classical'
p5242
aVmodern
p5243
asI3025
(lp5244
S'havent'
p5245
asI3026
(lp5246
sI3027
(lp5247
sI3028
(lp5248
sI3029
(lp5249
sI3030
(lp5250
sI3031
(lp5251
sI3032
(lp5252
sI3033
(lp5253
S'major'
p5254
asI3034
(lp5255
sI3035
(lp5256
sI3036
(lp5257
sI3037
(lp5258
sI3038
(lp5259
S'other'
p5260
asI3039
(lp5261
sI3040
(lp5262
sI3041
(lp5263
sI3042
(lp5264
S'minor'
p5265
asI3043
(lp5266
S'big'
p5267
asI3044
(lp5268
S'hard'
p5269
aS'certain'
p5270
asI3045
(lp5271
S'earlier'
p5272
asI3046
(lp5273
sI3047
(lp5274
S'more'
p5275
asI3048
(lp5276
S'enough'
p5277
asI3049
(lp5278
S'entire'
p5279
asI3050
(lp5280
sI3051
(lp5281
S'advanced'
p5282
aS'red'
p5283
asI3052
(lp5284
S'different'
p5285
asI3053
(lp5286
sI3054
(lp5287
S'sound'
p5288
aS'personal'
p5289
asI3055
(lp5290
Veasy
p5291
aS'intuitive'
p5292
asI3056
(lp5293
S'biggest'
p5294
aS"'t"
p5295
aS'new'
p5296
asI3057
(lp5297
S'big'
p5298
asI3058
(lp5299
S'better'
p5300
asI3059
(lp5301
sI3060
(lp5302
S'white'
p5303
asI3061
(lp5304
sI3062
(lp5305
S'mini'
p5306
aS'best'
p5307
asI3063
(lp5308
sI3064
(lp5309
sI3065
(lp5310
sI3066
(lp5311
sI3067
(lp5312
sI3068
(lp5313
sI3069
(lp5314
S'smart'
p5315
aS'sound'
p5316
asI3070
(lp5317
S'included'
p5318
asI3071
(lp5319
sI3072
(lp5320
sI3073
(lp5321
sI3074
(lp5322
S'creative'
p5323
asI3075
(lp5324
sI3076
(lp5325
S'nice'
p5326
asI3077
(lp5327
S'front'
p5328
asI3078
(lp5329
sI3079
(lp5330
sI3080
(lp5331
S'long'
p5332
aS'great'
p5333
aS'removable'
p5334
aS'nice'
p5335
asI3081
(lp5336
sI3082
(lp5337
S'occasional'
p5338
aS'best'
p5339
aS'extended'
p5340
aS'flimsy'
p5341
asI3083
(lp5342
sI3084
(lp5343
S'included'
p5344
asI3085
(lp5345
S'easy'
p5346
aS'nice'
p5347
asI3086
(lp5348
S'excellent'
p5349
asI3087
(lp5350
S'lowest'
p5351
aS'best'
p5352
asI3088
(lp5353
S'few'
p5354
asI3089
(lp5355
sI3090
(lp5356
sI3091
(lp5357
S'thicker'
p5358
asI3092
(lp5359
S'dense'
p5360
aS'nice'
p5361
asI3093
(lp5362
sI3094
(lp5363
S'small'
p5364
asI3095
(lp5365
sI3096
(lp5366
S'only'
p5367
asI3097
(lp5368
sI3098
(lp5369
sI3099
(lp5370
S'new'
p5371
aS'lower'
p5372
asI3100
(lp5373
sI3101
(lp5374
sI3102
(lp5375
S'previous'
p5376
asI3103
(lp5377
sI3104
(lp5378
S'dedicated'
p5379
asI3105
(lp5380
sI3106
(lp5381
S'nice'
p5382
asI3107
(lp5383
S'only'
p5384
asI3108
(lp5385
sI3109
(lp5386
S'creative'
p5387
asI3110
(lp5388
sI3111
(lp5389
sI3112
(lp5390
sI3113
(lp5391
S'portable'
p5392
aS'hard'
p5393
asI3114
(lp5394
sI3115
(lp5395
sI3116
(lp5396
S'happy'
p5397
asI3117
(lp5398
S'superior'
p5399
asI3118
(lp5400
sI3119
(lp5401
sI3120
(lp5402
Vconnected
p5403
aS'busy'
p5404
asI3121
(lp5405
S'further'
p5406
asI3122
(lp5407
sI3123
(lp5408
sI3124
(lp5409
S'perfect'
p5410
aS'lousy'
p5411
asI3125
(lp5412
sI3126
(lp5413
S'good'
p5414
aS'other'
p5415
asI3127
(lp5416
sI3128
(lp5417
sI3129
(lp5418
S'horrible'
p5419
asI3130
(lp5420
sI3131
(lp5421
S'other'
p5422
asI3132
(lp5423
S'hard'
p5424
asI3133
(lp5425
S'next'
p5426
aS'same'
p5427
asI3134
(lp5428
sI3135
(lp5429
sI3136
(lp5430
S'hard'
p5431
asI3137
(lp5432
sI3138
(lp5433
sI3139
(lp5434
S'good'
p5435
aS'whole'
p5436
asI3140
(lp5437
sI3141
(lp5438
sI3142
(lp5439
S'other'
p5440
aS'fast'
p5441
asI3143
(lp5442
S'other'
p5443
asI3144
(lp5444
sI3145
(lp5445
S'best'
p5446
asI3146
(lp5447
sI3147
(lp5448
sI3148
(lp5449
sI3149
(lp5450
S'only'
p5451
asI3150
(lp5452
sI3151
(lp5453
sI3152
(lp5454
sI3153
(lp5455
sI3154
(lp5456
sI3155
(lp5457
sI3156
(lp5458
S'sound'
p5459
asI3157
(lp5460
sI3158
(lp5461
S'large'
p5462
asI3159
(lp5463
sI3160
(lp5464
sI3161
(lp5465
sI3162
(lp5466
sI3163
(lp5467
sI3164
(lp5468
sI3165
(lp5469
S'creative'
p5470
asI3166
(lp5471
sI3167
(lp5472
sI3168
(lp5473
sI3169
(lp5474
sI3170
(lp5475
S'other'
p5476
aS'normal'
p5477
asI3171
(lp5478
S'major'
p5479
asI3172
(lp5480
S'other'
p5481
aS'front'
p5482
asI3173
(lp5483
sI3174
(lp5484
sI3175
(lp5485
sI3176
(lp5486
sI3177
(lp5487
S'depressed'
p5488
aVdisappointed
p5489
asI3178
(lp5490
S'impossible'
p5491
aVhard
p5492
asI3179
(lp5493
S'expensive'
p5494
asI3180
(lp5495
S'good'
p5496
asI3181
(lp5497
sI3182
(lp5498
sI3183
(lp5499
S'better'
p5500
aS'other'
p5501
asI3184
(lp5502
S'more'
p5503
aS'similar'
p5504
asI3185
(lp5505
sI3186
(lp5506
sI3187
(lp5507
sI3188
(lp5508
sI3189
(lp5509
S'great'
p5510
asI3190
(lp5511
S'other'
p5512
asI3191
(lp5513
sI3192
(lp5514
sI3193
(lp5515
S'good'
p5516
asI3194
(lp5517
sI3195
(lp5518
sI3196
(lp5519
sI3197
(lp5520
sI3198
(lp5521
sI3199
(lp5522
S'newer'
p5523
asI3200
(lp5524
S'hard'
p5525
asI3201
(lp5526
S'hard'
p5527
aS'bad'
p5528
asI3202
(lp5529
S'extended'
p5530
asI3203
(lp5531
sI3204
(lp5532
sI3205
(lp5533
S'better'
p5534
asI3206
(lp5535
sI3207
(lp5536
sI3208
(lp5537
S'simple'
p5538
asI3209
(lp5539
sI3210
(lp5540
S'remote'
p5541
asI3211
(lp5542
sI3212
(lp5543
S'bottom'
p5544
aS'remote'
p5545
aS'right'
p5546
asI3213
(lp5547
sI3214
(lp5548
sI3215
(lp5549
sI3216
(lp5550
sI3217
(lp5551
S'remote'
p5552
asI3218
(lp5553
S'right'
p5554
asI3219
(lp5555
sI3220
(lp5556
S'good'
p5557
asI3221
(lp5558
S'other'
p5559
asI3222
(lp5560
sI3223
(lp5561
sI3224
(lp5562
S'happier'
p5563
asI3225
(lp5564
S'black'
p5565
asI3226
(lp5566
sI3227
(lp5567
sI3228
(lp5568
S'occasional'
p5569
asI3229
(lp5570
sI3230
(lp5571
sI3231
(lp5572
sI3232
(lp5573
S'nicest'
p5574
asI3233
(lp5575
S'front'
p5576
aS'good'
p5577
aS'great'
p5578
asI3234
(lp5579
S'forward'
p5580
aS'other'
p5581
aS'rewind'
p5582
asI3235
(lp5583
S'alternate'
p5584
asI3236
(lp5585
sI3237
(lp5586
S'2nd'
p5587
asI3238
(lp5588
S'other'
p5589
asI3239
(lp5590
sI3240
(lp5591
sI3241
(lp5592
Vrare
p5593
aS'valuable'
p5594
asI3242
(lp5595
S'nicer'
p5596
asI3243
(lp5597
S'nice'
p5598
aS'optical'
p5599
aS'digital'
p5600
asI3244
(lp5601
S'optical'
p5602
aS'expensive'
p5603
asI3245
(lp5604
Vcorrected
p5605
aS'smooth'
p5606
aS'forward'
p5607
asI3246
(lp5608
S'cool'
p5609
aS'rare'
p5610
aS'same'
p5611
asI3247
(lp5612
S'remote'
p5613
aS'complete'
p5614
aS'long'
p5615
aS'normal'
p5616
asI3248
(lp5617
S'great'
p5618
asI3249
(lp5619
sI3250
(lp5620
S'many'
p5621
asI3251
(lp5622
S'new'
p5623
asI3252
(lp5624
S'such'
p5625
asI3253
(lp5626
S'better'
p5627
asI3254
(lp5628
sI3255
(lp5629
S'better'
p5630
asI3256
(lp5631
sI3257
(lp5632
S'technical'
p5633
asI3258
(lp5634
sI3259
(lp5635
S'slim'
p5636
aS'stylish'
p5637
aS'affordable'
p5638
asI3260
(lp5639
sI3261
(lp5640
S'new'
p5641
asI3262
(lp5642
sI3263
(lp5643
S'funny'
p5644
aS'little'
p5645
asI3264
(lp5646
sI3265
(lp5647
sI3266
(lp5648
sI3267
(lp5649
sI3268
(lp5650
sI3269
(lp5651
sI3270
(lp5652
S'bad'
p5653
asI3271
(lp5654
S'good'
p5655
aS'different'
p5656
asI3272
(lp5657
sI3273
(lp5658
sI3274
(lp5659
sI3275
(lp5660
sI3276
(lp5661
sI3277
(lp5662
S'great'
p5663
asI3278
(lp5664
S'great'
p5665
asI3279
(lp5666
sI3280
(lp5667
sI3281
(lp5668
sI3282
(lp5669
sI3283
(lp5670
S'nice'
p5671
aS'low'
p5672
asI3284
(lp5673
sI3285
(lp5674
sI3286
(lp5675
sI3287
(lp5676
sI3288
(lp5677
sI3289
(lp5678
S'disposable'
p5679
asI3290
(lp5680
sI3291
(lp5681
sI3292
(lp5682
sI3293
(lp5683
S'steady'
p5684
asI3294
(lp5685
S'real'
p5686
asI3295
(lp5687
S'hot'
p5688
asI3296
(lp5689
S'new'
p5690
aS'strong'
p5691
asI3297
(lp5692
S'only'
p5693
asI3298
(lp5694
S'temporary'
p5695
asI3299
(lp5696
S'main'
p5697
asI3300
(lp5698
sI3301
(lp5699
S'visual'
p5700
aS'regular'
p5701
asI3302
(lp5702
S'tiny'
p5703
asI3303
(lp5704
S'such'
p5705
asI3304
(lp5706
sI3305
(lp5707
sI3306
(lp5708
sI3307
(lp5709
S'considerable'
p5710
aS'professional'
p5711
asI3308
(lp5712
S'progressive'
p5713
asI3309
(lp5714
sI3310
(lp5715
sI3311
(lp5716
S'possible'
p5717
aS'good'
p5718
asI3312
(lp5719
sI3313
(lp5720
sI3314
(lp5721
sI3315
(lp5722
sI3316
(lp5723
sI3317
(lp5724
sI3318
(lp5725
sI3319
(lp5726
sI3320
(lp5727
S'only'
p5728
asI3321
(lp5729
S'better'
p5730
asI3322
(lp5731
S'negative'
p5732
asI3323
(lp5733
sI3324
(lp5734
sI3325
(lp5735
S'other'
p5736
asI3326
(lp5737
sI3327
(lp5738
sI3328
(lp5739
sI3329
(lp5740
S'big'
p5741
asI3330
(lp5742
sI3331
(lp5743
sI3332
(lp5744
sI3333
(lp5745
sI3334
(lp5746
sI3335
(lp5747
sI3336
(lp5748
sI3337
(lp5749
S'great'
p5750
asI3338
(lp5751
sI3339
(lp5752
S'certain'
p5753
aS'occasional'
p5754
aS'special'
p5755
aS'rental'
p5756
asI3340
(lp5757
S'different'
p5758
asI3341
(lp5759
sI3342
(lp5760
sI3343
(lp5761
sI3344
(lp5762
sI3345
(lp5763
sI3346
(lp5764
S'certain'
p5765
asI3347
(lp5766
sI3348
(lp5767
sI3349
(lp5768
sI3350
(lp5769
S'great'
p5770
asI3351
(lp5771
S'full'
p5772
asI3352
(lp5773
sI3353
(lp5774
sI3354
(lp5775
sI3355
(lp5776
sI3356
(lp5777
S'late'
p5778
asI3357
(lp5779
sI3358
(lp5780
sI3359
(lp5781
sI3360
(lp5782
S'universal'
p5783
asI3361
(lp5784
S'remote'
p5785
aS'whole'
p5786
asI3362
(lp5787
S'remote'
p5788
asI3363
(lp5789
S'new'
p5790
asI3364
(lp5791
S'remote'
p5792
asI3365
(lp5793
sI3366
(lp5794
S'free'
p5795
aS'real'
p5796
aS'regular'
p5797
asI3367
(lp5798
sI3368
(lp5799
sI3369
(lp5800
sI3370
(lp5801
sI3371
(lp5802
sI3372
(lp5803
sI3373
(lp5804
S'cheaper'
p5805
asI3374
(lp5806
sI3375
(lp5807
S'higher'
p5808
asI3376
(lp5809
sI3377
(lp5810
sI3378
(lp5811
sI3379
(lp5812
S'discoutinous'
p5813
aS'other'
p5814
asI3380
(lp5815
S'other'
p5816
asI3381
(lp5817
Vgood
p5818
aS'vibrant'
p5819
asI3382
(lp5820
S'comfortable'
p5821
asI3383
(lp5822
sI3384
(lp5823
S'entire'
p5824
asI3385
(lp5825
S'internal'
p5826
asI3386
(lp5827
sI3387
(lp5828
S'great'
p5829
asI3388
(lp5830
sI3389
(lp5831
sI3390
(lp5832
sI3391
(lp5833
S'raw'
p5834
aS'progressive'
p5835
asI3392
(lp5836
sI3393
(lp5837
sI3394
(lp5838
S'top'
p5839
aS'other'
p5840
asI3395
(lp5841
S'new'
p5842
asI3396
(lp5843
sI3397
(lp5844
sI3398
(lp5845
sI3399
(lp5846
sI3400
(lp5847
sI3401
(lp5848
S'american'
p5849
asI3402
(lp5850
sI3403
(lp5851
S'cool'
p5852
aS'different'
p5853
asI3404
(lp5854
S'listed'
p5855
asI3405
(lp5856
S'great'
p5857
asI3406
(lp5858
sI3407
(lp5859
S'good'
p5860
asI3408
(lp5861
sI3409
(lp5862
S'low'
p5863
aS'nice'
p5864
asI3410
(lp5865
S'great'
p5866
asI3411
(lp5867
S'free'
p5868
asI3412
(lp5869
sI3413
(lp5870
sI3414
(lp5871
sI3415
(lp5872
sI3416
(lp5873
sI3417
(lp5874
S'more'
p5875
asI3418
(lp5876
S'smart'
p5877
asI3419
(lp5878
S'great'
p5879
aS'normal'
p5880
asI3420
(lp5881
S'slim'
p5882
asI3421
(lp5883
sI3422
(lp5884
sI3423
(lp5885
sI3424
(lp5886
sI3425
(lp5887
sI3426
(lp5888
sI3427
(lp5889
sI3428
(lp5890
sI3429
(lp5891
S'regular'
p5892
asI3430
(lp5893
sI3431
(lp5894
sI3432
(lp5895
S'incorrect'
p5896
asI3433
(lp5897
sI3434
(lp5898
sI3435
(lp5899
sI3436
(lp5900
sI3437
(lp5901
sI3438
(lp5902
sI3439
(lp5903
S'video'
p5904
asI3440
(lp5905
S'remote'
p5906
aVsimplest
p5907
aS'easiest'
p5908
aS'progressive'
p5909
asI3441
(lp5910
sI3442
(lp5911
S'big'
p5912
asI3443
(lp5913
sI3444
(lp5914
sI3445
(lp5915
sI3446
(lp5916
S'future'
p5917
asI3447
(lp5918
sI3448
(lp5919
sI3449
(lp5920
sI3450
(lp5921
sI3451
(lp5922
sI3452
(lp5923
sI3453
(lp5924
sI3454
(lp5925
S'more'
p5926
asI3455
(lp5927
sI3456
(lp5928
S'progressive'
p5929
asI3457
(lp5930
sI3458
(lp5931
S'best'
p5932
asI3459
(lp5933
sI3460
(lp5934
S'right'
p5935
aS'wrong'
p5936
asI3461
(lp5937
sI3462
(lp5938
sI3463
(lp5939
sI3464
(lp5940
sI3465
(lp5941
sI3466
(lp5942
S'certain'
p5943
aS'other'
p5944
asI3467
(lp5945
S'new'
p5946
asI3468
(lp5947
S'known'
p5948
aS'other'
p5949
aS'new'
p5950
asI3469
(lp5951
S'sharp'
p5952
aS'old'
p5953
aS'most'
p5954
asI3470
(lp5955
sI3471
(lp5956
S'old'
p5957
aS'rental'
p5958
aS'sharp'
p5959
asI3472
(lp5960
sI3473
(lp5961
sI3474
(lp5962
S'high'
p5963
aS'expensive'
p5964
asI3475
(lp5965
sI3476
(lp5966
S'good'
p5967
aS'lucky'
p5968
asI3477
(lp5969
sI3478
(lp5970
S'pricey'
p5971
aS'slim'
p5972
aS'front'
p5973
asI3479
(lp5974
S'bad'
p5975
asI3480
(lp5976
S'free'
p5977
aS'good'
p5978
asI3481
(lp5979
sI3482
(lp5980
sI3483
(lp5981
S'second'
p5982
asI3484
(lp5983
S'available'
p5984
asI3485
(lp5985
sI3486
(lp5986
S'digital'
p5987
asI3487
(lp5988
S'digital'
p5989
asI3488
(lp5990
S'most'
p5991
aS'good'
p5992
asI3489
(lp5993
sI3490
(lp5994
sI3491
(lp5995
sI3492
(lp5996
sI3493
(lp5997
S'old'
p5998
aS'composite'
p5999
asI3494
(lp6000
sI3495
(lp6001
sI3496
(lp6002
S'correct'
p6003
aS'secure'
p6004
asI3497
(lp6005
S'remote'
p6006
asI3498
(lp6007
sI3499
(lp6008
S'composite'
p6009
aS'different'
p6010
aS'progressive'
p6011
asI3500
(lp6012
sI3501
(lp6013
S'poor'
p6014
asI3502
(lp6015
S'wrong'
p6016
asI3503
(lp6017
S'stupid'
p6018
asI3504
(lp6019
sI3505
(lp6020
S'negative'
p6021
aS'other'
p6022
aS'only'
p6023
asI3506
(lp6024
S'busy'
p6025
asI3507
(lp6026
sI3508
(lp6027
sI3509
(lp6028
sI3510
(lp6029
sI3511
(lp6030
sI3512
(lp6031
sI3513
(lp6032
sI3514
(lp6033
sI3515
(lp6034
sI3516
(lp6035
S'progressive'
p6036
aS'low'
p6037
aS'known'
p6038
asI3517
(lp6039
S'loud'
p6040
asI3518
(lp6041
sI3519
(lp6042
S'good'
p6043
asI3520
(lp6044
sI3521
(lp6045
S'other'
p6046
asI3522
(lp6047
sI3523
(lp6048
S'cheaper'
p6049
aS'other'
p6050
asI3524
(lp6051
sI3525
(lp6052
sI3526
(lp6053
S'perceptible'
p6054
asI3527
(lp6055
sI3528
(lp6056
sI3529
(lp6057
sI3530
(lp6058
S'other'
p6059
asI3531
(lp6060
S'shiny'
p6061
asI3532
(lp6062
sI3533
(lp6063
S'remote'
p6064
asI3534
(lp6065
sI3535
(lp6066
sI3536
(lp6067
sI3537
(lp6068
sI3538
(lp6069
S'basic'
p6070
asI3539
(lp6071
S'expensive'
p6072
aS'other'
p6073
asI3540
(lp6074
S'small'
p6075
aS'good'
p6076
asI3541
(lp6077
sI3542
(lp6078
S'negative'
p6079
asI3543
(lp6080
sI3544
(lp6081
S'great'
p6082
asI3545
(lp6083
S'great'
p6084
aS'more'
p6085
asI3546
(lp6086
sI3547
(lp6087
sI3548
(lp6088
S'new'
p6089
asI3549
(lp6090
sI3550
(lp6091
sI3551
(lp6092
sI3552
(lp6093
sI3553
(lp6094
sI3554
(lp6095
S'substandard'
p6096
asI3555
(lp6097
sI3556
(lp6098
sI3557
(lp6099
sI3558
(lp6100
S'different'
p6101
asI3559
(lp6102
sI3560
(lp6103
S'numerous'
p6104
asI3561
(lp6105
sI3562
(lp6106
sI3563
(lp6107
sI3564
(lp6108
sI3565
(lp6109
sI3566
(lp6110
sI3567
(lp6111
sI3568
(lp6112
sI3569
(lp6113
sI3570
(lp6114
sI3571
(lp6115
sI3572
(lp6116
sI3573
(lp6117
sI3574
(lp6118
sI3575
(lp6119
sI3576
(lp6120
sI3577
(lp6121
sI3578
(lp6122
sI3579
(lp6123
sI3580
(lp6124
sI3581
(lp6125
sI3582
(lp6126
sI3583
(lp6127
S'excellent'
p6128
asI3584
(lp6129
sI3585
(lp6130
sI3586
(lp6131
sI3587
(lp6132
sI3588
(lp6133
sI3589
(lp6134
sI3590
(lp6135
sI3591
(lp6136
S'physical'
p6137
asI3592
(lp6138
S'cheesy'
p6139
aS'prior'
p6140
aVlightweight
p6141
asI3593
(lp6142
S'easy'
p6143
asI3594
(lp6144
sI3595
(lp6145
sI3596
(lp6146
sI3597
(lp6147
sI3598
(lp6148
sI3599
(lp6149
sI3600
(lp6150
sI3601
(lp6151
S'excellent'
p6152
asI3602
(lp6153
sI3603
(lp6154
S'harder'
p6155
asI3604
(lp6156
S'initial'
p6157
aS'better'
p6158
aS'harder'
p6159
asI3605
(lp6160
S'frequent'
p6161
asI3606
(lp6162
S'old'
p6163
asI3607
(lp6164
sI3608
(lp6165
S'working'
p6166
aS'perfect'
p6167
aS'other'
p6168
asI3609
(lp6169
S'sleek'
p6170
asI3610
(lp6171
S'certain'
p6172
asI3611
(lp6173
S'new'
p6174
asI3612
(lp6175
sI3613
(lp6176
S'fine'
p6177
asI3614
(lp6178
S'more'
p6179
asI3615
(lp6180
sI3616
(lp6181
S'progressive'
p6182
asI3617
(lp6183
sI3618
(lp6184
sI3619
(lp6185
sI3620
(lp6186
S'great'
p6187
asI3621
(lp6188
sI3622
(lp6189
sI3623
(lp6190
S'best'
p6191
asI3624
(lp6192
sI3625
(lp6193
S'most'
p6194
asI3626
(lp6195
sI3627
(lp6196
sI3628
(lp6197
sI3629
(lp6198
sI3630
(lp6199
S'expensive'
p6200
asI3631
(lp6201
S'new'
p6202
asI3632
(lp6203
sI3633
(lp6204
S'small'
p6205
asI3634
(lp6206
sI3635
(lp6207
sI3636
(lp6208
sI3637
(lp6209
sI3638
(lp6210
Vcheap
p6211
aS'poor'
p6212
asI3639
(lp6213
sI3640
(lp6214
sI3641
(lp6215
S'attractive'
p6216
aS'compact'
p6217
asI3642
(lp6218
S'basic'
p6219
aS'remote'
p6220
asI3643
(lp6221
sI3644
(lp6222
Vclear
p6223
aS'bright'
p6224
aS'sharp'
p6225
asI3645
(lp6226
sI3646
(lp6227
sI3647
(lp6228
S'big'
p6229
asI3648
(lp6230
S'extra'
p6231
asI3649
(lp6232
S'only'
p6233
aS'real'
p6234
asI3650
(lp6235
sI3651
(lp6236
S'enough'
p6237
asI3652
(lp6238
sI3653
(lp6239
sI3654
(lp6240
sI3655
(lp6241
sI3656
(lp6242
sI3657
(lp6243
sI3658
(lp6244
S'viewable'
p6245
aS'vivid'
p6246
aS'sharp'
p6247
asI3659
(lp6248
sI3660
(lp6249
S'bad'
p6250
asI3661
(lp6251
sI3662
(lp6252
sI3663
(lp6253
S'awesome'
p6254
asI3664
(lp6255
sI3665
(lp6256
sI3666
(lp6257
sI3667
(lp6258
sI3668
(lp6259
sI3669
(lp6260
sI3670
(lp6261
sI3671
(lp6262
sI3672
(lp6263
sI3673
(lp6264
sI3674
(lp6265
S'remote'
p6266
asI3675
(lp6267
sI3676
(lp6268
S'orignal'
p6269
asI3677
(lp6270
S'great'
p6271
aS'poor'
p6272
asI3678
(lp6273
S'composite'
p6274
asI3679
(lp6275
sI3680
(lp6276
sI3681
(lp6277
S'great'
p6278
asI3682
(lp6279
sI3683
(lp6280
sI3684
(lp6281
sI3685
(lp6282
S'other'
p6283
asI3686
(lp6284
sI3687
(lp6285
S'remote'
p6286
asI3688
(lp6287
sI3689
(lp6288
sI3690
(lp6289
sI3691
(lp6290
sI3692
(lp6291
S'more'
p6292
aS'such'
p6293
asI3693
(lp6294
sI3694
(lp6295
sI3695
(lp6296
sI3696
(lp6297
sI3697
(lp6298
sI3698
(lp6299
sI3699
(lp6300
sI3700
(lp6301
S'sleek'
p6302
aS'real'
p6303
asI3701
(lp6304
sI3702
(lp6305
sI3703
(lp6306
sI3704
(lp6307
sI3705
(lp6308
sI3706
(lp6309
sI3707
(lp6310
S'much'
p6311
asI3708
(lp6312
S'broken'
p6313
asI3709
(lp6314
sI3710
(lp6315
S'dont'
p6316
asI3711
(lp6317
S'good'
p6318
asI3712
(lp6319
S'favorite'
p6320
asI3713
(lp6321
S'long'
p6322
asI3714
(lp6323
sI3715
(lp6324
sI3716
(lp6325
sI3717
(lp6326
sI3718
(lp6327
sI3719
(lp6328
sI3720
(lp6329
sI3721
(lp6330
sI3722
(lp6331
sI3723
(lp6332
S'instant'
p6333
aS'absolute'
p6334
asI3724
(lp6335
S'2nd'
p6336
aS'faulty'
p6337
asI3725
(lp6338
sI3726
(lp6339
S'best'
p6340
aS'standard'
p6341
aS'old'
p6342
asI3727
(lp6343
sI3728
(lp6344
sI3729
(lp6345
sI3730
(lp6346
sI3731
(lp6347
sI3732
(lp6348
S'great'
p6349
asI3733
(lp6350
sI3734
(lp6351
sI3735
(lp6352
sI3736
(lp6353
S'nice'
p6354
asI3737
(lp6355
S'annoying'
p6356
asI3738
(lp6357
S'wide'
p6358
asI3739
(lp6359
sI3740
(lp6360
sI3741
(lp6361
sI3742
(lp6362
sI3743
(lp6363
S'other'
p6364
asI3744
(lp6365
sI3745
(lp6366
sI3746
(lp6367
sI3747
(lp6368
S'full'
p6369
asI3748
(lp6370
sI3749
(lp6371
sI3750
(lp6372
sI3751
(lp6373
sI3752
(lp6374
S'progressive'
p6375
aS'old'
p6376
aS'fine'
p6377
asI3753
(lp6378
S'previous'
p6379
asI3754
(lp6380
sI3755
(lp6381
S'higher'
p6382
asI3756
(lp6383
Vlast
p6384
aS'satisfied'
p6385
asI3757
(lp6386
sI3758
(lp6387
sI3759
(lp6388
sI3760
(lp6389
S'technical'
p6390
asI3761
(lp6391
sI3762
(lp6392
S'other'
p6393
asI3763
(lp6394
sI3764
(lp6395
sI3765
(lp6396
sI3766
(lp6397
sI3767
(lp6398
sI3768
(lp6399
sI3769
(lp6400
S'new'
p6401
asI3770
(lp6402
sI3771
(lp6403
sI3772
(lp6404
sI3773
(lp6405
S'remote'
p6406
asI3774
(lp6407
S'small'
p6408
asI3775
(lp6409
sI3776
(lp6410
sI3777
(lp6411
S'less'
p6412
asI3778
(lp6413
sI3779
(lp6414
sI3780
(lp6415
sI3781
(lp6416
sI3782
(lp6417
sI3783
(lp6418
S'further'
p6419
asI3784
(lp6420
sI3785
(lp6421
S'remote'
p6422
aS'left'
p6423
asI3786
(lp6424
S'whole'
p6425
asI3787
(lp6426
sI3788
(lp6427
S'universal'
p6428
aS'remote'
p6429
asI3789
(lp6430
sI3790
(lp6431
sI3791
(lp6432
sI3792
(lp6433
sI3793
(lp6434
sI3794
(lp6435
sI3795
(lp6436
sI3796
(lp6437
S'fine'
p6438
asI3797
(lp6439
sI3798
(lp6440
sI3799
(lp6441
sI3800
(lp6442
sI3801
(lp6443
sI3802
(lp6444
S'other'
p6445
asI3803
(lp6446
S'ailing'
p6447
asI3804
(lp6448
sI3805
(lp6449
sI3806
(lp6450
S'new'
p6451
asI3807
(lp6452
Vthin
p6453
aS'short'
p6454
asI3808
(lp6455
sI3809
(lp6456
sI3810
(lp6457
sI3811
(lp6458
sI3812
(lp6459
S'expensive'
p6460
asI3813
(lp6461
S'different'
p6462
asI3814
(lp6463
sI3815
(lp6464
sI3816
(lp6465
sI3817
(lp6466
sI3818
(lp6467
sI3819
(lp6468
sI3820
(lp6469
sI3821
(lp6470
sI3822
(lp6471
sI3823
(lp6472
sI3824
(lp6473
S'remote'
p6474
asI3825
(lp6475
sI3826
(lp6476
sI3827
(lp6477
S'optical'
p6478
asI3828
(lp6479
S'better'
p6480
asI3829
(lp6481
S'good'
p6482
aS'other'
p6483
asI3830
(lp6484
S'huge'
p6485
asI3831
(lp6486
sI3832
(lp6487
sI3833
(lp6488
S'slow'
p6489
asI3834
(lp6490
S'present'
p6491
aVconsistent
p6492
asI3835
(lp6493
sI3836
(lp6494
S'small'
p6495
asI3837
(lp6496
S'nicer'
p6497
aS'embarassing'
p6498
asI3838
(lp6499
S'inexpensive'
p6500
asI3839
(lp6501
S'wrong'
p6502
asI3840
(lp6503
S'inexpensive'
p6504
asI3841
(lp6505
S'fine'
p6506
asI3842
(lp6507
Vsmall
p6508
aS'external'
p6509
aS'significant'
p6510
asI3843
(lp6511
S'sleek'
p6512
asI3844
(lp6513
sI3845
(lp6514
sI3846
(lp6515
sI3847
(lp6516
sI3848
(lp6517
sI3849
(lp6518
sI3850
(lp6519
sI3851
(lp6520
S'small'
p6521
asI3852
(lp6522
S'more'
p6523
aS'old'
p6524
asI3853
(lp6525
sI3854
(lp6526
sI3855
(lp6527
sI3856
(lp6528
sI3857
(lp6529
sI3858
(lp6530
sI3859
(lp6531
sI3860
(lp6532
S'numerous'
p6533
asI3861
(lp6534
S'different'
p6535
asI3862
(lp6536
sI3863
(lp6537
sI3864
(lp6538
sI3865
(lp6539
sI3866
(lp6540
sI3867
(lp6541
S'tried'
p6542
asI3868
(lp6543
sI3869
(lp6544
sI3870
(lp6545
sI3871
(lp6546
sI3872
(lp6547
S'small'
p6548
asI3873
(lp6549
sI3874
(lp6550
S'remote'
p6551
asI3875
(lp6552
S'minor'
p6553
asI3876
(lp6554
sI3877
(lp6555
sI3878
(lp6556
S'cheap'
p6557
aS'best'
p6558
asI3879
(lp6559
sI3880
(lp6560
sI3881
(lp6561
sI3882
(lp6562
S'new'
p6563
asI3883
(lp6564
S'good'
p6565
asI3884
(lp6566
S'disipointed'
p6567
asI3885
(lp6568
sI3886
(lp6569
sI3887
(lp6570
sI3888
(lp6571
sI3889
(lp6572
sI3890
(lp6573
sI3891
(lp6574
S'different'
p6575
asI3892
(lp6576
S'other'
p6577
asI3893
(lp6578
S'reliable'
p6579
aS'other'
p6580
aS'more'
p6581
asI3894
(lp6582
S'similar'
p6583
asI3895
(lp6584
sI3896
(lp6585
sI3897
(lp6586
sI3898
(lp6587
sI3899
(lp6588
S'false'
p6589
asI3900
(lp6590
sI3901
(lp6591
S'large'
p6592
asI3902
(lp6593
sI3903
(lp6594
S'other'
p6595
asI3904
(lp6596
sI3905
(lp6597
S'original'
p6598
asI3906
(lp6599
sI3907
(lp6600
sI3908
(lp6601
S'free'
p6602
aS'decent'
p6603
asI3909
(lp6604
S'good'
p6605
asI3910
(lp6606
sI3911
(lp6607
sI3912
(lp6608
S'older'
p6609
asI3913
(lp6610
sI3914
(lp6611
sI3915
(lp6612
S'mixed'
p6613
asI3916
(lp6614
sI3917
(lp6615
sI3918
(lp6616
S'solid'
p6617
aS'top'
p6618
aS'good'
p6619
asI3919
(lp6620
S'current'
p6621
aS'more'
p6622
asI3920
(lp6623
sI3921
(lp6624
S'good'
p6625
asI3922
(lp6626
sI3923
(lp6627
Vsleek
p6628
aS'stylish'
p6629
asI3924
(lp6630
S'different'
p6631
asI3925
(lp6632
sI3926
(lp6633
S'easy'
p6634
asI3927
(lp6635
sI3928
(lp6636
sI3929
(lp6637
sI3930
(lp6638
sI3931
(lp6639
sI3932
(lp6640
S'silverish'
p6641
aS'special'
p6642
asI3933
(lp6643
S'multiple'
p6644
asI3934
(lp6645
sI3935
(lp6646
sI3936
(lp6647
S'underrated'
p6648
asI3937
(lp6649
sI3938
(lp6650
S'heavy'
p6651
asI3939
(lp6652
sI3940
(lp6653
sI3941
(lp6654
sI3942
(lp6655
sI3943
(lp6656
sI3944
(lp6657
s.