(dp1
I0
(lp2
S'canon'
p3
asI1
(lp4
S'camera'
p5
asI2
(lp6
sI3
(lp7
sI4
(lp8
S'picture'
p9
asI5
(lp10
S'g2'
p11
asI6
(lp12
Vsetting
p13
asI7
(lp14
Vflash
p15
aVcard
p16
asI8
(lp17
S'camera'
p18
aVfeatures
p19
aVflash
p20
aS'choices'
p21
asI9
(lp22
Vpictures
p23
asI10
(lp24
sI11
(lp25
sI12
(lp26
Vcamera
p27
asI13
(lp28
Vg3
p29
aVcamera
p30
asI14
(lp31
S'control'
p32
asI15
(lp33
Vuse
p34
asI16
(lp35
sI17
(lp36
Vimages
p37
asI18
(lp38
sI19
(lp39
Vchoice
p40
asI20
(lp41
sI21
(lp42
sI22
(lp43
sI23
(lp44
Vviewfinder
p45
asI24
(lp46
sI25
(lp47
Vcameras
p48
asI26
(lp49
Vimages
p50
aS'resolution'
p51
aS'review'
p52
aVreviews
p53
asI27
(lp54
sI28
(lp55
sI29
(lp56
Vdepth
p57
aVfeatures
p58
aS'quality'
p59
aS'flexibility'
p60
aS'camera'
p61
asI30
(lp62
Vsettings
p63
aVpicture
p64
asI31
(lp65
Vmode
p66
aVimage
p67
aVpictures
p68
asI32
(lp69
Vquality
p70
aS'canon'
p71
asI33
(lp72
sI34
(lp73
sI35
(lp74
sI36
(lp75
Vfeatures
p76
aVcameras
p77
aS'speeds'
p78
aS'g3'
p79
asI37
(lp80
sI38
(lp81
sI39
(lp82
S'canon'
p83
asI40
(lp84
Vphotography
p85
asI41
(lp86
sI42
(lp87
sI43
(lp88
Vcameras
p89
asI44
(lp90
sI45
(lp91
sI46
(lp92
Vreview
p93
asI47
(lp94
sI48
(lp95
Vphotos
p96
aS'slr'
p97
aS'settings'
p98
asI49
(lp99
S'options'
p100
asI50
(lp101
sI51
(lp102
sI52
(lp103
sI53
(lp104
Vthing
p105
aS'film'
p106
asI54
(lp107
sI55
(lp108
S'mode'
p109
aVbutton
p110
asI56
(lp111
sI57
(lp112
Vbattery
p113
asI58
(lp114
sI59
(lp115
sI60
(lp116
S'camera'
p117
asI61
(lp118
Vpictures
p119
asI62
(lp120
sI63
(lp121
Vzoom
p122
aS'pictures'
p123
asI64
(lp124
Vpictures
p125
asI65
(lp126
Vproblems
p127
asI66
(lp128
Vpictures
p129
aS'canon'
p130
asI67
(lp131
S'views'
p132
aS'view'
p133
aVviewfinder
p134
asI68
(lp135
sI69
(lp136
Vcamera
p137
asI70
(lp138
Vcameras
p139
asI71
(lp140
S'control'
p141
asI72
(lp142
Vpictures
p143
aVsetting
p144
asI73
(lp145
sI74
(lp146
sI75
(lp147
sI76
(lp148
sI77
(lp149
Vpoint
p150
aS'shoot'
p151
asI78
(lp152
Vrange
p153
asI79
(lp154
sI80
(lp155
Vcamera
p156
asI81
(lp157
Vpictures
p158
asI82
(lp159
sI83
(lp160
sI84
(lp161
sI85
(lp162
Vcanon
p163
aVcamera
p164
asI86
(lp165
Vflash
p166
asI87
(lp167
sI88
(lp168
sI89
(lp169
sI90
(lp170
S'buttons'
p171
asI91
(lp172
sI92
(lp173
S'zoom'
p174
aS'lens'
p175
asI93
(lp176
S'camera'
p177
asI94
(lp178
sI95
(lp179
Vquality
p180
asI96
(lp181
sI97
(lp182
sI98
(lp183
Vcamera
p184
asI99
(lp185
S'g3'
p186
asI100
(lp187
Vphotos
p188
asI101
(lp189
sI102
(lp190
Vphotos
p191
asI103
(lp192
sI104
(lp193
S'controls'
p194
asI105
(lp195
sI106
(lp196
Vquality
p197
aS'mode'
p198
asI107
(lp199
Vmode
p200
asI108
(lp201
sI109
(lp202
S'camera'
p203
asI110
(lp204
sI111
(lp205
sI112
(lp206
sI113
(lp207
Vquality
p208
asI114
(lp209
Vcamera
p210
asI115
(lp211
sI116
(lp212
S'thing'
p213
asI117
(lp214
Vpictures
p215
asI118
(lp216
sI119
(lp217
S'thing'
p218
asI120
(lp219
sI121
(lp220
Vpoint
p221
aS'camera'
p222
asI122
(lp223
Vcamera
p224
asI123
(lp225
sI124
(lp226
sI125
(lp227
sI126
(lp228
sI127
(lp229
sI128
(lp230
sI129
(lp231
S'viewfinder'
p232
asI130
(lp233
Vproblem
p234
asI131
(lp235
Vcamera
p236
asI132
(lp237
sI133
(lp238
S'camera'
p239
asI134
(lp240
sI135
(lp241
sI136
(lp242
S'quality'
p243
aS'picture'
p244
asI137
(lp245
sI138
(lp246
S'canon'
p247
asI139
(lp248
sI140
(lp249
sI141
(lp250
sI142
(lp251
sI143
(lp252
S'options'
p253
asI144
(lp254
sI145
(lp255
sI146
(lp256
sI147
(lp257
sI148
(lp258
sI149
(lp259
sI150
(lp260
S'features'
p261
asI151
(lp262
sI152
(lp263
S'zoom'
p264
asI153
(lp265
sI154
(lp266
S'camera'
p267
asI155
(lp268
S'concerts'
p269
asI156
(lp270
sI157
(lp271
sI158
(lp272
sI159
(lp273
sI160
(lp274
sI161
(lp275
Vphotos
p276
aVlight
p277
asI162
(lp278
sI163
(lp279
sI164
(lp280
sI165
(lp281
sI166
(lp282
Vresolution
p283
asI167
(lp284
sI168
(lp285
sI169
(lp286
sI170
(lp287
S'g3'
p288
asI171
(lp289
sI172
(lp290
sI173
(lp291
Vflash
p292
aS'quality'
p293
asI174
(lp294
sI175
(lp295
Vslr
p296
asI176
(lp297
sI177
(lp298
S'limitations'
p299
aS'features'
p300
asI178
(lp301
sI179
(lp302
Vtime
p303
aVquality
p304
asI180
(lp305
S'problem'
p306
aS'time'
p307
aVdigicams
p308
aVslr
p309
asI181
(lp310
S'shutter'
p311
asI182
(lp312
Vpoint
p313
aS'digicams'
p314
asI183
(lp315
S'shutter'
p316
asI184
(lp317
sI185
(lp318
Vflash
p319
aS'images'
p320
asI186
(lp321
Vflash
p322
aVflashes
p323
aS'g3'
p324
asI187
(lp325
Vflash
p326
asI188
(lp327
Vquality
p328
asI189
(lp329
Vmode
p330
aS'shutter'
p331
asI190
(lp332
Vflashes
p333
aS'g3'
p334
asI191
(lp335
sI192
(lp336
sI193
(lp337
S'g3'
p338
aS'range'
p339
asI194
(lp340
S'walls'
p341
asI195
(lp342
sI196
(lp343
S'problem'
p344
asI197
(lp345
Vrange
p346
aVimages
p347
aS'film'
p348
asI198
(lp349
sI199
(lp350
Vlight
p351
aVimages
p352
asI200
(lp353
Vshoot
p354
aS'images'
p355
aVmode
p356
asI201
(lp357
Vimages
p358
aVimage
p359
asI202
(lp360
sI203
(lp361
Vimage
p362
aS'camera'
p363
asI204
(lp364
sI205
(lp365
sI206
(lp366
Vquality
p367
asI207
(lp368
Vimage
p369
asI208
(lp370
sI209
(lp371
Vsoftware
p372
aS'image'
p373
aS'g3'
p374
asI210
(lp375
sI211
(lp376
Vimages
p377
asI212
(lp378
Vimages
p379
asI213
(lp380
sI214
(lp381
Vcamera
p382
aVpoint
p383
aVshoot
p384
asI215
(lp385
Vpoint
p386
aS'shoot'
p387
asI216
(lp388
sI217
(lp389
sI218
(lp390
S'quality'
p391
asI219
(lp392
Vcameras
p393
asI220
(lp394
sI221
(lp395
Vcamera
p396
asI222
(lp397
sI223
(lp398
Vreview
p399
aVreviews
p400
asI224
(lp401
Vcamera
p402
asI225
(lp403
sI226
(lp404
sI227
(lp405
sI228
(lp406
Vphotos
p407
asI229
(lp408
sI230
(lp409
sI231
(lp410
Vsettings
p411
asI232
(lp412
S'modes'
p413
asI233
(lp414
Vfeatures
p415
aVphotos
p416
asI234
(lp417
S'lens'
p418
aS'viewfinder'
p419
aVreviews
p420
asI235
(lp421
S'one'
p422
asI236
(lp423
sI237
(lp424
sI238
(lp425
Vthings
p426
aVcamera
p427
asI239
(lp428
sI240
(lp429
sI241
(lp430
sI242
(lp431
Vflexibility
p432
asI243
(lp433
Vg2
p434
asI244
(lp435
S'software'
p436
asI245
(lp437
sI246
(lp438
Vbalance
p439
asI247
(lp440
sI248
(lp441
sI249
(lp442
sI250
(lp443
sI251
(lp444
S'modes'
p445
aS'mode'
p446
aVoption
p447
asI252
(lp448
sI253
(lp449
sI254
(lp450
sI255
(lp451
sI256
(lp452
Vedges
p453
asI257
(lp454
sI258
(lp455
Vcamera
p456
aS'g2'
p457
aS'g3'
p458
asI259
(lp459
S'g2'
p460
asI260
(lp461
Vquality
p462
aS'view'
p463
asI261
(lp464
sI262
(lp465
Vcanon
p466
asI263
(lp467
sI264
(lp468
sI265
(lp469
sI266
(lp470
Vlight
p471
aS'shutter'
p472
asI267
(lp473
sI268
(lp474
sI269
(lp475
Vcameras
p476
aS'g3'
p477
asI270
(lp478
sI271
(lp479
S'fiance'
p480
asI272
(lp481
S'camera'
p482
asI273
(lp483
sI274
(lp484
Vzoom
p485
aVpictures
p486
aS'features'
p487
asI275
(lp488
S'photos'
p489
asI276
(lp490
Vcamera
p491
asI277
(lp492
Vfeatures
p493
asI278
(lp494
sI279
(lp495
S'photos'
p496
asI280
(lp497
S'fiance'
p498
asI281
(lp499
sI282
(lp500
Vcamera
p501
asI283
(lp502
S'fiance'
p503
asI284
(lp504
sI285
(lp505
Vzoom
p506
aVphotos
p507
aVcameras
p508
aVsoftware
p509
asI286
(lp510
Vcamera
p511
aS'g3'
p512
asI287
(lp513
Vcameras
p514
asI288
(lp515
sI289
(lp516
Vpictures
p517
aS'cameras'
p518
asI290
(lp519
Vcamera
p520
aS'g3'
p521
asI291
(lp522
sI292
(lp523
Vphotos
p524
asI293
(lp525
sI294
(lp526
Vfeatures
p527
asI295
(lp528
Vcard
p529
asI296
(lp530
Vcameras
p531
aVshots
p532
asI297
(lp533
Vbutton
p534
aS'camera'
p535
asI298
(lp536
sI299
(lp537
sI300
(lp538
S'film'
p539
asI301
(lp540
sI302
(lp541
sI303
(lp542
Vflaw
p543
asI304
(lp544
Vtime
p545
aS'picture'
p546
asI305
(lp547
sI306
(lp548
sI307
(lp549
sI308
(lp550
sI309
(lp551
sI310
(lp552
S'camera'
p553
asI311
(lp554
sI312
(lp555
sI313
(lp556
S'button'
p557
asI314
(lp558
sI315
(lp559
S'camera'
p560
asI316
(lp561
sI317
(lp562
sI318
(lp563
S'picture'
p564
aS'kick'
p565
aS'board'
p566
asI319
(lp567
S'g3'
p568
asI320
(lp569
sI321
(lp570
sI322
(lp571
sI323
(lp572
sI324
(lp573
S'cameras'
p574
asI325
(lp575
sI326
(lp576
sI327
(lp577
sI328
(lp578
Vcameras
p579
aS'camera'
p580
asI329
(lp581
Vproblem
p582
asI330
(lp583
sI331
(lp584
sI332
(lp585
sI333
(lp586
S'g3'
p587
aVcamera
p588
asI334
(lp589
S'cameras'
p590
asI335
(lp591
sI336
(lp592
Vcamera
p593
asI337
(lp594
sI338
(lp595
sI339
(lp596
sI340
(lp597
Vpictures
p598
aVlens
p599
asI341
(lp600
sI342
(lp601
Vcamera
p602
aS'g3'
p603
asI343
(lp604
sI344
(lp605
sI345
(lp606
Vcontrols
p607
asI346
(lp608
Vreview
p609
asI347
(lp610
sI348
(lp611
Vreviews
p612
asI349
(lp613
Vreviews
p614
asI350
(lp615
sI351
(lp616
S'camera'
p617
aS'lens'
p618
asI352
(lp619
sI353
(lp620
sI354
(lp621
sI355
(lp622
sI356
(lp623
sI357
(lp624
sI358
(lp625
sI359
(lp626
sI360
(lp627
sI361
(lp628
Vchoice
p629
aS'canon'
p630
asI362
(lp631
sI363
(lp632
sI364
(lp633
sI365
(lp634
sI366
(lp635
Vfeatures
p636
asI367
(lp637
sI368
(lp638
sI369
(lp639
sI370
(lp640
sI371
(lp641
sI372
(lp642
Vcamera
p643
asI373
(lp644
sI374
(lp645
sI375
(lp646
sI376
(lp647
S'features'
p648
aS'camera'
p649
asI377
(lp650
sI378
(lp651
sI379
(lp652
sI380
(lp653
sI381
(lp654
S'batteries'
p655
asI382
(lp656
Vzoom
p657
aS'settings'
p658
aS'viewfinder'
p659
asI383
(lp660
Vflaw
p661
asI384
(lp662
Vcamera
p663
aVthing
p664
asI385
(lp665
Vcameras
p666
aS'things'
p667
asI386
(lp668
sI387
(lp669
sI388
(lp670
sI389
(lp671
Vreviews
p672
asI390
(lp673
sI391
(lp674
sI392
(lp675
sI393
(lp676
sI394
(lp677
Vcamera
p678
asI395
(lp679
Vcameras
p680
asI396
(lp681
Vcamera
p682
asI397
(lp683
sI398
(lp684
sI399
(lp685
Vcompromise
p686
asI400
(lp687
sI401
(lp688
sI402
(lp689
sI403
(lp690
S'shortcomings'
p691
asI404
(lp692
Vchoice
p693
asI405
(lp694
sI406
(lp695
sI407
(lp696
Vcompromise
p697
asI408
(lp698
sI409
(lp699
sI410
(lp700
sI411
(lp701
Vcamera
p702
asI412
(lp703
sI413
(lp704
sI414
(lp705
S'time'
p706
aVsoftware
p707
asI415
(lp708
sI416
(lp709
sI417
(lp710
sI418
(lp711
sI419
(lp712
sI420
(lp713
Vcamera
p714
asI421
(lp715
S'ti'
p716
aS'sub'
p717
asI422
(lp718
sI423
(lp719
sI424
(lp720
sI425
(lp721
sI426
(lp722
sI427
(lp723
sI428
(lp724
sI429
(lp725
sI430
(lp726
Vcamera
p727
asI431
(lp728
sI432
(lp729
S'camera'
p730
asI433
(lp731
Vcamera
p732
asI434
(lp733
Vones
p734
asI435
(lp735
sI436
(lp736
Vslr
p737
aVlens
p738
aS'point'
p739
asI437
(lp740
sI438
(lp741
sI439
(lp742
Vcamera
p743
aVcameras
p744
asI440
(lp745
Vone
p746
asI441
(lp747
Vchoice
p748
aS'camera'
p749
asI442
(lp750
sI443
(lp751
sI444
(lp752
sI445
(lp753
Vthing
p754
aVcard
p755
asI446
(lp756
Vcameras
p757
asI447
(lp758
Vthing
p759
asI448
(lp760
sI449
(lp761
sI450
(lp762
sI451
(lp763
sI452
(lp764
sI453
(lp765
sI454
(lp766
Vrange
p767
aVslr
p768
aVoptions
p769
asI455
(lp770
Vresults
p771
asI456
(lp772
sI457
(lp773
Vslr
p774
aS'range'
p775
asI458
(lp776
sI459
(lp777
sI460
(lp778
Vcard
p779
asI461
(lp780
sI462
(lp781
sI463
(lp782
sI464
(lp783
sI465
(lp784
S'unit'
p785
aVbag
p786
asI466
(lp787
sI467
(lp788
sI468
(lp789
S'one'
p790
asI469
(lp791
sI470
(lp792
Vflashes
p793
aS'g3'
p794
asI471
(lp795
sI472
(lp796
sI473
(lp797
sI474
(lp798
sI475
(lp799
S'canon'
p800
aS'options'
p801
asI476
(lp802
sI477
(lp803
sI478
(lp804
Vresults
p805
asI479
(lp806
sI480
(lp807
Vpoint
p808
aS'shoot'
p809
asI481
(lp810
Vcamera
p811
asI482
(lp812
sI483
(lp813
sI484
(lp814
Vcamera
p815
asI485
(lp816
sI486
(lp817
Vpoint
p818
aS'shoot'
p819
asI487
(lp820
Vdigicam
p821
asI488
(lp822
sI489
(lp823
Vcanon
p824
asI490
(lp825
Vmonitor
p826
asI491
(lp827
Vstory
p828
asI492
(lp829
S'story'
p830
asI493
(lp831
S'lens'
p832
asI494
(lp833
S'viewfinder'
p834
asI495
(lp835
sI496
(lp836
Vpictures
p837
aVshots
p838
asI497
(lp839
sI498
(lp840
sI499
(lp841
Vcurve
p842
asI500
(lp843
Vbattery
p844
asI501
(lp845
sI502
(lp846
Vflash
p847
aVresolution
p848
aS'quality'
p849
aS'picture'
p850
asI503
(lp851
Vflash
p852
aVcamera
p853
asI504
(lp854
sI505
(lp855
sI506
(lp856
Vquality
p857
aS'durability'
p858
asI507
(lp859
S'lens'
p860
asI508
(lp861
sI509
(lp862
sI510
(lp863
sI511
(lp864
Vpictures
p865
asI512
(lp866
Vreviews
p867
asI513
(lp868
Vg2
p869
aS'g3'
p870
aS'lens'
p871
aS'zoom'
p872
asI514
(lp873
Vchoices
p874
asI515
(lp875
sI516
(lp876
sI517
(lp877
sI518
(lp878
sI519
(lp879
sI520
(lp880
sI521
(lp881
sI522
(lp882
sI523
(lp883
sI524
(lp884
sI525
(lp885
sI526
(lp886
sI527
(lp887
sI528
(lp888
S'camera'
p889
asI529
(lp890
sI530
(lp891
Vcamera
p892
asI531
(lp893
sI532
(lp894
sI533
(lp895
sI534
(lp896
S'view'
p897
asI535
(lp898
sI536
(lp899
Vzoom
p900
aVflash
p901
aS'control'
p902
asI537
(lp903
S'g3'
p904
asI538
(lp905
S'camera'
p906
asI539
(lp907
sI540
(lp908
sI541
(lp909
Vlens
p910
aVlight
p911
aVzooms
p912
aS'quality'
p913
asI542
(lp914
sI543
(lp915
S'camera'
p916
asI544
(lp917
Vunit
p918
asI545
(lp919
Vcamera
p920
aVcontrol
p921
aVportraits
p922
asI546
(lp923
Vshoe
p924
aVunit
p925
asI547
(lp926
sI548
(lp927
S'unit'
p928
aVphotos
p929
asI549
(lp930
S'battery'
p931
asI550
(lp932
sI551
(lp933
Vcameras
p934
aS'g3'
p935
aVcamera
p936
asI552
(lp937
S'controls'
p938
asI553
(lp939
Vcamera
p940
aVsetting
p941
aVsettings
p942
asI554
(lp943
sI555
(lp944
sI556
(lp945
Vphotography
p946
asI557
(lp947
S'button'
p948
asI558
(lp949
sI559
(lp950
Vresolution
p951
asI560
(lp952
S'photos'
p953
asI561
(lp954
Vimages
p955
asI562
(lp956
sI563
(lp957
sI564
(lp958
sI565
(lp959
Vcameras
p960
asI566
(lp961
Vphotography
p962
aVshoot
p963
asI567
(lp964
sI568
(lp965
sI569
(lp966
sI570
(lp967
Vcard
p968
asI571
(lp969
Vsettings
p970
aS'pictures'
p971
aS'problem'
p972
asI572
(lp973
Vcard
p974
asI573
(lp975
sI574
(lp976
sI575
(lp977
Vlens
p978
asI576
(lp979
sI577
(lp980
sI578
(lp981
sI579
(lp982
sI580
(lp983
Vquality
p984
aS'features'
p985
aVresolution
p986
asI581
(lp987
S'features'
p988
aS'competition'
p989
asI582
(lp990
sI583
(lp991
Vfeatures
p992
aS'choice'
p993
asI584
(lp994
Vcamera
p995
asI585
(lp996
S'g2'
p997
aS'picture'
p998
aVquality
p999
asI586
(lp1000
sI587
(lp1001
Vcamera
p1002
aS'g3'
p1003
asI588
(lp1004
sI589
(lp1005
sI590
(lp1006
sI591
(lp1007
sI592
(lp1008
Vcamera
p1009
asI593
(lp1010
sI594
(lp1011
S'quality'
p1012
aS'canon'
p1013
aS'lens'
p1014
asI595
(lp1015
sI596
(lp1016
sI597
(lp1017
sI598
(lp1018
sI599
(lp1019
sI600
(lp1020
sI601
(lp1021
sI602
(lp1022
S'manual'
p1023
asI603
(lp1024
sI604
(lp1025
Vbattery
p1026
asI605
(lp1027
S'battery'
p1028
asI606
(lp1029
sI607
(lp1030
Vcameras
p1031
asI608
(lp1032
S'model'
p1033
asI609
(lp1034
sI610
(lp1035
sI611
(lp1036
Vmode
p1037
asI612
(lp1038
S'pictures'
p1039
asI613
(lp1040
S'time'
p1041
asI614
(lp1042
Vmode
p1043
aVresolution
p1044
aVcard
p1045
aS'camera'
p1046
asI615
(lp1047
sI616
(lp1048
S'camera'
p1049
asI617
(lp1050
Vpower
p1051
asI618
(lp1052
S'power'
p1053
asI619
(lp1054
sI620
(lp1055
Vpower
p1056
asI621
(lp1057
sI622
(lp1058
sI623
(lp1059
sI624
(lp1060
S'cameras'
p1061
asI625
(lp1062
sI626
(lp1063
sI627
(lp1064
sI628
(lp1065
sI629
(lp1066
sI630
(lp1067
sI631
(lp1068
Vbattery
p1069
aVpictures
p1070
asI632
(lp1071
sI633
(lp1072
Vbatteries
p1073
asI634
(lp1074
Vthings
p1075
asI635
(lp1076
Vones
p1077
asI636
(lp1078
sI637
(lp1079
sI638
(lp1080
S'nikon'
p1081
asI639
(lp1082
sI640
(lp1083
sI641
(lp1084
S'image'
p1085
asI642
(lp1086
sI643
(lp1087
sI644
(lp1088
sI645
(lp1089
sI646
(lp1090
Vcards
p1091
aS'quality'
p1092
aS'picture'
p1093
asI647
(lp1094
sI648
(lp1095
Vcamera
p1096
asI649
(lp1097
S'picture'
p1098
asI650
(lp1099
sI651
(lp1100
sI652
(lp1101
sI653
(lp1102
sI654
(lp1103
sI655
(lp1104
Vcamera
p1105
aS'quality'
p1106
asI656
(lp1107
sI657
(lp1108
sI658
(lp1109
sI659
(lp1110
sI660
(lp1111
sI661
(lp1112
Vpictures
p1113
asI662
(lp1114
sI663
(lp1115
sI664
(lp1116
Vcamera
p1117
aVfeatures
p1118
asI665
(lp1119
Vcamera
p1120
asI666
(lp1121
Vprints
p1122
asI667
(lp1123
Vcamera
p1124
asI668
(lp1125
Vcamera
p1126
asI669
(lp1127
Vsettings
p1128
asI670
(lp1129
sI671
(lp1130
S'models'
p1131
asI672
(lp1132
S'nikon'
p1133
aVsize
p1134
asI673
(lp1135
sI674
(lp1136
S'camera'
p1137
asI675
(lp1138
sI676
(lp1139
Vsetting
p1140
asI677
(lp1141
sI678
(lp1142
sI679
(lp1143
Vcameras
p1144
asI680
(lp1145
sI681
(lp1146
Vcard
p1147
asI682
(lp1148
S'one'
p1149
asI683
(lp1150
sI684
(lp1151
sI685
(lp1152
sI686
(lp1153
sI687
(lp1154
sI688
(lp1155
Vpictures
p1156
asI689
(lp1157
Vmode
p1158
aVsettings
p1159
asI690
(lp1160
S'mode'
p1161
asI691
(lp1162
sI692
(lp1163
Vresolution
p1164
asI693
(lp1165
Vprint
p1166
asI694
(lp1167
sI695
(lp1168
sI696
(lp1169
sI697
(lp1170
sI698
(lp1171
sI699
(lp1172
sI700
(lp1173
Vcamera
p1174
asI701
(lp1175
sI702
(lp1176
Vpictures
p1177
asI703
(lp1178
Vpictures
p1179
asI704
(lp1180
sI705
(lp1181
sI706
(lp1182
sI707
(lp1183
sI708
(lp1184
sI709
(lp1185
sI710
(lp1186
Vfeatures
p1187
aS'camera'
p1188
asI711
(lp1189
Vsettings
p1190
asI712
(lp1191
sI713
(lp1192
S'resolution'
p1193
asI714
(lp1194
Vpictures
p1195
aS'nikon'
p1196
asI715
(lp1197
Vzoom
p1198
asI716
(lp1199
sI717
(lp1200
Vfeatures
p1201
asI718
(lp1202
Vpics
p1203
aS'feature'
p1204
asI719
(lp1205
sI720
(lp1206
sI721
(lp1207
Vcard
p1208
asI722
(lp1209
Vresolution
p1210
asI723
(lp1211
Vpics
p1212
asI724
(lp1213
sI725
(lp1214
sI726
(lp1215
sI727
(lp1216
sI728
(lp1217
sI729
(lp1218
Vcamera
p1219
aVnikon
p1220
aS'models'
p1221
asI730
(lp1222
Vquality
p1223
asI731
(lp1224
Vbattery
p1225
aVcards
p1226
asI732
(lp1227
S'setting'
p1228
aS'settings'
p1229
asI733
(lp1230
sI734
(lp1231
sI735
(lp1232
Vfeatures
p1233
aVones
p1234
asI736
(lp1235
Vpics
p1236
asI737
(lp1237
Vpics
p1238
aS'manual'
p1239
asI738
(lp1240
sI739
(lp1241
sI740
(lp1242
sI741
(lp1243
sI742
(lp1244
sI743
(lp1245
S'pics'
p1246
asI744
(lp1247
S'pictures'
p1248
asI745
(lp1249
sI746
(lp1250
Vzoom
p1251
asI747
(lp1252
sI748
(lp1253
S'quality'
p1254
asI749
(lp1255
Vcamera
p1256
asI750
(lp1257
Vcamera
p1258
asI751
(lp1259
Vcameras
p1260
asI752
(lp1261
sI753
(lp1262
S'time'
p1263
asI754
(lp1264
sI755
(lp1265
Vcamera
p1266
asI756
(lp1267
sI757
(lp1268
sI758
(lp1269
sI759
(lp1270
sI760
(lp1271
sI761
(lp1272
sI762
(lp1273
S'card'
p1274
aS'software'
p1275
asI763
(lp1276
sI764
(lp1277
sI765
(lp1278
sI766
(lp1279
sI767
(lp1280
sI768
(lp1281
sI769
(lp1282
sI770
(lp1283
Vcamera
p1284
aS'features'
p1285
asI771
(lp1286
sI772
(lp1287
sI773
(lp1288
sI774
(lp1289
sI775
(lp1290
Vpower
p1291
asI776
(lp1292
sI777
(lp1293
Vbattery
p1294
asI778
(lp1295
sI779
(lp1296
sI780
(lp1297
sI781
(lp1298
sI782
(lp1299
Vsize
p1300
asI783
(lp1301
sI784
(lp1302
sI785
(lp1303
sI786
(lp1304
sI787
(lp1305
sI788
(lp1306
Vbattery
p1307
asI789
(lp1308
Vbattery
p1309
asI790
(lp1310
S'camera'
p1311
asI791
(lp1312
sI792
(lp1313
Vzoom
p1314
asI793
(lp1315
Vzoom
p1316
aS'size'
p1317
asI794
(lp1318
Vzoom
p1319
asI795
(lp1320
sI796
(lp1321
sI797
(lp1322
S'features'
p1323
asI798
(lp1324
S'camera'
p1325
aVmodels
p1326
asI799
(lp1327
sI800
(lp1328
Vcamera
p1329
asI801
(lp1330
sI802
(lp1331
Vshots
p1332
asI803
(lp1333
S'features'
p1334
asI804
(lp1335
Vcameras
p1336
asI805
(lp1337
sI806
(lp1338
sI807
(lp1339
sI808
(lp1340
S'nikon'
p1341
asI809
(lp1342
Vcamera
p1343
asI810
(lp1344
sI811
(lp1345
Vcamera
p1346
asI812
(lp1347
Vcard
p1348
asI813
(lp1349
sI814
(lp1350
sI815
(lp1351
sI816
(lp1352
S'pictures'
p1353
aS'pics'
p1354
aS'card'
p1355
asI817
(lp1356
sI818
(lp1357
sI819
(lp1358
S'nikon'
p1359
asI820
(lp1360
Vcamera
p1361
aVpictures
p1362
asI821
(lp1363
Vpictures
p1364
aS'camera'
p1365
asI822
(lp1366
sI823
(lp1367
sI824
(lp1368
sI825
(lp1369
sI826
(lp1370
S'camera'
p1371
asI827
(lp1372
Vshots
p1373
asI828
(lp1374
Vcard
p1375
aVcameras
p1376
asI829
(lp1377
sI830
(lp1378
Vshots
p1379
asI831
(lp1380
Vcameras
p1381
asI832
(lp1382
sI833
(lp1383
Vshots
p1384
asI834
(lp1385
sI835
(lp1386
S'software'
p1387
asI836
(lp1388
sI837
(lp1389
S'camera'
p1390
asI838
(lp1391
sI839
(lp1392
S'camera'
p1393
asI840
(lp1394
sI841
(lp1395
sI842
(lp1396
sI843
(lp1397
sI844
(lp1398
sI845
(lp1399
sI846
(lp1400
sI847
(lp1401
sI848
(lp1402
sI849
(lp1403
sI850
(lp1404
sI851
(lp1405
Vpictures
p1406
asI852
(lp1407
sI853
(lp1408
sI854
(lp1409
Vpictures
p1410
asI855
(lp1411
sI856
(lp1412
sI857
(lp1413
sI858
(lp1414
sI859
(lp1415
sI860
(lp1416
sI861
(lp1417
S'mode'
p1418
asI862
(lp1419
Vbattery
p1420
asI863
(lp1421
sI864
(lp1422
Vcameras
p1423
asI865
(lp1424
S'one'
p1425
asI866
(lp1426
sI867
(lp1427
Vsettings
p1428
asI868
(lp1429
Vshots
p1430
asI869
(lp1431
Vpictures
p1432
asI870
(lp1433
sI871
(lp1434
sI872
(lp1435
sI873
(lp1436
sI874
(lp1437
sI875
(lp1438
sI876
(lp1439
sI877
(lp1440
sI878
(lp1441
S'mode'
p1442
aVsetting
p1443
asI879
(lp1444
Vzoom
p1445
aS'camera'
p1446
asI880
(lp1447
Vsetting
p1448
asI881
(lp1449
sI882
(lp1450
Vcamera
p1451
asI883
(lp1452
Vquality
p1453
aS'camera'
p1454
asI884
(lp1455
S'nikon'
p1456
asI885
(lp1457
sI886
(lp1458
sI887
(lp1459
Vquality
p1460
asI888
(lp1461
sI889
(lp1462
sI890
(lp1463
sI891
(lp1464
Vcamera
p1465
asI892
(lp1466
sI893
(lp1467
Vcamera
p1468
asI894
(lp1469
sI895
(lp1470
sI896
(lp1471
sI897
(lp1472
sI898
(lp1473
sI899
(lp1474
sI900
(lp1475
sI901
(lp1476
sI902
(lp1477
Vcamera
p1478
aS'features'
p1479
asI903
(lp1480
sI904
(lp1481
Vcamera
p1482
aS'features'
p1483
asI905
(lp1484
sI906
(lp1485
Vmode
p1486
asI907
(lp1487
sI908
(lp1488
sI909
(lp1489
sI910
(lp1490
sI911
(lp1491
S'cameras'
p1492
aS'cards'
p1493
asI912
(lp1494
Vcameras
p1495
aS'camera'
p1496
asI913
(lp1497
sI914
(lp1498
S'features'
p1499
asI915
(lp1500
sI916
(lp1501
sI917
(lp1502
Vzooms
p1503
asI918
(lp1504
sI919
(lp1505
S'model'
p1506
aS'nikon'
p1507
asI920
(lp1508
sI921
(lp1509
sI922
(lp1510
Vzoom
p1511
asI923
(lp1512
sI924
(lp1513
sI925
(lp1514
sI926
(lp1515
sI927
(lp1516
sI928
(lp1517
sI929
(lp1518
Vpicture
p1519
asI930
(lp1520
sI931
(lp1521
sI932
(lp1522
sI933
(lp1523
sI934
(lp1524
Vcameras
p1525
asI935
(lp1526
S'camera'
p1527
asI936
(lp1528
Vimages
p1529
asI937
(lp1530
S'mode'
p1531
aVmodes
p1532
asI938
(lp1533
S'size'
p1534
asI939
(lp1535
Vcamera
p1536
asI940
(lp1537
sI941
(lp1538
Vmode
p1539
aVbattery
p1540
asI942
(lp1541
Vcamera
p1542
aVimages
p1543
asI943
(lp1544
Vservice
p1545
asI944
(lp1546
Vphone
p1547
aVproblems
p1548
asI945
(lp1549
sI946
(lp1550
sI947
(lp1551
Vsignal
p1552
aS'reception'
p1553
asI948
(lp1554
Vfeature
p1555
aS'phone'
p1556
aS'phones'
p1557
asI949
(lp1558
Vphone
p1559
aS'radio'
p1560
aVfeatures
p1561
asI950
(lp1562
S'phone'
p1563
asI951
(lp1564
Vnokia
p1565
asI952
(lp1566
sI953
(lp1567
sI954
(lp1568
Vplans
p1569
aS'service'
p1570
asI955
(lp1571
Vthings
p1572
asI956
(lp1573
sI957
(lp1574
Vfeatures
p1575
aVgames
p1576
asI958
(lp1577
Vhours
p1578
asI959
(lp1579
sI960
(lp1580
S'sound'
p1581
aS'headset'
p1582
asI961
(lp1583
S'phone'
p1584
aVringtones
p1585
asI962
(lp1586
sI963
(lp1587
sI964
(lp1588
sI965
(lp1589
sI966
(lp1590
sI967
(lp1591
Vscreen
p1592
asI968
(lp1593
sI969
(lp1594
sI970
(lp1595
sI971
(lp1596
sI972
(lp1597
Vperson
p1598
asI973
(lp1599
Vlife
p1600
aS'phone'
p1601
asI974
(lp1602
sI975
(lp1603
sI976
(lp1604
Vservice
p1605
asI977
(lp1606
sI978
(lp1607
sI979
(lp1608
sI980
(lp1609
Vhours
p1610
asI981
(lp1611
sI982
(lp1612
sI983
(lp1613
sI984
(lp1614
sI985
(lp1615
sI986
(lp1616
sI987
(lp1617
sI988
(lp1618
sI989
(lp1619
sI990
(lp1620
sI991
(lp1621
sI992
(lp1622
sI993
(lp1623
sI994
(lp1624
sI995
(lp1625
sI996
(lp1626
sI997
(lp1627
sI998
(lp1628
sI999
(lp1629
sI1000
(lp1630
sI1001
(lp1631
Vwork
p1632
asI1002
(lp1633
sI1003
(lp1634
S'phones'
p1635
asI1004
(lp1636
sI1005
(lp1637
sI1006
(lp1638
S'phone'
p1639
asI1007
(lp1640
sI1008
(lp1641
sI1009
(lp1642
Vmenus
p1643
aVphones
p1644
asI1010
(lp1645
Vphone
p1646
asI1011
(lp1647
Vphone
p1648
asI1012
(lp1649
sI1013
(lp1650
Vphone
p1651
asI1014
(lp1652
sI1015
(lp1653
S'battery'
p1654
asI1016
(lp1655
sI1017
(lp1656
sI1018
(lp1657
S'life'
p1658
asI1019
(lp1659
S'signal'
p1660
asI1020
(lp1661
sI1021
(lp1662
sI1022
(lp1663
sI1023
(lp1664
Vrings
p1665
asI1024
(lp1666
Vtones
p1667
asI1025
(lp1668
sI1026
(lp1669
Vphone
p1670
asI1027
(lp1671
sI1028
(lp1672
sI1029
(lp1673
sI1030
(lp1674
Vphone
p1675
asI1031
(lp1676
Vlife
p1677
aVsize
p1678
asI1032
(lp1679
Voptions
p1680
asI1033
(lp1681
sI1034
(lp1682
Vscreen
p1683
asI1035
(lp1684
sI1036
(lp1685
sI1037
(lp1686
sI1038
(lp1687
sI1039
(lp1688
S'games'
p1689
asI1040
(lp1690
sI1041
(lp1691
sI1042
(lp1692
S'voice'
p1693
asI1043
(lp1694
Vphone
p1695
asI1044
(lp1696
S'phones'
p1697
aS'nokia'
p1698
asI1045
(lp1699
Vplan
p1700
asI1046
(lp1701
sI1047
(lp1702
sI1048
(lp1703
S'email'
p1704
asI1049
(lp1705
Vemail
p1706
asI1050
(lp1707
S'hour'
p1708
aS'person'
p1709
asI1051
(lp1710
sI1052
(lp1711
sI1053
(lp1712
sI1054
(lp1713
Vphone
p1714
asI1055
(lp1715
sI1056
(lp1716
sI1057
(lp1717
sI1058
(lp1718
sI1059
(lp1719
Vspeakerphone
p1720
aS'things'
p1721
aVnokia
p1722
asI1060
(lp1723
sI1061
(lp1724
sI1062
(lp1725
sI1063
(lp1726
S'phone'
p1727
asI1064
(lp1728
Vfeatures
p1729
aS'speakerphone'
p1730
asI1065
(lp1731
sI1066
(lp1732
S'phone'
p1733
asI1067
(lp1734
sI1068
(lp1735
sI1069
(lp1736
S'person'
p1737
asI1070
(lp1738
sI1071
(lp1739
S'phone'
p1740
aS'person'
p1741
asI1072
(lp1742
sI1073
(lp1743
sI1074
(lp1744
Vreception
p1745
aVradio
p1746
asI1075
(lp1747
sI1076
(lp1748
Vfeature
p1749
asI1077
(lp1750
sI1078
(lp1751
Vproblem
p1752
asI1079
(lp1753
S'reception'
p1754
aS'phone'
p1755
asI1080
(lp1756
sI1081
(lp1757
sI1082
(lp1758
Vphone
p1759
asI1083
(lp1760
S'phone'
p1761
aS'phones'
p1762
asI1084
(lp1763
sI1085
(lp1764
Vphone
p1765
asI1086
(lp1766
sI1087
(lp1767
Vtime
p1768
asI1088
(lp1769
sI1089
(lp1770
sI1090
(lp1771
sI1091
(lp1772
sI1092
(lp1773
sI1093
(lp1774
sI1094
(lp1775
sI1095
(lp1776
sI1096
(lp1777
sI1097
(lp1778
Vfeatures
p1779
aS'phone'
p1780
asI1098
(lp1781
Vproblems
p1782
aS'phone'
p1783
aS'things'
p1784
aS'features'
p1785
aS'internet'
p1786
asI1099
(lp1787
sI1100
(lp1788
Vphone
p1789
asI1101
(lp1790
sI1102
(lp1791
sI1103
(lp1792
sI1104
(lp1793
Vtones
p1794
aVfeature
p1795
asI1105
(lp1796
Vfeatures
p1797
asI1106
(lp1798
sI1107
(lp1799
sI1108
(lp1800
Vring
p1801
asI1109
(lp1802
S'screen'
p1803
asI1110
(lp1804
sI1111
(lp1805
sI1112
(lp1806
sI1113
(lp1807
sI1114
(lp1808
sI1115
(lp1809
Vpiece
p1810
asI1116
(lp1811
sI1117
(lp1812
S'nokia'
p1813
asI1118
(lp1814
Vquality
p1815
aVreception
p1816
asI1119
(lp1817
sI1120
(lp1818
Vsize
p1819
aS'weight'
p1820
asI1121
(lp1821
Vphones
p1822
asI1122
(lp1823
Vkeypads
p1824
asI1123
(lp1825
S'phones'
p1826
asI1124
(lp1827
sI1125
(lp1828
Vcolors
p1829
asI1126
(lp1830
Vphones
p1831
asI1127
(lp1832
sI1128
(lp1833
Vscreen
p1834
asI1129
(lp1835
sI1130
(lp1836
sI1131
(lp1837
Voption
p1838
asI1132
(lp1839
sI1133
(lp1840
Vthing
p1841
asI1134
(lp1842
Vthings
p1843
aS'headset'
p1844
asI1135
(lp1845
sI1136
(lp1846
sI1137
(lp1847
sI1138
(lp1848
sI1139
(lp1849
sI1140
(lp1850
sI1141
(lp1851
sI1142
(lp1852
sI1143
(lp1853
sI1144
(lp1854
sI1145
(lp1855
sI1146
(lp1856
sI1147
(lp1857
sI1148
(lp1858
sI1149
(lp1859
sI1150
(lp1860
sI1151
(lp1861
sI1152
(lp1862
Vphone
p1863
asI1153
(lp1864
sI1154
(lp1865
sI1155
(lp1866
sI1156
(lp1867
Vphones
p1868
asI1157
(lp1869
sI1158
(lp1870
sI1159
(lp1871
Vquality
p1872
asI1160
(lp1873
Vfunction
p1874
asI1161
(lp1875
sI1162
(lp1876
sI1163
(lp1877
sI1164
(lp1878
S'phone'
p1879
asI1165
(lp1880
sI1166
(lp1881
S'nokia'
p1882
asI1167
(lp1883
sI1168
(lp1884
sI1169
(lp1885
sI1170
(lp1886
sI1171
(lp1887
S'phone'
p1888
asI1172
(lp1889
S'menu'
p1890
asI1173
(lp1891
S'option'
p1892
asI1174
(lp1893
S'phone'
p1894
asI1175
(lp1895
sI1176
(lp1896
sI1177
(lp1897
sI1178
(lp1898
sI1179
(lp1899
sI1180
(lp1900
sI1181
(lp1901
sI1182
(lp1902
sI1183
(lp1903
sI1184
(lp1904
S'keys'
p1905
asI1185
(lp1906
sI1186
(lp1907
Vfeatures
p1908
asI1187
(lp1909
S'keys'
p1910
asI1188
(lp1911
Vphone
p1912
aS'nokia'
p1913
asI1189
(lp1914
S'life'
p1915
asI1190
(lp1916
sI1191
(lp1917
sI1192
(lp1918
Vdesign
p1919
asI1193
(lp1920
sI1194
(lp1921
sI1195
(lp1922
S'nokia'
p1923
asI1196
(lp1924
Vyear
p1925
asI1197
(lp1926
sI1198
(lp1927
sI1199
(lp1928
sI1200
(lp1929
Vquality
p1930
aS'thing'
p1931
asI1201
(lp1932
Vquality
p1933
asI1202
(lp1934
Vphone
p1935
aS'series'
p1936
asI1203
(lp1937
Vfunction
p1938
aVphone
p1939
asI1204
(lp1940
sI1205
(lp1941
sI1206
(lp1942
sI1207
(lp1943
sI1208
(lp1944
Vphones
p1945
aS'phone'
p1946
aS'screens'
p1947
asI1209
(lp1948
sI1210
(lp1949
Vmenu
p1950
asI1211
(lp1951
Vfunctions
p1952
asI1212
(lp1953
Vfeature
p1954
asI1213
(lp1955
sI1214
(lp1956
S'phone'
p1957
asI1215
(lp1958
sI1216
(lp1959
S'phones'
p1960
asI1217
(lp1961
Vlife
p1962
aS'phone'
p1963
asI1218
(lp1964
sI1219
(lp1965
S't610'
p1966
asI1220
(lp1967
Vcamera
p1968
asI1221
(lp1969
sI1222
(lp1970
S't610'
p1971
asI1223
(lp1972
sI1224
(lp1973
Vapplication
p1974
asI1225
(lp1975
sI1226
(lp1976
S'screens'
p1977
aS'phones'
p1978
aVtones
p1979
asI1227
(lp1980
Vphones
p1981
aS'tones'
p1982
asI1228
(lp1983
S'nokia'
p1984
asI1229
(lp1985
sI1230
(lp1986
sI1231
(lp1987
Vphone
p1988
asI1232
(lp1989
S'phones'
p1990
asI1233
(lp1991
S'phones'
p1992
asI1234
(lp1993
S'phone'
p1994
asI1235
(lp1995
sI1236
(lp1996
sI1237
(lp1997
Vphone
p1998
asI1238
(lp1999
sI1239
(lp2000
sI1240
(lp2001
sI1241
(lp2002
Vreception
p2003
asI1242
(lp2004
sI1243
(lp2005
Vringtones
p2006
aS'games'
p2007
asI1244
(lp2008
Vquality
p2009
aS'thing'
p2010
asI1245
(lp2011
Vphone
p2012
asI1246
(lp2013
S'graphics'
p2014
aVgames
p2015
asI1247
(lp2016
Vphone
p2017
asI1248
(lp2018
sI1249
(lp2019
S'weight'
p2020
asI1250
(lp2021
sI1251
(lp2022
sI1252
(lp2023
sI1253
(lp2024
sI1254
(lp2025
sI1255
(lp2026
sI1256
(lp2027
Vphone
p2028
aVfeatures
p2029
asI1257
(lp2030
sI1258
(lp2031
Vphone
p2032
asI1259
(lp2033
Vphone
p2034
asI1260
(lp2035
Vphone
p2036
asI1261
(lp2037
sI1262
(lp2038
sI1263
(lp2039
sI1264
(lp2040
sI1265
(lp2041
sI1266
(lp2042
sI1267
(lp2043
sI1268
(lp2044
sI1269
(lp2045
sI1270
(lp2046
sI1271
(lp2047
sI1272
(lp2048
Vphones
p2049
asI1273
(lp2050
sI1274
(lp2051
sI1275
(lp2052
sI1276
(lp2053
sI1277
(lp2054
sI1278
(lp2055
sI1279
(lp2056
S'phone'
p2057
asI1280
(lp2058
sI1281
(lp2059
sI1282
(lp2060
Voptions
p2061
aVphone
p2062
asI1283
(lp2063
Vsound
p2064
asI1284
(lp2065
sI1285
(lp2066
sI1286
(lp2067
S'features'
p2068
asI1287
(lp2069
Vphone
p2070
aVfeatures
p2071
asI1288
(lp2072
sI1289
(lp2073
Vlife
p2074
asI1290
(lp2075
sI1291
(lp2076
Vspeakerphone
p2077
asI1292
(lp2078
S'feature'
p2079
asI1293
(lp2080
Vheadset
p2081
asI1294
(lp2082
sI1295
(lp2083
sI1296
(lp2084
S'feature'
p2085
asI1297
(lp2086
sI1298
(lp2087
sI1299
(lp2088
Vtones
p2089
aS'applications'
p2090
asI1300
(lp2091
sI1301
(lp2092
sI1302
(lp2093
sI1303
(lp2094
Vphone
p2095
asI1304
(lp2096
sI1305
(lp2097
sI1306
(lp2098
sI1307
(lp2099
sI1308
(lp2100
sI1309
(lp2101
sI1310
(lp2102
sI1311
(lp2103
S'features'
p2104
asI1312
(lp2105
Vcamera
p2106
asI1313
(lp2107
sI1314
(lp2108
sI1315
(lp2109
Vradio
p2110
aVheadset
p2111
asI1316
(lp2112
sI1317
(lp2113
sI1318
(lp2114
Vsize
p2115
asI1319
(lp2116
S'life'
p2117
asI1320
(lp2118
sI1321
(lp2119
Vphone
p2120
asI1322
(lp2121
sI1323
(lp2122
Vphone
p2123
asI1324
(lp2124
sI1325
(lp2125
sI1326
(lp2126
sI1327
(lp2127
sI1328
(lp2128
S'screen'
p2129
asI1329
(lp2130
sI1330
(lp2131
sI1331
(lp2132
sI1332
(lp2133
Vphone
p2134
asI1333
(lp2135
sI1334
(lp2136
S'motorola'
p2137
aS'anything'
p2138
asI1335
(lp2139
Vlife
p2140
aVspeakerphone
p2141
aVfunction
p2142
asI1336
(lp2143
Vbluetooth
p2144
asI1337
(lp2145
sI1338
(lp2146
sI1339
(lp2147
S'phone'
p2148
asI1340
(lp2149
sI1341
(lp2150
sI1342
(lp2151
sI1343
(lp2152
Vsize
p2153
aS'option'
p2154
asI1344
(lp2155
S'email'
p2156
asI1345
(lp2157
Vnetwork
p2158
aVemail
p2159
asI1346
(lp2160
Vinternet
p2161
asI1347
(lp2162
sI1348
(lp2163
sI1349
(lp2164
sI1350
(lp2165
sI1351
(lp2166
sI1352
(lp2167
S'phone'
p2168
asI1353
(lp2169
sI1354
(lp2170
sI1355
(lp2171
S'service'
p2172
asI1356
(lp2173
sI1357
(lp2174
sI1358
(lp2175
sI1359
(lp2176
sI1360
(lp2177
S'nokia'
p2178
asI1361
(lp2179
Vphone
p2180
asI1362
(lp2181
sI1363
(lp2182
sI1364
(lp2183
sI1365
(lp2184
sI1366
(lp2185
Vphones
p2186
asI1367
(lp2187
sI1368
(lp2188
sI1369
(lp2189
sI1370
(lp2190
sI1371
(lp2191
S'speakerphone'
p2192
asI1372
(lp2193
S'speakerphone'
p2194
asI1373
(lp2195
Vquality
p2196
asI1374
(lp2197
sI1375
(lp2198
sI1376
(lp2199
S'nokia'
p2200
asI1377
(lp2201
sI1378
(lp2202
Vquality
p2203
aS'feature'
p2204
asI1379
(lp2205
sI1380
(lp2206
sI1381
(lp2207
Vdesign
p2208
asI1382
(lp2209
sI1383
(lp2210
sI1384
(lp2211
S'phones'
p2212
asI1385
(lp2213
S'battery'
p2214
asI1386
(lp2215
sI1387
(lp2216
Vplan
p2217
aVsize
p2218
asI1388
(lp2219
S'ringtones'
p2220
asI1389
(lp2221
Vreception
p2222
aVphones
p2223
asI1390
(lp2224
S'phone'
p2225
asI1391
(lp2226
Vqualities
p2227
asI1392
(lp2228
sI1393
(lp2229
Vfeatures
p2230
asI1394
(lp2231
S'phone'
p2232
asI1395
(lp2233
sI1396
(lp2234
sI1397
(lp2235
sI1398
(lp2236
Vproblem
p2237
aS'software'
p2238
asI1399
(lp2239
S'people'
p2240
asI1400
(lp2241
sI1401
(lp2242
sI1402
(lp2243
Vphone
p2244
asI1403
(lp2245
sI1404
(lp2246
sI1405
(lp2247
sI1406
(lp2248
sI1407
(lp2249
sI1408
(lp2250
sI1409
(lp2251
S'phone'
p2252
asI1410
(lp2253
S'phone'
p2254
asI1411
(lp2255
S'series'
p2256
aVradio
p2257
aS'headset'
p2258
asI1412
(lp2259
sI1413
(lp2260
sI1414
(lp2261
Vgames
p2262
aVnokia
p2263
asI1415
(lp2264
sI1416
(lp2265
Vthing
p2266
asI1417
(lp2267
sI1418
(lp2268
S'phone'
p2269
asI1419
(lp2270
sI1420
(lp2271
Vreception
p2272
aS'quality'
p2273
asI1421
(lp2274
S'screen'
p2275
aS'phone'
p2276
asI1422
(lp2277
sI1423
(lp2278
sI1424
(lp2279
sI1425
(lp2280
S'nokia'
p2281
asI1426
(lp2282
Vphone
p2283
asI1427
(lp2284
sI1428
(lp2285
S'network'
p2286
asI1429
(lp2287
sI1430
(lp2288
Vphone
p2289
asI1431
(lp2290
sI1432
(lp2291
sI1433
(lp2292
Vpiece
p2293
asI1434
(lp2294
S'piece'
p2295
asI1435
(lp2296
Vphone
p2297
aVfeatures
p2298
asI1436
(lp2299
sI1437
(lp2300
sI1438
(lp2301
S'phone'
p2302
asI1439
(lp2303
sI1440
(lp2304
sI1441
(lp2305
sI1442
(lp2306
sI1443
(lp2307
sI1444
(lp2308
Vpeople
p2309
asI1445
(lp2310
sI1446
(lp2311
S'phone'
p2312
aVgames
p2313
aS'applications'
p2314
asI1447
(lp2315
Vapplications
p2316
aVsoftware
p2317
asI1448
(lp2318
sI1449
(lp2319
sI1450
(lp2320
sI1451
(lp2321
S'phone'
p2322
asI1452
(lp2323
sI1453
(lp2324
sI1454
(lp2325
Vthings
p2326
asI1455
(lp2327
sI1456
(lp2328
sI1457
(lp2329
Vtime
p2330
asI1458
(lp2331
S'problems'
p2332
asI1459
(lp2333
sI1460
(lp2334
S'plans'
p2335
asI1461
(lp2336
Vplans
p2337
aS'people'
p2338
asI1462
(lp2339
S'phone'
p2340
asI1463
(lp2341
S'phone'
p2342
asI1464
(lp2343
Vphone
p2344
aS'nokia'
p2345
asI1465
(lp2346
Vfeatures
p2347
aS'menus'
p2348
asI1466
(lp2349
S'nokia'
p2350
aS'phones'
p2351
asI1467
(lp2352
sI1468
(lp2353
sI1469
(lp2354
S'functions'
p2355
aS'services'
p2356
aVnetwork
p2357
asI1470
(lp2358
S'internet'
p2359
asI1471
(lp2360
sI1472
(lp2361
sI1473
(lp2362
sI1474
(lp2363
sI1475
(lp2364
sI1476
(lp2365
sI1477
(lp2366
S'screen'
p2367
asI1478
(lp2368
S'signal'
p2369
asI1479
(lp2370
Vquality
p2371
asI1480
(lp2372
S'phones'
p2373
asI1481
(lp2374
S'voice'
p2375
asI1482
(lp2376
sI1483
(lp2377
sI1484
(lp2378
S'phone'
p2379
aS'people'
p2380
asI1485
(lp2381
sI1486
(lp2382
Vphones
p2383
aS'nokia'
p2384
asI1487
(lp2385
sI1488
(lp2386
Vgames
p2387
aS'ringtones'
p2388
asI1489
(lp2389
sI1490
(lp2390
S'xtra'
p2391
asI1491
(lp2392
sI1492
(lp2393
S'player'
p2394
aVsystem
p2395
asI1493
(lp2396
Vscreen
p2397
asI1494
(lp2398
S'capacity'
p2399
asI1495
(lp2400
sI1496
(lp2401
sI1497
(lp2402
Vcapacity
p2403
asI1498
(lp2404
sI1499
(lp2405
sI1500
(lp2406
sI1501
(lp2407
S'player'
p2408
asI1502
(lp2409
Vdeal
p2410
asI1503
(lp2411
sI1504
(lp2412
sI1505
(lp2413
sI1506
(lp2414
sI1507
(lp2415
Vartist
p2416
aS'title'
p2417
asI1508
(lp2418
S'software'
p2419
asI1509
(lp2420
sI1510
(lp2421
sI1511
(lp2422
sI1512
(lp2423
sI1513
(lp2424
Vplayers
p2425
asI1514
(lp2426
sI1515
(lp2427
Vpod
p2428
asI1516
(lp2429
S'bit'
p2430
asI1517
(lp2431
S'player'
p2432
asI1518
(lp2433
sI1519
(lp2434
sI1520
(lp2435
Vscreen
p2436
asI1521
(lp2437
sI1522
(lp2438
sI1523
(lp2439
Vheadphones
p2440
asI1524
(lp2441
sI1525
(lp2442
S'pod'
p2443
asI1526
(lp2444
sI1527
(lp2445
sI1528
(lp2446
Vheadphone
p2447
aS'mp3s'
p2448
asI1529
(lp2449
sI1530
(lp2450
sI1531
(lp2451
sI1532
(lp2452
sI1533
(lp2453
S'software'
p2454
asI1534
(lp2455
sI1535
(lp2456
S'thing'
p2457
asI1536
(lp2458
sI1537
(lp2459
sI1538
(lp2460
S'customers'
p2461
aVapple
p2462
asI1539
(lp2463
sI1540
(lp2464
Vlife
p2465
aVprice
p2466
asI1541
(lp2467
S'thing'
p2468
asI1542
(lp2469
sI1543
(lp2470
Vpair
p2471
asI1544
(lp2472
Vset
p2473
aS'quality'
p2474
aS'thing'
p2475
asI1545
(lp2476
sI1546
(lp2477
S'wheel'
p2478
asI1547
(lp2479
Vbit
p2480
asI1548
(lp2481
S'screen'
p2482
asI1549
(lp2483
Vcomplaint
p2484
asI1550
(lp2485
sI1551
(lp2486
S'unit'
p2487
aVdevices
p2488
asI1552
(lp2489
sI1553
(lp2490
sI1554
(lp2491
Vsomething
p2492
asI1555
(lp2493
sI1556
(lp2494
sI1557
(lp2495
S'batteries'
p2496
asI1558
(lp2497
Vplayer
p2498
asI1559
(lp2499
sI1560
(lp2500
Vmodels
p2501
asI1561
(lp2502
Vplayer
p2503
aS'features'
p2504
aS'pod'
p2505
asI1562
(lp2506
Vplayer
p2507
asI1563
(lp2508
sI1564
(lp2509
Vlight
p2510
asI1565
(lp2511
sI1566
(lp2512
sI1567
(lp2513
sI1568
(lp2514
Vprogram
p2515
asI1569
(lp2516
sI1570
(lp2517
sI1571
(lp2518
Vcomplaint
p2519
asI1572
(lp2520
Vcontrols
p2521
asI1573
(lp2522
S'options'
p2523
asI1574
(lp2524
sI1575
(lp2525
sI1576
(lp2526
sI1577
(lp2527
sI1578
(lp2528
sI1579
(lp2529
Vquality
p2530
asI1580
(lp2531
Vmusic
p2532
aS'storage'
p2533
asI1581
(lp2534
sI1582
(lp2535
Vproblem
p2536
asI1583
(lp2537
sI1584
(lp2538
Vdrivers
p2539
aS'software'
p2540
asI1585
(lp2541
S'use'
p2542
asI1586
(lp2543
S'explorer'
p2544
asI1587
(lp2545
sI1588
(lp2546
sI1589
(lp2547
sI1590
(lp2548
S'player'
p2549
asI1591
(lp2550
S'button'
p2551
asI1592
(lp2552
sI1593
(lp2553
S'problems'
p2554
asI1594
(lp2555
S'sound'
p2556
asI1595
(lp2557
Vlabs
p2558
asI1596
(lp2559
sI1597
(lp2560
sI1598
(lp2561
sI1599
(lp2562
Vsound
p2563
aVproduct
p2564
asI1600
(lp2565
Vipod
p2566
aS'xtra'
p2567
asI1601
(lp2568
sI1602
(lp2569
S'ipod'
p2570
asI1603
(lp2571
Vcds
p2572
asI1604
(lp2573
Vspace
p2574
asI1605
(lp2575
sI1606
(lp2576
sI1607
(lp2577
sI1608
(lp2578
S'battery'
p2579
asI1609
(lp2580
Vbatteries
p2581
asI1610
(lp2582
sI1611
(lp2583
sI1612
(lp2584
sI1613
(lp2585
Vtransfer
p2586
aVsoftware
p2587
asI1614
(lp2588
S'xtra'
p2589
asI1615
(lp2590
S'price'
p2591
asI1616
(lp2592
Vbattery
p2593
asI1617
(lp2594
Vprices
p2595
asI1618
(lp2596
S'battery'
p2597
asI1619
(lp2598
Vbatteries
p2599
asI1620
(lp2600
sI1621
(lp2601
Vnomad
p2602
asI1622
(lp2603
sI1623
(lp2604
sI1624
(lp2605
S'ipod'
p2606
asI1625
(lp2607
sI1626
(lp2608
Vheadphones
p2609
asI1627
(lp2610
Vplayer
p2611
aVpair
p2612
aVquality
p2613
asI1628
(lp2614
Vplayer
p2615
asI1629
(lp2616
sI1630
(lp2617
sI1631
(lp2618
sI1632
(lp2619
S'jukebox'
p2620
asI1633
(lp2621
S'player'
p2622
asI1634
(lp2623
S'gb'
p2624
asI1635
(lp2625
sI1636
(lp2626
Vbuy
p2627
asI1637
(lp2628
S'mp3'
p2629
asI1638
(lp2630
sI1639
(lp2631
sI1640
(lp2632
sI1641
(lp2633
sI1642
(lp2634
sI1643
(lp2635
sI1644
(lp2636
sI1645
(lp2637
S'case'
p2638
asI1646
(lp2639
sI1647
(lp2640
Vquality
p2641
aS'earbuds'
p2642
asI1648
(lp2643
sI1649
(lp2644
sI1650
(lp2645
Vplayer
p2646
asI1651
(lp2647
sI1652
(lp2648
S'screen'
p2649
asI1653
(lp2650
sI1654
(lp2651
sI1655
(lp2652
Vjob
p2653
asI1656
(lp2654
S'gigs'
p2655
asI1657
(lp2656
sI1658
(lp2657
Vtransfer
p2658
aS'computer'
p2659
asI1659
(lp2660
Vdevice
p2661
asI1660
(lp2662
sI1661
(lp2663
Vplayer
p2664
asI1662
(lp2665
S'ipod'
p2666
asI1663
(lp2667
S'program'
p2668
asI1664
(lp2669
S'problems'
p2670
asI1665
(lp2671
sI1666
(lp2672
sI1667
(lp2673
sI1668
(lp2674
sI1669
(lp2675
sI1670
(lp2676
Vmusic
p2677
aS'audio'
p2678
asI1671
(lp2679
sI1672
(lp2680
sI1673
(lp2681
Vpair
p2682
asI1674
(lp2683
sI1675
(lp2684
sI1676
(lp2685
sI1677
(lp2686
S'screen'
p2687
asI1678
(lp2688
sI1679
(lp2689
sI1680
(lp2690
sI1681
(lp2691
sI1682
(lp2692
Vline
p2693
asI1683
(lp2694
Vhardware
p2695
asI1684
(lp2696
Vdrive
p2697
asI1685
(lp2698
Vdrive
p2699
aVjukeboxes
p2700
asI1686
(lp2701
S'ipod'
p2702
asI1687
(lp2703
sI1688
(lp2704
sI1689
(lp2705
sI1690
(lp2706
sI1691
(lp2707
sI1692
(lp2708
sI1693
(lp2709
Vplayer
p2710
asI1694
(lp2711
sI1695
(lp2712
S'jukebox'
p2713
asI1696
(lp2714
Vplayer
p2715
aVthing
p2716
asI1697
(lp2717
Vplayer
p2718
asI1698
(lp2719
sI1699
(lp2720
sI1700
(lp2721
sI1701
(lp2722
sI1702
(lp2723
S'wheel'
p2724
asI1703
(lp2725
sI1704
(lp2726
sI1705
(lp2727
sI1706
(lp2728
sI1707
(lp2729
sI1708
(lp2730
sI1709
(lp2731
Vpiece
p2732
asI1710
(lp2733
S'cases'
p2734
asI1711
(lp2735
Vquality
p2736
aS'zen'
p2737
asI1712
(lp2738
sI1713
(lp2739
sI1714
(lp2740
Vprogram
p2741
asI1715
(lp2742
sI1716
(lp2743
sI1717
(lp2744
sI1718
(lp2745
Vlabs
p2746
asI1719
(lp2747
sI1720
(lp2748
sI1721
(lp2749
sI1722
(lp2750
sI1723
(lp2751
sI1724
(lp2752
sI1725
(lp2753
sI1726
(lp2754
sI1727
(lp2755
sI1728
(lp2756
Vinterface
p2757
asI1729
(lp2758
Vplaylist
p2759
aS'option'
p2760
asI1730
(lp2761
sI1731
(lp2762
Vdeal
p2763
aS'titles'
p2764
aS'files'
p2765
asI1732
(lp2766
Vsongs
p2767
asI1733
(lp2768
S'songs'
p2769
asI1734
(lp2770
sI1735
(lp2771
Vplayers
p2772
asI1736
(lp2773
sI1737
(lp2774
S'transfer'
p2775
asI1738
(lp2776
S'song'
p2777
asI1739
(lp2778
sI1740
(lp2779
Vsongs
p2780
aS'errors'
p2781
asI1741
(lp2782
Vreview
p2783
asI1742
(lp2784
sI1743
(lp2785
Vdrivers
p2786
asI1744
(lp2787
sI1745
(lp2788
sI1746
(lp2789
sI1747
(lp2790
sI1748
(lp2791
sI1749
(lp2792
sI1750
(lp2793
sI1751
(lp2794
sI1752
(lp2795
sI1753
(lp2796
Vinterface
p2797
aS'software'
p2798
asI1754
(lp2799
sI1755
(lp2800
S'user'
p2801
asI1756
(lp2802
sI1757
(lp2803
Vdeal
p2804
asI1758
(lp2805
sI1759
(lp2806
Vquality
p2807
aS'unit'
p2808
aS'battery'
p2809
asI1760
(lp2810
Voptions
p2811
asI1761
(lp2812
sI1762
(lp2813
Vthing
p2814
asI1763
(lp2815
Vbutton
p2816
asI1764
(lp2817
sI1765
(lp2818
Vbuttons
p2819
asI1766
(lp2820
sI1767
(lp2821
Vsupport
p2822
asI1768
(lp2823
sI1769
(lp2824
sI1770
(lp2825
sI1771
(lp2826
sI1772
(lp2827
sI1773
(lp2828
sI1774
(lp2829
sI1775
(lp2830
sI1776
(lp2831
sI1777
(lp2832
sI1778
(lp2833
sI1779
(lp2834
sI1780
(lp2835
sI1781
(lp2836
Vplayers
p2837
asI1782
(lp2838
S'album'
p2839
asI1783
(lp2840
sI1784
(lp2841
Vquality
p2842
asI1785
(lp2843
S'zen'
p2844
asI1786
(lp2845
Vzen
p2846
aS'ipod'
p2847
asI1787
(lp2848
sI1788
(lp2849
S'ipod'
p2850
asI1789
(lp2851
sI1790
(lp2852
S'process'
p2853
asI1791
(lp2854
sI1792
(lp2855
Vproblem
p2856
asI1793
(lp2857
S'times'
p2858
aS'genres'
p2859
aVtitles
p2860
asI1794
(lp2861
sI1795
(lp2862
Vthing
p2863
asI1796
(lp2864
Vprocess
p2865
asI1797
(lp2866
Vprocess
p2867
aS'something'
p2868
aS'errors'
p2869
asI1798
(lp2870
Vproblems
p2871
asI1799
(lp2872
sI1800
(lp2873
sI1801
(lp2874
sI1802
(lp2875
sI1803
(lp2876
Vzen
p2877
asI1804
(lp2878
Vplayer
p2879
asI1805
(lp2880
Vbuy
p2881
asI1806
(lp2882
sI1807
(lp2883
S'zen'
p2884
asI1808
(lp2885
S'windows'
p2886
aVsoftware
p2887
asI1809
(lp2888
sI1810
(lp2889
S'software'
p2890
asI1811
(lp2891
sI1812
(lp2892
sI1813
(lp2893
sI1814
(lp2894
Vplaylist
p2895
aS'music'
p2896
aS'button'
p2897
asI1815
(lp2898
Vproduct
p2899
asI1816
(lp2900
Vheadphones
p2901
aS'earbuds'
p2902
asI1817
(lp2903
sI1818
(lp2904
Vquality
p2905
asI1819
(lp2906
sI1820
(lp2907
S'song'
p2908
asI1821
(lp2909
S'songs'
p2910
asI1822
(lp2911
Vscreen
p2912
asI1823
(lp2913
S'hardware'
p2914
aS'software'
p2915
aS'quality'
p2916
asI1824
(lp2917
sI1825
(lp2918
sI1826
(lp2919
Vquality
p2920
asI1827
(lp2921
sI1828
(lp2922
S'transmitter'
p2923
asI1829
(lp2924
sI1830
(lp2925
S'controls'
p2926
asI1831
(lp2927
sI1832
(lp2928
sI1833
(lp2929
S'software'
p2930
asI1834
(lp2931
S'explorer'
p2932
asI1835
(lp2933
sI1836
(lp2934
sI1837
(lp2935
sI1838
(lp2936
sI1839
(lp2937
sI1840
(lp2938
Vhours
p2939
asI1841
(lp2940
sI1842
(lp2941
sI1843
(lp2942
Vlibrary
p2943
asI1844
(lp2944
sI1845
(lp2945
S'unit'
p2946
aS'song'
p2947
asI1846
(lp2948
S'unit'
p2949
aS'songs'
p2950
aVsong
p2951
asI1847
(lp2952
S'product'
p2953
asI1848
(lp2954
sI1849
(lp2955
Vsystem
p2956
asI1850
(lp2957
sI1851
(lp2958
sI1852
(lp2959
sI1853
(lp2960
sI1854
(lp2961
sI1855
(lp2962
sI1856
(lp2963
sI1857
(lp2964
sI1858
(lp2965
sI1859
(lp2966
Vuse
p2967
asI1860
(lp2968
sI1861
(lp2969
S'cd'
p2970
asI1862
(lp2971
S'software'
p2972
asI1863
(lp2973
sI1864
(lp2974
sI1865
(lp2975
Vtitle
p2976
asI1866
(lp2977
sI1867
(lp2978
sI1868
(lp2979
Vplayers
p2980
asI1869
(lp2981
sI1870
(lp2982
S'cd'
p2983
asI1871
(lp2984
sI1872
(lp2985
sI1873
(lp2986
sI1874
(lp2987
sI1875
(lp2988
sI1876
(lp2989
sI1877
(lp2990
S'product'
p2991
asI1878
(lp2992
Vdrive
p2993
asI1879
(lp2994
sI1880
(lp2995
sI1881
(lp2996
sI1882
(lp2997
sI1883
(lp2998
sI1884
(lp2999
sI1885
(lp3000
sI1886
(lp3001
sI1887
(lp3002
sI1888
(lp3003
Vcases
p3004
asI1889
(lp3005
S'things'
p3006
asI1890
(lp3007
Vreason
p3008
aVtimes
p3009
asI1891
(lp3010
sI1892
(lp3011
sI1893
(lp3012
sI1894
(lp3013
sI1895
(lp3014
sI1896
(lp3015
sI1897
(lp3016
sI1898
(lp3017
sI1899
(lp3018
Vsong
p3019
aS'cd'
p3020
aS'time'
p3021
asI1900
(lp3022
sI1901
(lp3023
Vplayers
p3024
asI1902
(lp3025
Vproblems
p3026
asI1903
(lp3027
Vproducts
p3028
asI1904
(lp3029
Vproblem
p3030
aS'wheel'
p3031
asI1905
(lp3032
Vwarranty
p3033
asI1906
(lp3034
S'problems'
p3035
asI1907
(lp3036
Vproduct
p3037
aS'mp3'
p3038
asI1908
(lp3039
sI1909
(lp3040
S'size'
p3041
asI1910
(lp3042
sI1911
(lp3043
Vthings
p3044
asI1912
(lp3045
Vquality
p3046
asI1913
(lp3047
S'software'
p3048
asI1914
(lp3049
S'software'
p3050
asI1915
(lp3051
Vchoice
p3052
asI1916
(lp3053
S'windows'
p3054
asI1917
(lp3055
Vexplorer
p3056
asI1918
(lp3057
Vplayer
p3058
asI1919
(lp3059
sI1920
(lp3060
sI1921
(lp3061
Vstars
p3062
asI1922
(lp3063
sI1923
(lp3064
sI1924
(lp3065
sI1925
(lp3066
sI1926
(lp3067
sI1927
(lp3068
sI1928
(lp3069
sI1929
(lp3070
S'button'
p3071
asI1930
(lp3072
sI1931
(lp3073
sI1932
(lp3074
sI1933
(lp3075
sI1934
(lp3076
sI1935
(lp3077
sI1936
(lp3078
Vtransmitter
p3079
asI1937
(lp3080
S'player'
p3081
asI1938
(lp3082
sI1939
(lp3083
sI1940
(lp3084
sI1941
(lp3085
sI1942
(lp3086
Vdays
p3087
asI1943
(lp3088
sI1944
(lp3089
sI1945
(lp3090
sI1946
(lp3091
sI1947
(lp3092
Vwarranty
p3093
asI1948
(lp3094
sI1949
(lp3095
S'unit'
p3096
asI1950
(lp3097
sI1951
(lp3098
sI1952
(lp3099
sI1953
(lp3100
sI1954
(lp3101
sI1955
(lp3102
S'songs'
p3103
asI1956
(lp3104
sI1957
(lp3105
sI1958
(lp3106
sI1959
(lp3107
Vquality
p3108
asI1960
(lp3109
sI1961
(lp3110
sI1962
(lp3111
sI1963
(lp3112
sI1964
(lp3113
sI1965
(lp3114
Vbattery
p3115
aS'hassle'
p3116
aS'apple'
p3117
asI1966
(lp3118
sI1967
(lp3119
S'mp3'
p3120
asI1968
(lp3121
sI1969
(lp3122
sI1970
(lp3123
S'player'
p3124
asI1971
(lp3125
sI1972
(lp3126
sI1973
(lp3127
Vthings
p3128
asI1974
(lp3129
Vdesign
p3130
asI1975
(lp3131
sI1976
(lp3132
sI1977
(lp3133
sI1978
(lp3134
Vplayer
p3135
aS'disk'
p3136
asI1979
(lp3137
sI1980
(lp3138
sI1981
(lp3139
Vfeature
p3140
asI1982
(lp3141
sI1983
(lp3142
sI1984
(lp3143
sI1985
(lp3144
sI1986
(lp3145
Vcd
p3146
asI1987
(lp3147
sI1988
(lp3148
sI1989
(lp3149
sI1990
(lp3150
sI1991
(lp3151
Vheadphones
p3152
asI1992
(lp3153
sI1993
(lp3154
sI1994
(lp3155
sI1995
(lp3156
sI1996
(lp3157
Vreview
p3158
asI1997
(lp3159
S'track'
p3160
asI1998
(lp3161
S'light'
p3162
asI1999
(lp3163
Vjob
p3164
asI2000
(lp3165
sI2001
(lp3166
Vday
p3167
asI2002
(lp3168
sI2003
(lp3169
sI2004
(lp3170
S'zen'
p3171
asI2005
(lp3172
sI2006
(lp3173
Vprice
p3174
asI2007
(lp3175
S'artist'
p3176
asI2008
(lp3177
sI2009
(lp3178
sI2010
(lp3179
S'artist'
p3180
asI2011
(lp3181
S'artist'
p3182
asI2012
(lp3183
Vfeatures
p3184
asI2013
(lp3185
sI2014
(lp3186
Vexplorer
p3187
asI2015
(lp3188
sI2016
(lp3189
sI2017
(lp3190
S'nomad'
p3191
asI2018
(lp3192
Vorganization
p3193
asI2019
(lp3194
Vartist
p3195
aS'album'
p3196
aS'player'
p3197
aS'tags'
p3198
asI2020
(lp3199
S'players'
p3200
asI2021
(lp3201
Vnomad
p3202
asI2022
(lp3203
sI2023
(lp3204
Vproducts
p3205
asI2024
(lp3206
sI2025
(lp3207
Vreviews
p3208
asI2026
(lp3209
sI2027
(lp3210
sI2028
(lp3211
S'ipod'
p3212
asI2029
(lp3213
Vpod
p3214
asI2030
(lp3215
S'zen'
p3216
asI2031
(lp3217
sI2032
(lp3218
sI2033
(lp3219
S'music'
p3220
asI2034
(lp3221
Vquality
p3222
aVcase
p3223
aS'capacity'
p3224
asI2035
(lp3225
sI2036
(lp3226
sI2037
(lp3227
sI2038
(lp3228
sI2039
(lp3229
sI2040
(lp3230
sI2041
(lp3231
Vthing
p3232
aVstyle
p3233
aS'size'
p3234
asI2042
(lp3235
sI2043
(lp3236
sI2044
(lp3237
sI2045
(lp3238
sI2046
(lp3239
Valbums
p3240
asI2047
(lp3241
sI2048
(lp3242
sI2049
(lp3243
sI2050
(lp3244
sI2051
(lp3245
sI2052
(lp3246
sI2053
(lp3247
S'cover'
p3248
asI2054
(lp3249
sI2055
(lp3250
S'software'
p3251
aS'library'
p3252
asI2056
(lp3253
sI2057
(lp3254
Vlook
p3255
asI2058
(lp3256
sI2059
(lp3257
Vipod
p3258
asI2060
(lp3259
Vipod
p3260
asI2061
(lp3261
S'zen'
p3262
asI2062
(lp3263
sI2063
(lp3264
sI2064
(lp3265
sI2065
(lp3266
S'labs'
p3267
asI2066
(lp3268
sI2067
(lp3269
sI2068
(lp3270
sI2069
(lp3271
sI2070
(lp3272
S'songs'
p3273
asI2071
(lp3274
S'song'
p3275
asI2072
(lp3276
sI2073
(lp3277
Vlight
p3278
asI2074
(lp3279
sI2075
(lp3280
sI2076
(lp3281
sI2077
(lp3282
sI2078
(lp3283
Vplayers
p3284
asI2079
(lp3285
sI2080
(lp3286
sI2081
(lp3287
sI2082
(lp3288
sI2083
(lp3289
sI2084
(lp3290
sI2085
(lp3291
sI2086
(lp3292
Vorganization
p3293
asI2087
(lp3294
sI2088
(lp3295
sI2089
(lp3296
sI2090
(lp3297
sI2091
(lp3298
Vfeatures
p3299
asI2092
(lp3300
Vbattery
p3301
asI2093
(lp3302
sI2094
(lp3303
sI2095
(lp3304
Vdeal
p3305
asI2096
(lp3306
Vdeal
p3307
asI2097
(lp3308
Vpair
p3309
asI2098
(lp3310
sI2099
(lp3311
S'player'
p3312
asI2100
(lp3313
Vprice
p3314
aS'sound'
p3315
asI2101
(lp3316
sI2102
(lp3317
Vplayer
p3318
aS'software'
p3319
asI2103
(lp3320
Vplayer
p3321
asI2104
(lp3322
S'software'
p3323
asI2105
(lp3324
sI2106
(lp3325
sI2107
(lp3326
sI2108
(lp3327
Vcomputers
p3328
asI2109
(lp3329
sI2110
(lp3330
Vreview
p3331
asI2111
(lp3332
sI2112
(lp3333
sI2113
(lp3334
Vquality
p3335
aS'bit'
p3336
asI2114
(lp3337
Vmodel
p3338
aS'screen'
p3339
asI2115
(lp3340
sI2116
(lp3341
Vproduct
p3342
asI2117
(lp3343
Vhassle
p3344
asI2118
(lp3345
Vaudio
p3346
asI2119
(lp3347
sI2120
(lp3348
sI2121
(lp3349
Vplaylists
p3350
asI2122
(lp3351
sI2123
(lp3352
sI2124
(lp3353
S'price'
p3354
asI2125
(lp3355
sI2126
(lp3356
Vpair
p3357
aS'earbuds'
p3358
aS'tags'
p3359
asI2127
(lp3360
Vquality
p3361
aVspace
p3362
asI2128
(lp3363
sI2129
(lp3364
Vreviews
p3365
asI2130
(lp3366
sI2131
(lp3367
S'batteries'
p3368
aS'reviewers'
p3369
asI2132
(lp3370
Vsoftware
p3371
aVdrivers
p3372
asI2133
(lp3373
sI2134
(lp3374
sI2135
(lp3375
sI2136
(lp3376
S'earbuds'
p3377
asI2137
(lp3378
Vspeakers
p3379
asI2138
(lp3380
sI2139
(lp3381
sI2140
(lp3382
sI2141
(lp3383
sI2142
(lp3384
sI2143
(lp3385
sI2144
(lp3386
sI2145
(lp3387
S'stars'
p3388
asI2146
(lp3389
Vbattery
p3390
asI2147
(lp3391
sI2148
(lp3392
Vdrive
p3393
asI2149
(lp3394
sI2150
(lp3395
sI2151
(lp3396
Vquality
p3397
aVflaws
p3398
aS'size'
p3399
asI2152
(lp3400
sI2153
(lp3401
S'music'
p3402
asI2154
(lp3403
Vaudio
p3404
asI2155
(lp3405
S'jukebox'
p3406
asI2156
(lp3407
sI2157
(lp3408
Vplayers
p3409
asI2158
(lp3410
sI2159
(lp3411
sI2160
(lp3412
Vdisk
p3413
aS'nomad'
p3414
asI2161
(lp3415
Vfiles
p3416
asI2162
(lp3417
sI2163
(lp3418
sI2164
(lp3419
sI2165
(lp3420
sI2166
(lp3421
Vtransfers
p3422
asI2167
(lp3423
sI2168
(lp3424
sI2169
(lp3425
sI2170
(lp3426
S'tags'
p3427
asI2171
(lp3428
S'music'
p3429
asI2172
(lp3430
S'explorer'
p3431
asI2173
(lp3432
sI2174
(lp3433
Vfolder
p3434
asI2175
(lp3435
sI2176
(lp3436
sI2177
(lp3437
sI2178
(lp3438
sI2179
(lp3439
S'player'
p3440
aVdrive
p3441
asI2180
(lp3442
sI2181
(lp3443
Vplayer
p3444
asI2182
(lp3445
Vpiece
p3446
asI2183
(lp3447
sI2184
(lp3448
sI2185
(lp3449
S'songs'
p3450
asI2186
(lp3451
sI2187
(lp3452
sI2188
(lp3453
sI2189
(lp3454
Vway
p3455
asI2190
(lp3456
sI2191
(lp3457
Vjob
p3458
asI2192
(lp3459
sI2193
(lp3460
sI2194
(lp3461
sI2195
(lp3462
sI2196
(lp3463
sI2197
(lp3464
S'jack'
p3465
asI2198
(lp3466
Vline
p3467
asI2199
(lp3468
Vline
p3469
asI2200
(lp3470
sI2201
(lp3471
sI2202
(lp3472
sI2203
(lp3473
sI2204
(lp3474
Vversion
p3475
asI2205
(lp3476
sI2206
(lp3477
sI2207
(lp3478
Vearbuds
p3479
asI2208
(lp3480
sI2209
(lp3481
sI2210
(lp3482
sI2211
(lp3483
Vflaw
p3484
asI2212
(lp3485
sI2213
(lp3486
S'control'
p3487
asI2214
(lp3488
S'songs'
p3489
asI2215
(lp3490
S'nomad'
p3491
asI2216
(lp3492
S'button'
p3493
aS'window'
p3494
asI2217
(lp3495
sI2218
(lp3496
S'case'
p3497
asI2219
(lp3498
sI2220
(lp3499
Vbuy
p3500
asI2221
(lp3501
Vquality
p3502
aVprice
p3503
aS'player'
p3504
asI2222
(lp3505
Vplayers
p3506
asI2223
(lp3507
Vprice
p3508
aS'size'
p3509
asI2224
(lp3510
S'ipod'
p3511
asI2225
(lp3512
sI2226
(lp3513
Vbuttons
p3514
aS'interface'
p3515
asI2227
(lp3516
Vbuttons
p3517
asI2228
(lp3518
Vproblem
p3519
asI2229
(lp3520
sI2230
(lp3521
sI2231
(lp3522
sI2232
(lp3523
S'transfer'
p3524
aS'file'
p3525
asI2233
(lp3526
Vdrive
p3527
asI2234
(lp3528
sI2235
(lp3529
sI2236
(lp3530
Vsoftware
p3531
aVpeople
p3532
asI2237
(lp3533
sI2238
(lp3534
Vmemory
p3535
asI2239
(lp3536
sI2240
(lp3537
S'ipod'
p3538
asI2241
(lp3539
S'interface'
p3540
asI2242
(lp3541
S'ipod'
p3542
asI2243
(lp3543
sI2244
(lp3544
sI2245
(lp3545
sI2246
(lp3546
sI2247
(lp3547
sI2248
(lp3548
S'software'
p3549
asI2249
(lp3550
sI2250
(lp3551
S'mp3s'
p3552
aS'time'
p3553
asI2251
(lp3554
S'player'
p3555
asI2252
(lp3556
S'player'
p3557
asI2253
(lp3558
Vproduct
p3559
asI2254
(lp3560
sI2255
(lp3561
S'display'
p3562
asI2256
(lp3563
sI2257
(lp3564
Vplayers
p3565
asI2258
(lp3566
S'software'
p3567
asI2259
(lp3568
Vdrive
p3569
asI2260
(lp3570
S'software'
p3571
asI2261
(lp3572
S'controls'
p3573
asI2262
(lp3574
S'music'
p3575
asI2263
(lp3576
sI2264
(lp3577
S'playlists'
p3578
asI2265
(lp3579
S'player'
p3580
asI2266
(lp3581
Vflaws
p3582
asI2267
(lp3583
sI2268
(lp3584
sI2269
(lp3585
sI2270
(lp3586
sI2271
(lp3587
sI2272
(lp3588
S'nomad'
p3589
asI2273
(lp3590
sI2274
(lp3591
sI2275
(lp3592
sI2276
(lp3593
S'mp3'
p3594
asI2277
(lp3595
Vreason
p3596
asI2278
(lp3597
sI2279
(lp3598
S'artists'
p3599
aValbums
p3600
asI2280
(lp3601
sI2281
(lp3602
Vsoftware
p3603
asI2282
(lp3604
sI2283
(lp3605
Vplayer
p3606
asI2284
(lp3607
sI2285
(lp3608
sI2286
(lp3609
Vquality
p3610
asI2287
(lp3611
Vfeature
p3612
asI2288
(lp3613
Vcontrol
p3614
asI2289
(lp3615
S'style'
p3616
asI2290
(lp3617
Vplayer
p3618
asI2291
(lp3619
Vquality
p3620
asI2292
(lp3621
sI2293
(lp3622
sI2294
(lp3623
sI2295
(lp3624
sI2296
(lp3625
sI2297
(lp3626
S'players'
p3627
asI2298
(lp3628
sI2299
(lp3629
S'product'
p3630
asI2300
(lp3631
Vplayer
p3632
asI2301
(lp3633
Vprogram
p3634
asI2302
(lp3635
sI2303
(lp3636
S'battery'
p3637
asI2304
(lp3638
S'battery'
p3639
asI2305
(lp3640
Vbuy
p3641
aS'problems'
p3642
asI2306
(lp3643
sI2307
(lp3644
sI2308
(lp3645
sI2309
(lp3646
S'life'
p3647
asI2310
(lp3648
sI2311
(lp3649
sI2312
(lp3650
sI2313
(lp3651
Vcomplaint
p3652
aS'tags'
p3653
asI2314
(lp3654
sI2315
(lp3655
S'transfers'
p3656
asI2316
(lp3657
sI2317
(lp3658
sI2318
(lp3659
Vdeal
p3660
asI2319
(lp3661
sI2320
(lp3662
sI2321
(lp3663
Vthings
p3664
asI2322
(lp3665
Vthing
p3666
asI2323
(lp3667
sI2324
(lp3668
sI2325
(lp3669
S'files'
p3670
asI2326
(lp3671
sI2327
(lp3672
sI2328
(lp3673
S'something'
p3674
asI2329
(lp3675
Vheadphones
p3676
asI2330
(lp3677
sI2331
(lp3678
sI2332
(lp3679
sI2333
(lp3680
sI2334
(lp3681
sI2335
(lp3682
Vsomething
p3683
asI2336
(lp3684
Vbuy
p3685
asI2337
(lp3686
sI2338
(lp3687
S'jukebox'
p3688
asI2339
(lp3689
Vproduct
p3690
asI2340
(lp3691
S'players'
p3692
asI2341
(lp3693
Vplayer
p3694
asI2342
(lp3695
sI2343
(lp3696
S'hardware'
p3697
asI2344
(lp3698
sI2345
(lp3699
Vplayer
p3700
asI2346
(lp3701
S'player'
p3702
asI2347
(lp3703
sI2348
(lp3704
sI2349
(lp3705
S'track'
p3706
asI2350
(lp3707
sI2351
(lp3708
sI2352
(lp3709
S'player'
p3710
asI2353
(lp3711
sI2354
(lp3712
Vplayer
p3713
asI2355
(lp3714
sI2356
(lp3715
Vcomputer
p3716
aVdrive
p3717
asI2357
(lp3718
sI2358
(lp3719
S'ipod'
p3720
asI2359
(lp3721
sI2360
(lp3722
sI2361
(lp3723
sI2362
(lp3724
Vlife
p3725
asI2363
(lp3726
sI2364
(lp3727
Vcollection
p3728
asI2365
(lp3729
sI2366
(lp3730
sI2367
(lp3731
sI2368
(lp3732
sI2369
(lp3733
Vtime
p3734
asI2370
(lp3735
S'transfer'
p3736
asI2371
(lp3737
Vcomputer
p3738
aS'process'
p3739
asI2372
(lp3740
sI2373
(lp3741
Vcd
p3742
aS'tracks'
p3743
asI2374
(lp3744
sI2375
(lp3745
S'cd'
p3746
aVartist
p3747
asI2376
(lp3748
S'cd'
p3749
asI2377
(lp3750
sI2378
(lp3751
S'information'
p3752
asI2379
(lp3753
Vproblem
p3754
aVnames
p3755
asI2380
(lp3756
sI2381
(lp3757
Vdisk
p3758
asI2382
(lp3759
sI2383
(lp3760
sI2384
(lp3761
S'tracks'
p3762
asI2385
(lp3763
sI2386
(lp3764
sI2387
(lp3765
S'cds'
p3766
asI2388
(lp3767
sI2389
(lp3768
Vcd
p3769
asI2390
(lp3770
sI2391
(lp3771
sI2392
(lp3772
Vproblems
p3773
asI2393
(lp3774
sI2394
(lp3775
sI2395
(lp3776
sI2396
(lp3777
sI2397
(lp3778
sI2398
(lp3779
S'ipod'
p3780
asI2399
(lp3781
sI2400
(lp3782
S'zen'
p3783
asI2401
(lp3784
sI2402
(lp3785
Vsoftware
p3786
asI2403
(lp3787
sI2404
(lp3788
sI2405
(lp3789
S'zen'
p3790
aVdrive
p3791
asI2406
(lp3792
S'transfer'
p3793
asI2407
(lp3794
S'time'
p3795
asI2408
(lp3796
Vdrive
p3797
asI2409
(lp3798
S'device'
p3799
aS'player'
p3800
asI2410
(lp3801
Vsoftware
p3802
aS'computer'
p3803
asI2411
(lp3804
sI2412
(lp3805
S'songs'
p3806
aS'ipod'
p3807
asI2413
(lp3808
sI2414
(lp3809
sI2415
(lp3810
sI2416
(lp3811
sI2417
(lp3812
sI2418
(lp3813
sI2419
(lp3814
Vbutton
p3815
asI2420
(lp3816
sI2421
(lp3817
sI2422
(lp3818
sI2423
(lp3819
sI2424
(lp3820
S'ipod'
p3821
asI2425
(lp3822
sI2426
(lp3823
Vplaylist
p3824
asI2427
(lp3825
sI2428
(lp3826
S'ipod'
p3827
aS'controls'
p3828
asI2429
(lp3829
S'ipod'
p3830
asI2430
(lp3831
S'software'
p3832
asI2431
(lp3833
Vproduct
p3834
asI2432
(lp3835
sI2433
(lp3836
sI2434
(lp3837
sI2435
(lp3838
Vissue
p3839
asI2436
(lp3840
Vproduct
p3841
aVstorage
p3842
aS'life'
p3843
aS'ipod'
p3844
asI2437
(lp3845
sI2438
(lp3846
sI2439
(lp3847
Vcollection
p3848
asI2440
(lp3849
S'software'
p3850
asI2441
(lp3851
Vreviews
p3852
asI2442
(lp3853
S'unit'
p3854
asI2443
(lp3855
Vtransmitter
p3856
asI2444
(lp3857
sI2445
(lp3858
sI2446
(lp3859
sI2447
(lp3860
sI2448
(lp3861
S'players'
p3862
asI2449
(lp3863
sI2450
(lp3864
sI2451
(lp3865
sI2452
(lp3866
sI2453
(lp3867
sI2454
(lp3868
sI2455
(lp3869
sI2456
(lp3870
sI2457
(lp3871
sI2458
(lp3872
sI2459
(lp3873
sI2460
(lp3874
sI2461
(lp3875
Vdrive
p3876
asI2462
(lp3877
sI2463
(lp3878
sI2464
(lp3879
sI2465
(lp3880
Vdrive
p3881
asI2466
(lp3882
sI2467
(lp3883
Vcapacity
p3884
asI2468
(lp3885
Vsize
p3886
asI2469
(lp3887
Vcase
p3888
asI2470
(lp3889
S'cover'
p3890
aS'device'
p3891
asI2471
(lp3892
Vreviewers
p3893
asI2472
(lp3894
S'computer'
p3895
asI2473
(lp3896
Vartist
p3897
asI2474
(lp3898
sI2475
(lp3899
sI2476
(lp3900
sI2477
(lp3901
sI2478
(lp3902
sI2479
(lp3903
sI2480
(lp3904
S'ipod'
p3905
asI2481
(lp3906
sI2482
(lp3907
Vdeal
p3908
asI2483
(lp3909
S'data'
p3910
asI2484
(lp3911
sI2485
(lp3912
sI2486
(lp3913
sI2487
(lp3914
S'something'
p3915
asI2488
(lp3916
sI2489
(lp3917
S'file'
p3918
aS'problems'
p3919
asI2490
(lp3920
sI2491
(lp3921
sI2492
(lp3922
Vstar
p3923
asI2493
(lp3924
sI2494
(lp3925
sI2495
(lp3926
sI2496
(lp3927
Vthings
p3928
aVlight
p3929
aVsound
p3930
asI2497
(lp3931
Vmp3s
p3932
asI2498
(lp3933
sI2499
(lp3934
Vprice
p3935
aVsound
p3936
asI2500
(lp3937
sI2501
(lp3938
sI2502
(lp3939
sI2503
(lp3940
Vipod
p3941
asI2504
(lp3942
Vlife
p3943
asI2505
(lp3944
S'ipod'
p3945
aVuse
p3946
asI2506
(lp3947
sI2507
(lp3948
Vipod
p3949
aVchoice
p3950
asI2508
(lp3951
S'player'
p3952
asI2509
(lp3953
Vquality
p3954
aS'ipod'
p3955
aS'music'
p3956
aVplayer
p3957
asI2510
(lp3958
Vproduct
p3959
asI2511
(lp3960
sI2512
(lp3961
sI2513
(lp3962
sI2514
(lp3963
sI2515
(lp3964
sI2516
(lp3965
S'window'
p3966
asI2517
(lp3967
sI2518
(lp3968
sI2519
(lp3969
sI2520
(lp3970
sI2521
(lp3971
Vquality
p3972
asI2522
(lp3973
sI2523
(lp3974
sI2524
(lp3975
sI2525
(lp3976
Valbums
p3977
asI2526
(lp3978
sI2527
(lp3979
S'album'
p3980
asI2528
(lp3981
S'cd'
p3982
asI2529
(lp3983
Vname
p3984
aS'genre'
p3985
asI2530
(lp3986
sI2531
(lp3987
Vway
p3988
asI2532
(lp3989
S'zen'
p3990
asI2533
(lp3991
sI2534
(lp3992
Vcd
p3993
asI2535
(lp3994
sI2536
(lp3995
Vsongs
p3996
asI2537
(lp3997
sI2538
(lp3998
S'song'
p3999
asI2539
(lp4000
sI2540
(lp4001
sI2541
(lp4002
S'tracks'
p4003
aS'track'
p4004
asI2542
(lp4005
Vtitles
p4006
asI2543
(lp4007
S'tag'
p4008
asI2544
(lp4009
sI2545
(lp4010
sI2546
(lp4011
Vplayer
p4012
asI2547
(lp4013
sI2548
(lp4014
S'features'
p4015
aVnoise
p4016
asI2549
(lp4017
S'xtra'
p4018
asI2550
(lp4019
Vplayer
p4020
aVprice
p4021
asI2551
(lp4022
sI2552
(lp4023
sI2553
(lp4024
Vcollection
p4025
asI2554
(lp4026
S'battery'
p4027
aVsound
p4028
asI2555
(lp4029
Vthings
p4030
aVsystem
p4031
aS'case'
p4032
asI2556
(lp4033
Vpiece
p4034
asI2557
(lp4035
S'week'
p4036
asI2558
(lp4037
S'quality'
p4038
asI2559
(lp4039
Vplayer
p4040
asI2560
(lp4041
sI2561
(lp4042
sI2562
(lp4043
sI2563
(lp4044
sI2564
(lp4045
sI2565
(lp4046
sI2566
(lp4047
sI2567
(lp4048
sI2568
(lp4049
sI2569
(lp4050
sI2570
(lp4051
sI2571
(lp4052
sI2572
(lp4053
sI2573
(lp4054
Vplayer
p4055
aVwarranty
p4056
asI2574
(lp4057
sI2575
(lp4058
Vplayers
p4059
asI2576
(lp4060
sI2577
(lp4061
sI2578
(lp4062
Vstorage
p4063
asI2579
(lp4064
S'nomad'
p4065
asI2580
(lp4066
Vwarranty
p4067
asI2581
(lp4068
sI2582
(lp4069
S'battery'
p4070
asI2583
(lp4071
Vbattery
p4072
asI2584
(lp4073
Vsoftware
p4074
aS'zen'
p4075
asI2585
(lp4076
sI2586
(lp4077
sI2587
(lp4078
sI2588
(lp4079
sI2589
(lp4080
Vnoise
p4081
asI2590
(lp4082
S'earbuds'
p4083
asI2591
(lp4084
sI2592
(lp4085
sI2593
(lp4086
Vfeatures
p4087
asI2594
(lp4088
sI2595
(lp4089
sI2596
(lp4090
sI2597
(lp4091
sI2598
(lp4092
S'display'
p4093
aS'case'
p4094
asI2599
(lp4095
sI2600
(lp4096
S'nomad'
p4097
asI2601
(lp4098
S'file'
p4099
aS'transfer'
p4100
aS'player'
p4101
aS'software'
p4102
asI2602
(lp4103
sI2603
(lp4104
Vdevice
p4105
asI2604
(lp4106
S'players'
p4107
asI2605
(lp4108
S'zen'
p4109
asI2606
(lp4110
sI2607
(lp4111
Vsoftware
p4112
asI2608
(lp4113
S'tags'
p4114
asI2609
(lp4115
sI2610
(lp4116
sI2611
(lp4117
Vquality
p4118
aS'mediasource'
p4119
asI2612
(lp4120
sI2613
(lp4121
sI2614
(lp4122
sI2615
(lp4123
sI2616
(lp4124
S'eax'
p4125
asI2617
(lp4126
sI2618
(lp4127
sI2619
(lp4128
sI2620
(lp4129
sI2621
(lp4130
sI2622
(lp4131
Vflaws
p4132
asI2623
(lp4133
sI2624
(lp4134
S'reviewers'
p4135
asI2625
(lp4136
S'reviewers'
p4137
asI2626
(lp4138
sI2627
(lp4139
Vdrive
p4140
asI2628
(lp4141
S'zen'
p4142
aS'collection'
p4143
asI2629
(lp4144
S'device'
p4145
asI2630
(lp4146
S'zen'
p4147
asI2631
(lp4148
Vbutton
p4149
aS'buttons'
p4150
asI2632
(lp4151
sI2633
(lp4152
Vreviews
p4153
asI2634
(lp4154
Vchoice
p4155
aS'battery'
p4156
asI2635
(lp4157
sI2636
(lp4158
sI2637
(lp4159
S'error'
p4160
asI2638
(lp4161
sI2639
(lp4162
sI2640
(lp4163
sI2641
(lp4164
Vcomputers
p4165
asI2642
(lp4166
sI2643
(lp4167
sI2644
(lp4168
sI2645
(lp4169
Vname
p4170
aS'file'
p4171
aS'transfer'
p4172
asI2646
(lp4173
sI2647
(lp4174
S'zen'
p4175
asI2648
(lp4176
S'files'
p4177
aS'gb'
p4178
asI2649
(lp4179
Vfeatures
p4180
aVinformation
p4181
asI2650
(lp4182
sI2651
(lp4183
sI2652
(lp4184
Vreason
p4185
asI2653
(lp4186
sI2654
(lp4187
Vzen
p4188
asI2655
(lp4189
sI2656
(lp4190
sI2657
(lp4191
Vsoftware
p4192
aS'driver'
p4193
asI2658
(lp4194
sI2659
(lp4195
sI2660
(lp4196
Vmemory
p4197
asI2661
(lp4198
Vquality
p4199
asI2662
(lp4200
sI2663
(lp4201
sI2664
(lp4202
sI2665
(lp4203
sI2666
(lp4204
S'device'
p4205
asI2667
(lp4206
sI2668
(lp4207
sI2669
(lp4208
S'ipod'
p4209
asI2670
(lp4210
sI2671
(lp4211
sI2672
(lp4212
Vreason
p4213
asI2673
(lp4214
sI2674
(lp4215
sI2675
(lp4216
sI2676
(lp4217
sI2677
(lp4218
Vsongs
p4219
aS'albums'
p4220
asI2678
(lp4221
sI2679
(lp4222
Vquality
p4223
asI2680
(lp4224
sI2681
(lp4225
sI2682
(lp4226
sI2683
(lp4227
sI2684
(lp4228
sI2685
(lp4229
S'cover'
p4230
asI2686
(lp4231
sI2687
(lp4232
sI2688
(lp4233
sI2689
(lp4234
S'time'
p4235
asI2690
(lp4236
sI2691
(lp4237
Vquality
p4238
asI2692
(lp4239
Vcomputer
p4240
asI2693
(lp4241
sI2694
(lp4242
sI2695
(lp4243
sI2696
(lp4244
S'jukebox'
p4245
asI2697
(lp4246
sI2698
(lp4247
sI2699
(lp4248
Vcd
p4249
asI2700
(lp4250
Vconstruction
p4251
asI2701
(lp4252
Vquality
p4253
asI2702
(lp4254
sI2703
(lp4255
sI2704
(lp4256
S'price'
p4257
asI2705
(lp4258
S'wheel'
p4259
aS'software'
p4260
asI2706
(lp4261
sI2707
(lp4262
S'device'
p4263
aS'people'
p4264
asI2708
(lp4265
sI2709
(lp4266
sI2710
(lp4267
Vproducts
p4268
asI2711
(lp4269
sI2712
(lp4270
S'jack'
p4271
asI2713
(lp4272
sI2714
(lp4273
sI2715
(lp4274
Vreviews
p4275
asI2716
(lp4276
S'way'
p4277
aVreviewers
p4278
asI2717
(lp4279
sI2718
(lp4280
Vreviewers
p4281
asI2719
(lp4282
sI2720
(lp4283
S'device'
p4284
asI2721
(lp4285
S'device'
p4286
asI2722
(lp4287
sI2723
(lp4288
sI2724
(lp4289
sI2725
(lp4290
S'days'
p4291
asI2726
(lp4292
sI2727
(lp4293
sI2728
(lp4294
Vpoint
p4295
asI2729
(lp4296
Vdrive
p4297
aVcard
p4298
asI2730
(lp4299
sI2731
(lp4300
sI2732
(lp4301
sI2733
(lp4302
Vsoftware
p4303
asI2734
(lp4304
sI2735
(lp4305
Vproduct
p4306
asI2736
(lp4307
sI2737
(lp4308
sI2738
(lp4309
sI2739
(lp4310
sI2740
(lp4311
sI2741
(lp4312
sI2742
(lp4313
sI2743
(lp4314
Vspeakers
p4315
aS'noise'
p4316
asI2744
(lp4317
sI2745
(lp4318
S'speakers'
p4319
asI2746
(lp4320
Vcollection
p4321
asI2747
(lp4322
S'explorer'
p4323
asI2748
(lp4324
S'explorer'
p4325
asI2749
(lp4326
S'song'
p4327
asI2750
(lp4328
sI2751
(lp4329
sI2752
(lp4330
Vplayer
p4331
aVlook
p4332
asI2753
(lp4333
Vcase
p4334
aVdesign
p4335
asI2754
(lp4336
sI2755
(lp4337
S'cd'
p4338
asI2756
(lp4339
sI2757
(lp4340
sI2758
(lp4341
Vplayer
p4342
aS'collection'
p4343
asI2759
(lp4344
Vtime
p4345
asI2760
(lp4346
sI2761
(lp4347
S'tracks'
p4348
aVplayers
p4349
asI2762
(lp4350
S'player'
p4351
asI2763
(lp4352
sI2764
(lp4353
sI2765
(lp4354
S'explorer'
p4355
asI2766
(lp4356
S'organization'
p4357
aVfiles
p4358
asI2767
(lp4359
sI2768
(lp4360
S'folders'
p4361
asI2769
(lp4362
S'zen'
p4363
aS'people'
p4364
aS'files'
p4365
asI2770
(lp4366
S'music'
p4367
asI2771
(lp4368
sI2772
(lp4369
sI2773
(lp4370
Vtransmitters
p4371
asI2774
(lp4372
sI2775
(lp4373
S'case'
p4374
asI2776
(lp4375
sI2777
(lp4376
S'case'
p4377
asI2778
(lp4378
sI2779
(lp4379
Vmediasource
p4380
asI2780
(lp4381
sI2781
(lp4382
S'version'
p4383
aS'mediasource'
p4384
asI2782
(lp4385
sI2783
(lp4386
sI2784
(lp4387
Vdrive
p4388
asI2785
(lp4389
Vpair
p4390
asI2786
(lp4391
sI2787
(lp4392
Vset
p4393
aS'transmitter'
p4394
asI2788
(lp4395
sI2789
(lp4396
sI2790
(lp4397
sI2791
(lp4398
sI2792
(lp4399
sI2793
(lp4400
sI2794
(lp4401
sI2795
(lp4402
sI2796
(lp4403
sI2797
(lp4404
Vspeakers
p4405
asI2798
(lp4406
S'jukebox'
p4407
asI2799
(lp4408
sI2800
(lp4409
sI2801
(lp4410
sI2802
(lp4411
sI2803
(lp4412
sI2804
(lp4413
S'thing'
p4414
asI2805
(lp4415
sI2806
(lp4416
Vipod
p4417
asI2807
(lp4418
S'feature'
p4419
asI2808
(lp4420
sI2809
(lp4421
sI2810
(lp4422
sI2811
(lp4423
Vthing
p4424
asI2812
(lp4425
S'cover'
p4426
asI2813
(lp4427
sI2814
(lp4428
S'ones'
p4429
aS'eax'
p4430
asI2815
(lp4431
sI2816
(lp4432
S'songs'
p4433
asI2817
(lp4434
sI2818
(lp4435
Vtitle
p4436
asI2819
(lp4437
sI2820
(lp4438
S'jack'
p4439
asI2821
(lp4440
sI2822
(lp4441
sI2823
(lp4442
sI2824
(lp4443
Vreviews
p4444
asI2825
(lp4445
Vcollection
p4446
asI2826
(lp4447
sI2827
(lp4448
sI2828
(lp4449
S'time'
p4450
asI2829
(lp4451
S'player'
p4452
asI2830
(lp4453
Vsoftware
p4454
aS'drivers'
p4455
asI2831
(lp4456
sI2832
(lp4457
Vreviews
p4458
asI2833
(lp4459
Vtime
p4460
asI2834
(lp4461
Vsound
p4462
aVsongs
p4463
asI2835
(lp4464
Vsize
p4465
asI2836
(lp4466
Vdrive
p4467
asI2837
(lp4468
sI2838
(lp4469
sI2839
(lp4470
S'zen'
p4471
asI2840
(lp4472
Vprice
p4473
aS'size'
p4474
asI2841
(lp4475
sI2842
(lp4476
sI2843
(lp4477
sI2844
(lp4478
sI2845
(lp4479
sI2846
(lp4480
sI2847
(lp4481
Vartist
p4482
aS'genre'
p4483
asI2848
(lp4484
sI2849
(lp4485
sI2850
(lp4486
sI2851
(lp4487
sI2852
(lp4488
sI2853
(lp4489
sI2854
(lp4490
Vartists
p4491
aS'genres'
p4492
asI2855
(lp4493
Vplayer
p4494
aS'name'
p4495
asI2856
(lp4496
Vhassle
p4497
asI2857
(lp4498
S'music'
p4499
asI2858
(lp4500
S'tags'
p4501
asI2859
(lp4502
S'problem'
p4503
aS'sets'
p4504
asI2860
(lp4505
sI2861
(lp4506
S'nomad'
p4507
asI2862
(lp4508
S'system'
p4509
aVtimes
p4510
asI2863
(lp4511
sI2864
(lp4512
sI2865
(lp4513
sI2866
(lp4514
sI2867
(lp4515
Vdrive
p4516
aS'weeks'
p4517
asI2868
(lp4518
Vquality
p4519
aVreviewer
p4520
aS'eax'
p4521
asI2869
(lp4522
Vheadphones
p4523
asI2870
(lp4524
sI2871
(lp4525
S'controls'
p4526
asI2872
(lp4527
sI2873
(lp4528
Vuser
p4529
asI2874
(lp4530
Vproblem
p4531
asI2875
(lp4532
Vdesign
p4533
asI2876
(lp4534
S'screen'
p4535
asI2877
(lp4536
sI2878
(lp4537
sI2879
(lp4538
sI2880
(lp4539
sI2881
(lp4540
Vbutton
p4541
asI2882
(lp4542
Vlife
p4543
asI2883
(lp4544
S'battery'
p4545
asI2884
(lp4546
sI2885
(lp4547
sI2886
(lp4548
sI2887
(lp4549
S'battery'
p4550
asI2888
(lp4551
S'zen'
p4552
asI2889
(lp4553
sI2890
(lp4554
Vplayers
p4555
aVipod
p4556
asI2891
(lp4557
S'zen'
p4558
asI2892
(lp4559
sI2893
(lp4560
sI2894
(lp4561
sI2895
(lp4562
S'zen'
p4563
asI2896
(lp4564
sI2897
(lp4565
Vsoftware
p4566
asI2898
(lp4567
Vlabs
p4568
asI2899
(lp4569
S'zen'
p4570
asI2900
(lp4571
sI2901
(lp4572
Vzen
p4573
asI2902
(lp4574
Vsupport
p4575
asI2903
(lp4576
S'products'
p4577
aVvalue
p4578
asI2904
(lp4579
sI2905
(lp4580
S'ipod'
p4581
asI2906
(lp4582
Vdesign
p4583
aS'looks'
p4584
asI2907
(lp4585
Vbuttons
p4586
asI2908
(lp4587
Vreviewers
p4588
aS'button'
p4589
aS'device'
p4590
asI2909
(lp4591
S'interface'
p4592
asI2910
(lp4593
Vbattery
p4594
aVconstruction
p4595
asI2911
(lp4596
Vdisk
p4597
asI2912
(lp4598
Vmusic
p4599
aS'data'
p4600
asI2913
(lp4601
Vcomputers
p4602
asI2914
(lp4603
sI2915
(lp4604
sI2916
(lp4605
sI2917
(lp4606
S'ipod'
p4607
asI2918
(lp4608
Vsupport
p4609
aVquality
p4610
aVwheel
p4611
asI2919
(lp4612
S'quality'
p4613
asI2920
(lp4614
S'zen'
p4615
aS'battery'
p4616
asI2921
(lp4617
S'battery'
p4618
asI2922
(lp4619
sI2923
(lp4620
sI2924
(lp4621
S'products'
p4622
asI2925
(lp4623
Vusers
p4624
asI2926
(lp4625
Vsoftware
p4626
asI2927
(lp4627
Vpeople
p4628
aS'problem'
p4629
asI2928
(lp4630
S'zen'
p4631
asI2929
(lp4632
sI2930
(lp4633
S'zen'
p4634
asI2931
(lp4635
Vusers
p4636
asI2932
(lp4637
sI2933
(lp4638
sI2934
(lp4639
Vdevice
p4640
asI2935
(lp4641
Vquality
p4642
asI2936
(lp4643
S'quality'
p4644
asI2937
(lp4645
sI2938
(lp4646
Vplayer
p4647
asI2939
(lp4648
sI2940
(lp4649
S'folders'
p4650
aS'storage'
p4651
asI2941
(lp4652
Vcollections
p4653
asI2942
(lp4654
S'button'
p4655
asI2943
(lp4656
sI2944
(lp4657
sI2945
(lp4658
Vcomplaint
p4659
aVdisplay
p4660
asI2946
(lp4661
sI2947
(lp4662
sI2948
(lp4663
Vbutton
p4664
asI2949
(lp4665
sI2950
(lp4666
S'one'
p4667
asI2951
(lp4668
Vdevices
p4669
asI2952
(lp4670
sI2953
(lp4671
sI2954
(lp4672
sI2955
(lp4673
sI2956
(lp4674
sI2957
(lp4675
sI2958
(lp4676
sI2959
(lp4677
sI2960
(lp4678
S'headphones'
p4679
asI2961
(lp4680
S'product'
p4681
asI2962
(lp4682
sI2963
(lp4683
sI2964
(lp4684
sI2965
(lp4685
sI2966
(lp4686
S'player'
p4687
asI2967
(lp4688
sI2968
(lp4689
S'player'
p4690
asI2969
(lp4691
sI2970
(lp4692
sI2971
(lp4693
S'battery'
p4694
asI2972
(lp4695
S'pod'
p4696
asI2973
(lp4697
sI2974
(lp4698
sI2975
(lp4699
sI2976
(lp4700
sI2977
(lp4701
sI2978
(lp4702
sI2979
(lp4703
Vbit
p4704
asI2980
(lp4705
sI2981
(lp4706
sI2982
(lp4707
sI2983
(lp4708
S'software'
p4709
asI2984
(lp4710
S'problem'
p4711
asI2985
(lp4712
S'players'
p4713
asI2986
(lp4714
Vlab
p4715
asI2987
(lp4716
sI2988
(lp4717
sI2989
(lp4718
sI2990
(lp4719
sI2991
(lp4720
sI2992
(lp4721
sI2993
(lp4722
sI2994
(lp4723
sI2995
(lp4724
S'player'
p4725
asI2996
(lp4726
sI2997
(lp4727
sI2998
(lp4728
Vweeks
p4729
asI2999
(lp4730
Vplayer
p4731
asI3000
(lp4732
sI3001
(lp4733
sI3002
(lp4734
sI3003
(lp4735
sI3004
(lp4736
Vcollection
p4737
asI3005
(lp4738
sI3006
(lp4739
sI3007
(lp4740
sI3008
(lp4741
S'sound'
p4742
asI3009
(lp4743
sI3010
(lp4744
sI3011
(lp4745
sI3012
(lp4746
S'software'
p4747
aVcollection
p4748
asI3013
(lp4749
sI3014
(lp4750
sI3015
(lp4751
Vpeople
p4752
asI3016
(lp4753
Vcollection
p4754
asI3017
(lp4755
sI3018
(lp4756
sI3019
(lp4757
sI3020
(lp4758
sI3021
(lp4759
S'player'
p4760
asI3022
(lp4761
sI3023
(lp4762
sI3024
(lp4763
Vthings
p4764
asI3025
(lp4765
sI3026
(lp4766
sI3027
(lp4767
sI3028
(lp4768
S'player'
p4769
asI3029
(lp4770
sI3030
(lp4771
sI3031
(lp4772
sI3032
(lp4773
sI3033
(lp4774
sI3034
(lp4775
sI3035
(lp4776
sI3036
(lp4777
sI3037
(lp4778
sI3038
(lp4779
Vpeople
p4780
asI3039
(lp4781
sI3040
(lp4782
sI3041
(lp4783
sI3042
(lp4784
S'player'
p4785
asI3043
(lp4786
Vproblem
p4787
asI3044
(lp4788
Vdrive
p4789
asI3045
(lp4790
sI3046
(lp4791
sI3047
(lp4792
sI3048
(lp4793
S'ipod'
p4794
asI3049
(lp4795
Vcollection
p4796
asI3050
(lp4797
sI3051
(lp4798
Vfeatures
p4799
asI3052
(lp4800
Vheadphones
p4801
asI3053
(lp4802
S'headphones'
p4803
asI3054
(lp4804
sI3055
(lp4805
Vartist
p4806
aS'album'
p4807
asI3056
(lp4808
Vbattery
p4809
aS'price'
p4810
asI3057
(lp4811
S'batteries'
p4812
aS'apple'
p4813
asI3058
(lp4814
S'zen'
p4815
aS'ipod'
p4816
asI3059
(lp4817
Vipod
p4818
aS'nomad'
p4819
asI3060
(lp4820
Vlook
p4821
asI3061
(lp4822
sI3062
(lp4823
Vway
p4824
asI3063
(lp4825
S'players'
p4826
asI3064
(lp4827
sI3065
(lp4828
sI3066
(lp4829
sI3067
(lp4830
sI3068
(lp4831
sI3069
(lp4832
Vquality
p4833
asI3070
(lp4834
sI3071
(lp4835
S'song'
p4836
asI3072
(lp4837
sI3073
(lp4838
sI3074
(lp4839
Vsoftware
p4840
asI3075
(lp4841
sI3076
(lp4842
Vsoftware
p4843
asI3077
(lp4844
S'cover'
p4845
asI3078
(lp4846
sI3079
(lp4847
sI3080
(lp4848
Vbattery
p4849
aS'size'
p4850
asI3081
(lp4851
sI3082
(lp4852
Vnavigation
p4853
asI3083
(lp4854
sI3084
(lp4855
Vsoftware
p4856
asI3085
(lp4857
Vcase
p4858
aS'notmad'
p4859
asI3086
(lp4860
Vplayer
p4861
asI3087
(lp4862
sI3088
(lp4863
sI3089
(lp4864
sI3090
(lp4865
Vsize
p4866
aS'design'
p4867
asI3091
(lp4868
S'people'
p4869
asI3092
(lp4870
sI3093
(lp4871
sI3094
(lp4872
S'wheel'
p4873
asI3095
(lp4874
sI3096
(lp4875
sI3097
(lp4876
sI3098
(lp4877
sI3099
(lp4878
Vthings
p4879
asI3100
(lp4880
sI3101
(lp4881
sI3102
(lp4882
S'songs'
p4883
aVplayer
p4884
asI3103
(lp4885
sI3104
(lp4886
Vmusic
p4887
asI3105
(lp4888
Vartist
p4889
aS'album'
p4890
asI3106
(lp4891
S'playlists'
p4892
asI3107
(lp4893
sI3108
(lp4894
sI3109
(lp4895
Vsoftware
p4896
aS'notmad'
p4897
asI3110
(lp4898
sI3111
(lp4899
S'tag'
p4900
asI3112
(lp4901
sI3113
(lp4902
Vplayer
p4903
asI3114
(lp4904
Vsoftware
p4905
aS'design'
p4906
asI3115
(lp4907
S'wheel'
p4908
asI3116
(lp4909
Vcustomer
p4910
asI3117
(lp4911
sI3118
(lp4912
sI3119
(lp4913
sI3120
(lp4914
sI3121
(lp4915
S'songs'
p4916
asI3122
(lp4917
sI3123
(lp4918
sI3124
(lp4919
Vwarranty
p4920
asI3125
(lp4921
sI3126
(lp4922
S'software'
p4923
aS'driver'
p4924
aS'products'
p4925
asI3127
(lp4926
sI3128
(lp4927
sI3129
(lp4928
sI3130
(lp4929
sI3131
(lp4930
Vpeople
p4931
aS'jack'
p4932
asI3132
(lp4933
Vdrive
p4934
asI3133
(lp4935
S'zen'
p4936
asI3134
(lp4937
sI3135
(lp4938
sI3136
(lp4939
Vdrive
p4940
asI3137
(lp4941
sI3138
(lp4942
sI3139
(lp4943
sI3140
(lp4944
sI3141
(lp4945
sI3142
(lp4946
Vpeople
p4947
asI3143
(lp4948
Vpeople
p4949
asI3144
(lp4950
sI3145
(lp4951
Vplayers
p4952
asI3146
(lp4953
sI3147
(lp4954
sI3148
(lp4955
S'nomad'
p4956
asI3149
(lp4957
Vway
p4958
asI3150
(lp4959
Vuse
p4960
asI3151
(lp4961
sI3152
(lp4962
S'reviews'
p4963
asI3153
(lp4964
sI3154
(lp4965
sI3155
(lp4966
sI3156
(lp4967
Vquality
p4968
asI3157
(lp4969
sI3158
(lp4970
Vcapacity
p4971
asI3159
(lp4972
sI3160
(lp4973
sI3161
(lp4974
sI3162
(lp4975
sI3163
(lp4976
sI3164
(lp4977
sI3165
(lp4978
S'nomad'
p4979
asI3166
(lp4980
sI3167
(lp4981
sI3168
(lp4982
sI3169
(lp4983
sI3170
(lp4984
Vpeople
p4985
aVuse
p4986
asI3171
(lp4987
Vproblem
p4988
asI3172
(lp4989
Vthing
p4990
aVcover
p4991
asI3173
(lp4992
S'headphone'
p4993
asI3174
(lp4994
sI3175
(lp4995
S'days'
p4996
asI3176
(lp4997
Vnomad
p4998
asI3177
(lp4999
sI3178
(lp5000
sI3179
(lp5001
sI3180
(lp5002
Voptions
p5003
asI3181
(lp5004
sI3182
(lp5005
sI3183
(lp5006
sI3184
(lp5007
Vproducts
p5008
asI3185
(lp5009
sI3186
(lp5010
sI3187
(lp5011
sI3188
(lp5012
sI3189
(lp5013
sI3190
(lp5014
sI3191
(lp5015
sI3192
(lp5016
sI3193
(lp5017
sI3194
(lp5018
sI3195
(lp5019
sI3196
(lp5020
S'jukebox'
p5021
asI3197
(lp5022
sI3198
(lp5023
sI3199
(lp5024
Vzen
p5025
asI3200
(lp5026
Vdrive
p5027
asI3201
(lp5028
Vplayer
p5029
asI3202
(lp5030
Vwarranty
p5031
asI3203
(lp5032
sI3204
(lp5033
sI3205
(lp5034
sI3206
(lp5035
sI3207
(lp5036
sI3208
(lp5037
S'player'
p5038
aS'apex'
p5039
asI3209
(lp5040
sI3210
(lp5041
Vcontrol
p5042
asI3211
(lp5043
sI3212
(lp5044
Vcontrol
p5045
asI3213
(lp5046
S'button'
p5047
asI3214
(lp5048
S'picture'
p5049
asI3215
(lp5050
S'video'
p5051
asI3216
(lp5052
sI3217
(lp5053
Vcontrol
p5054
asI3218
(lp5055
sI3219
(lp5056
S'players'
p5057
asI3220
(lp5058
Vpicture
p5059
asI3221
(lp5060
Vproblems
p5061
asI3222
(lp5062
S'dvd'
p5063
asI3223
(lp5064
sI3224
(lp5065
sI3225
(lp5066
sI3226
(lp5067
sI3227
(lp5068
S'everything'
p5069
asI3228
(lp5070
Vsound
p5071
asI3229
(lp5072
sI3230
(lp5073
sI3231
(lp5074
sI3232
(lp5075
sI3233
(lp5076
S'button'
p5077
asI3234
(lp5078
Vmodels
p5079
asI3235
(lp5080
S'video'
p5081
asI3236
(lp5082
sI3237
(lp5083
sI3238
(lp5084
sI3239
(lp5085
sI3240
(lp5086
sI3241
(lp5087
Vfeature
p5088
asI3242
(lp5089
Vlot
p5090
asI3243
(lp5091
Vthing
p5092
aS'unit'
p5093
aVoutputs
p5094
asI3244
(lp5095
sI3245
(lp5096
sI3246
(lp5097
Vfeature
p5098
asI3247
(lp5099
Vcontrol
p5100
aVnames
p5101
asI3248
(lp5102
Vfeature
p5103
asI3249
(lp5104
sI3250
(lp5105
Vplay
p5106
asI3251
(lp5107
Vformat
p5108
asI3252
(lp5109
S'player'
p5110
asI3253
(lp5111
sI3254
(lp5112
sI3255
(lp5113
S'players'
p5114
asI3256
(lp5115
sI3257
(lp5116
Vproducts
p5117
asI3258
(lp5118
sI3259
(lp5119
Vplayer
p5120
asI3260
(lp5121
sI3261
(lp5122
Vcds
p5123
asI3262
(lp5124
S'apex'
p5125
asI3263
(lp5126
sI3264
(lp5127
sI3265
(lp5128
sI3266
(lp5129
sI3267
(lp5130
S'apex'
p5131
asI3268
(lp5132
sI3269
(lp5133
S'service'
p5134
asI3270
(lp5135
sI3271
(lp5136
Vreviews
p5137
asI3272
(lp5138
sI3273
(lp5139
sI3274
(lp5140
sI3275
(lp5141
sI3276
(lp5142
sI3277
(lp5143
S'tv'
p5144
aS'apex'
p5145
asI3278
(lp5146
sI3279
(lp5147
sI3280
(lp5148
S'dvd'
p5149
asI3281
(lp5150
sI3282
(lp5151
sI3283
(lp5152
Vmachines
p5153
asI3284
(lp5154
S'weeks'
p5155
asI3285
(lp5156
sI3286
(lp5157
S'months'
p5158
asI3287
(lp5159
sI3288
(lp5160
sI3289
(lp5161
sI3290
(lp5162
sI3291
(lp5163
sI3292
(lp5164
sI3293
(lp5165
S'apex'
p5166
asI3294
(lp5167
Vproblems
p5168
asI3295
(lp5169
sI3296
(lp5170
sI3297
(lp5171
Vthing
p5172
asI3298
(lp5173
sI3299
(lp5174
sI3300
(lp5175
sI3301
(lp5176
Vdisk
p5177
aS'model'
p5178
asI3302
(lp5179
Vbuttons
p5180
asI3303
(lp5181
S'buttons'
p5182
asI3304
(lp5183
sI3305
(lp5184
sI3306
(lp5185
sI3307
(lp5186
Vtime
p5187
asI3308
(lp5188
Vfeature
p5189
asI3309
(lp5190
sI3310
(lp5191
S'player'
p5192
asI3311
(lp5193
Vsupport
p5194
aS'problems'
p5195
asI3312
(lp5196
sI3313
(lp5197
sI3314
(lp5198
sI3315
(lp5199
sI3316
(lp5200
sI3317
(lp5201
sI3318
(lp5202
sI3319
(lp5203
S'service'
p5204
asI3320
(lp5205
Vthing
p5206
asI3321
(lp5207
Vquality
p5208
asI3322
(lp5209
sI3323
(lp5210
sI3324
(lp5211
S'lot'
p5212
asI3325
(lp5213
Vcustomers
p5214
asI3326
(lp5215
Vplay
p5216
asI3327
(lp5217
sI3328
(lp5218
sI3329
(lp5219
sI3330
(lp5220
sI3331
(lp5221
sI3332
(lp5222
sI3333
(lp5223
sI3334
(lp5224
sI3335
(lp5225
sI3336
(lp5226
sI3337
(lp5227
sI3338
(lp5228
S'player'
p5229
asI3339
(lp5230
Vfeatures
p5231
aS'player'
p5232
aS'time'
p5233
asI3340
(lp5234
Vdvd
p5235
asI3341
(lp5236
S'customer'
p5237
asI3342
(lp5238
sI3343
(lp5239
sI3344
(lp5240
sI3345
(lp5241
sI3346
(lp5242
sI3347
(lp5243
sI3348
(lp5244
S'player'
p5245
aS'dvds'
p5246
asI3349
(lp5247
sI3350
(lp5248
sI3351
(lp5249
sI3352
(lp5250
sI3353
(lp5251
S'picture'
p5252
asI3354
(lp5253
sI3355
(lp5254
sI3356
(lp5255
sI3357
(lp5256
Vapex
p5257
asI3358
(lp5258
sI3359
(lp5259
sI3360
(lp5260
Vplayers
p5261
asI3361
(lp5262
Vplayer
p5263
asI3362
(lp5264
sI3363
(lp5265
S'play'
p5266
asI3364
(lp5267
sI3365
(lp5268
S'months'
p5269
asI3366
(lp5270
sI3367
(lp5271
sI3368
(lp5272
sI3369
(lp5273
sI3370
(lp5274
S'months'
p5275
asI3371
(lp5276
sI3372
(lp5277
sI3373
(lp5278
sI3374
(lp5279
sI3375
(lp5280
sI3376
(lp5281
sI3377
(lp5282
sI3378
(lp5283
sI3379
(lp5284
Vsignals
p5285
aS'pictures'
p5286
asI3380
(lp5287
Vthing
p5288
asI3381
(lp5289
Vpictures
p5290
asI3382
(lp5291
sI3383
(lp5292
sI3384
(lp5293
Vunit
p5294
asI3385
(lp5295
S'unit'
p5296
asI3386
(lp5297
sI3387
(lp5298
sI3388
(lp5299
sI3389
(lp5300
sI3390
(lp5301
sI3391
(lp5302
S'feature'
p5303
asI3392
(lp5304
S'features'
p5305
asI3393
(lp5306
sI3394
(lp5307
Vnames
p5308
aS'player'
p5309
aVsony
p5310
asI3395
(lp5311
Vplayer
p5312
asI3396
(lp5313
sI3397
(lp5314
sI3398
(lp5315
sI3399
(lp5316
sI3400
(lp5317
sI3401
(lp5318
Vdvd
p5319
asI3402
(lp5320
sI3403
(lp5321
S'picture'
p5322
asI3404
(lp5323
S'video'
p5324
aVfeature
p5325
asI3405
(lp5326
Vfeature
p5327
asI3406
(lp5328
sI3407
(lp5329
Vfeatures
p5330
asI3408
(lp5331
sI3409
(lp5332
sI3410
(lp5333
sI3411
(lp5334
Vplayer
p5335
asI3412
(lp5336
sI3413
(lp5337
sI3414
(lp5338
S'dvd'
p5339
asI3415
(lp5340
sI3416
(lp5341
sI3417
(lp5342
sI3418
(lp5343
S'player'
p5344
asI3419
(lp5345
S'feature'
p5346
asI3420
(lp5347
sI3421
(lp5348
S'unit'
p5349
asI3422
(lp5350
sI3423
(lp5351
sI3424
(lp5352
sI3425
(lp5353
sI3426
(lp5354
sI3427
(lp5355
sI3428
(lp5356
sI3429
(lp5357
Vdvd
p5358
aS'r'
asI3430
(lp5359
Vdisks
p5360
asI3431
(lp5361
sI3432
(lp5362
S'movie'
p5363
aVbuttons
p5364
asI3433
(lp5365
sI3434
(lp5366
sI3435
(lp5367
sI3436
(lp5368
sI3437
(lp5369
sI3438
(lp5370
sI3439
(lp5371
S'video'
p5372
asI3440
(lp5373
Vcontrol
p5374
aVcontrols
p5375
asI3441
(lp5376
sI3442
(lp5377
S'models'
p5378
asI3443
(lp5379
sI3444
(lp5380
S'apex'
p5381
asI3445
(lp5382
sI3446
(lp5383
sI3447
(lp5384
sI3448
(lp5385
sI3449
(lp5386
sI3450
(lp5387
sI3451
(lp5388
sI3452
(lp5389
sI3453
(lp5390
sI3454
(lp5391
sI3455
(lp5392
sI3456
(lp5393
Vsony
p5394
asI3457
(lp5395
sI3458
(lp5396
Vplayer
p5397
asI3459
(lp5398
S'quality'
p5399
asI3460
(lp5400
sI3461
(lp5401
S'player'
p5402
asI3462
(lp5403
Vsony
p5404
asI3463
(lp5405
sI3464
(lp5406
sI3465
(lp5407
sI3466
(lp5408
S'dvd'
p5409
asI3467
(lp5410
sI3468
(lp5411
Vproblem
p5412
aVplayer
p5413
aS'apex'
p5414
asI3469
(lp5415
Vplayer
p5416
asI3470
(lp5417
S'dvd'
p5418
asI3471
(lp5419
Vplayer
p5420
aS'media'
p5421
asI3472
(lp5422
S'rs'
p5423
asI3473
(lp5424
S'media'
p5425
asI3474
(lp5426
Vplayer
p5427
asI3475
(lp5428
sI3476
(lp5429
Vunit
p5430
asI3477
(lp5431
sI3478
(lp5432
S'player'
p5433
asI3479
(lp5434
sI3480
(lp5435
sI3481
(lp5436
sI3482
(lp5437
sI3483
(lp5438
S'weeks'
p5439
aS'video'
p5440
asI3484
(lp5441
sI3485
(lp5442
sI3486
(lp5443
S'times'
p5444
asI3487
(lp5445
Vproduct
p5446
asI3488
(lp5447
Vplayer
p5448
asI3489
(lp5449
S'movie'
p5450
aS'picture'
p5451
asI3490
(lp5452
sI3491
(lp5453
sI3492
(lp5454
Vmonth
p5455
asI3493
(lp5456
Vvideo
p5457
aS'outputs'
p5458
asI3494
(lp5459
Vpicture
p5460
aS'sound'
p5461
asI3495
(lp5462
sI3496
(lp5463
sI3497
(lp5464
Vcontrol
p5465
asI3498
(lp5466
S'player'
p5467
asI3499
(lp5468
Vsignals
p5469
aVoutput
p5470
asI3500
(lp5471
sI3501
(lp5472
sI3502
(lp5473
S'video'
p5474
asI3503
(lp5475
sI3504
(lp5476
sI3505
(lp5477
Vunit
p5478
asI3506
(lp5479
S'times'
p5480
asI3507
(lp5481
S'apex'
p5482
asI3508
(lp5483
sI3509
(lp5484
sI3510
(lp5485
S'players'
p5486
asI3511
(lp5487
sI3512
(lp5488
sI3513
(lp5489
sI3514
(lp5490
sI3515
(lp5491
sI3516
(lp5492
S'player'
p5493
aVplayers
p5494
asI3517
(lp5495
Vdisc
p5496
asI3518
(lp5497
sI3519
(lp5498
S'output'
p5499
asI3520
(lp5500
sI3521
(lp5501
Vplayers
p5502
aS'discs'
p5503
asI3522
(lp5504
sI3523
(lp5505
Vunits
p5506
asI3524
(lp5507
S'button'
p5508
asI3525
(lp5509
sI3526
(lp5510
sI3527
(lp5511
sI3528
(lp5512
sI3529
(lp5513
sI3530
(lp5514
sI3531
(lp5515
sI3532
(lp5516
sI3533
(lp5517
sI3534
(lp5518
S'thing'
p5519
asI3535
(lp5520
sI3536
(lp5521
sI3537
(lp5522
sI3538
(lp5523
Vfeatures
p5524
asI3539
(lp5525
Vdisc
p5526
aVplayers
p5527
aS'problem'
p5528
asI3540
(lp5529
sI3541
(lp5530
sI3542
(lp5531
sI3543
(lp5532
sI3544
(lp5533
sI3545
(lp5534
Vproduct
p5535
aVfeatures
p5536
asI3546
(lp5537
sI3547
(lp5538
sI3548
(lp5539
S'thing'
p5540
asI3549
(lp5541
sI3550
(lp5542
sI3551
(lp5543
sI3552
(lp5544
sI3553
(lp5545
sI3554
(lp5546
Vproducts
p5547
asI3555
(lp5548
sI3556
(lp5549
sI3557
(lp5550
sI3558
(lp5551
Vtvs
p5552
aS'signal'
p5553
asI3559
(lp5554
sI3560
(lp5555
sI3561
(lp5556
sI3562
(lp5557
sI3563
(lp5558
sI3564
(lp5559
sI3565
(lp5560
sI3566
(lp5561
S'service'
p5562
aS'customer'
p5563
asI3567
(lp5564
sI3568
(lp5565
sI3569
(lp5566
sI3570
(lp5567
sI3571
(lp5568
sI3572
(lp5569
S'player'
p5570
asI3573
(lp5571
S'disk'
p5572
asI3574
(lp5573
sI3575
(lp5574
sI3576
(lp5575
sI3577
(lp5576
sI3578
(lp5577
sI3579
(lp5578
sI3580
(lp5579
S'picture'
p5580
asI3581
(lp5581
S'service'
p5582
asI3582
(lp5583
sI3583
(lp5584
Vprice
p5585
asI3584
(lp5586
sI3585
(lp5587
sI3586
(lp5588
sI3587
(lp5589
sI3588
(lp5590
sI3589
(lp5591
sI3590
(lp5592
sI3591
(lp5593
sI3592
(lp5594
sI3593
(lp5595
sI3594
(lp5596
sI3595
(lp5597
sI3596
(lp5598
sI3597
(lp5599
sI3598
(lp5600
sI3599
(lp5601
sI3600
(lp5602
sI3601
(lp5603
sI3602
(lp5604
sI3603
(lp5605
sI3604
(lp5606
S'apex'
p5607
asI3605
(lp5608
sI3606
(lp5609
S'play'
p5610
asI3607
(lp5611
sI3608
(lp5612
sI3609
(lp5613
S'player'
p5614
asI3610
(lp5615
Vdvds
p5616
asI3611
(lp5617
S'player'
p5618
asI3612
(lp5619
sI3613
(lp5620
S'player'
p5621
asI3614
(lp5622
Vfeatures
p5623
asI3615
(lp5624
sI3616
(lp5625
Vplayer
p5626
asI3617
(lp5627
sI3618
(lp5628
sI3619
(lp5629
sI3620
(lp5630
sI3621
(lp5631
sI3622
(lp5632
Vsony
p5633
asI3623
(lp5634
Vplayer
p5635
asI3624
(lp5636
sI3625
(lp5637
sI3626
(lp5638
sI3627
(lp5639
sI3628
(lp5640
sI3629
(lp5641
sI3630
(lp5642
Vplayer
p5643
asI3631
(lp5644
sI3632
(lp5645
sI3633
(lp5646
sI3634
(lp5647
sI3635
(lp5648
sI3636
(lp5649
sI3637
(lp5650
sI3638
(lp5651
sI3639
(lp5652
S'video'
p5653
asI3640
(lp5654
sI3641
(lp5655
Vmachine
p5656
asI3642
(lp5657
S'lot'
p5658
asI3643
(lp5659
sI3644
(lp5660
sI3645
(lp5661
sI3646
(lp5662
S'movies'
p5663
asI3647
(lp5664
sI3648
(lp5665
S'features'
p5666
asI3649
(lp5667
Vproblem
p5668
asI3650
(lp5669
sI3651
(lp5670
sI3652
(lp5671
sI3653
(lp5672
sI3654
(lp5673
sI3655
(lp5674
sI3656
(lp5675
Vdvd
p5676
aS'picture'
p5677
asI3657
(lp5678
sI3658
(lp5679
sI3659
(lp5680
sI3660
(lp5681
S'reviews'
p5682
asI3661
(lp5683
sI3662
(lp5684
S'output'
p5685
asI3663
(lp5686
Vplayer
p5687
aS'video'
p5688
asI3664
(lp5689
S'output'
p5690
asI3665
(lp5691
sI3666
(lp5692
sI3667
(lp5693
S'dvd'
p5694
asI3668
(lp5695
sI3669
(lp5696
sI3670
(lp5697
S'sound'
p5698
aS'video'
p5699
asI3671
(lp5700
sI3672
(lp5701
sI3673
(lp5702
sI3674
(lp5703
sI3675
(lp5704
sI3676
(lp5705
sI3677
(lp5706
sI3678
(lp5707
sI3679
(lp5708
sI3680
(lp5709
S'display'
p5710
asI3681
(lp5711
sI3682
(lp5712
sI3683
(lp5713
sI3684
(lp5714
sI3685
(lp5715
Vreviews
p5716
asI3686
(lp5717
Vtime
p5718
asI3687
(lp5719
Vcontrol
p5720
asI3688
(lp5721
sI3689
(lp5722
S'everything'
p5723
asI3690
(lp5724
sI3691
(lp5725
sI3692
(lp5726
S'features'
p5727
asI3693
(lp5728
S'dvds'
p5729
asI3694
(lp5730
sI3695
(lp5731
sI3696
(lp5732
sI3697
(lp5733
sI3698
(lp5734
sI3699
(lp5735
sI3700
(lp5736
Vdvds
p5737
asI3701
(lp5738
S'everything'
p5739
asI3702
(lp5740
sI3703
(lp5741
S'everything'
p5742
asI3704
(lp5743
sI3705
(lp5744
sI3706
(lp5745
sI3707
(lp5746
sI3708
(lp5747
sI3709
(lp5748
sI3710
(lp5749
sI3711
(lp5750
S'player'
p5751
asI3712
(lp5752
Vdvds
p5753
asI3713
(lp5754
S'display'
p5755
asI3714
(lp5756
sI3715
(lp5757
S'disk'
p5758
asI3716
(lp5759
sI3717
(lp5760
sI3718
(lp5761
sI3719
(lp5762
sI3720
(lp5763
S'discs'
p5764
asI3721
(lp5765
sI3722
(lp5766
sI3723
(lp5767
sI3724
(lp5768
S'player'
p5769
asI3725
(lp5770
sI3726
(lp5771
Vplayer
p5772
asI3727
(lp5773
sI3728
(lp5774
sI3729
(lp5775
sI3730
(lp5776
sI3731
(lp5777
sI3732
(lp5778
sI3733
(lp5779
sI3734
(lp5780
sI3735
(lp5781
sI3736
(lp5782
Vplayer
p5783
asI3737
(lp5784
Vthing
p5785
asI3738
(lp5786
sI3739
(lp5787
sI3740
(lp5788
S'brand'
p5789
asI3741
(lp5790
sI3742
(lp5791
sI3743
(lp5792
S'something'
p5793
aVfeatures
p5794
asI3744
(lp5795
sI3745
(lp5796
S'problems'
p5797
asI3746
(lp5798
sI3747
(lp5799
Vprice
p5800
asI3748
(lp5801
sI3749
(lp5802
sI3750
(lp5803
sI3751
(lp5804
sI3752
(lp5805
sI3753
(lp5806
sI3754
(lp5807
sI3755
(lp5808
S'player'
p5809
aS'weeks'
p5810
asI3756
(lp5811
sI3757
(lp5812
sI3758
(lp5813
sI3759
(lp5814
sI3760
(lp5815
sI3761
(lp5816
S'player'
p5817
asI3762
(lp5818
sI3763
(lp5819
sI3764
(lp5820
sI3765
(lp5821
sI3766
(lp5822
S'everything'
p5823
asI3767
(lp5824
sI3768
(lp5825
sI3769
(lp5826
sI3770
(lp5827
sI3771
(lp5828
sI3772
(lp5829
sI3773
(lp5830
sI3774
(lp5831
sI3775
(lp5832
sI3776
(lp5833
sI3777
(lp5834
S'lot'
p5835
asI3778
(lp5836
sI3779
(lp5837
sI3780
(lp5838
sI3781
(lp5839
sI3782
(lp5840
sI3783
(lp5841
sI3784
(lp5842
sI3785
(lp5843
sI3786
(lp5844
Vunit
p5845
aS'play'
p5846
asI3787
(lp5847
sI3788
(lp5848
Vcontrol
p5849
asI3789
(lp5850
sI3790
(lp5851
sI3791
(lp5852
sI3792
(lp5853
sI3793
(lp5854
S'dvd'
p5855
asI3794
(lp5856
sI3795
(lp5857
sI3796
(lp5858
S'one'
p5859
asI3797
(lp5860
sI3798
(lp5861
sI3799
(lp5862
sI3800
(lp5863
sI3801
(lp5864
S'dvd'
p5865
asI3802
(lp5866
Vplayers
p5867
asI3803
(lp5868
Vplayer
p5869
asI3804
(lp5870
sI3805
(lp5871
sI3806
(lp5872
Vdisc
p5873
asI3807
(lp5874
sI3808
(lp5875
sI3809
(lp5876
sI3810
(lp5877
S'cd'
p5878
aS'picture'
p5879
asI3811
(lp5880
sI3812
(lp5881
sI3813
(lp5882
Vplayer
p5883
asI3814
(lp5884
sI3815
(lp5885
sI3816
(lp5886
S'dvds'
p5887
asI3817
(lp5888
sI3818
(lp5889
sI3819
(lp5890
sI3820
(lp5891
sI3821
(lp5892
sI3822
(lp5893
sI3823
(lp5894
sI3824
(lp5895
sI3825
(lp5896
sI3826
(lp5897
S'player'
p5898
asI3827
(lp5899
sI3828
(lp5900
Vplayer
p5901
asI3829
(lp5902
Vreviews
p5903
asI3830
(lp5904
sI3831
(lp5905
sI3832
(lp5906
sI3833
(lp5907
S'one'
p5908
asI3834
(lp5909
sI3835
(lp5910
S'time'
p5911
asI3836
(lp5912
sI3837
(lp5913
Vplayer
p5914
asI3838
(lp5915
sI3839
(lp5916
Vsomething
p5917
asI3840
(lp5918
Vplayer
p5919
asI3841
(lp5920
S'everything'
p5921
asI3842
(lp5922
S'machine'
p5923
aVdisplay
p5924
aS'button'
p5925
asI3843
(lp5926
S'unit'
p5927
asI3844
(lp5928
Vdvd
p5929
asI3845
(lp5930
sI3846
(lp5931
sI3847
(lp5932
sI3848
(lp5933
sI3849
(lp5934
sI3850
(lp5935
S'dvd'
p5936
asI3851
(lp5937
sI3852
(lp5938
Vthing
p5939
asI3853
(lp5940
sI3854
(lp5941
sI3855
(lp5942
sI3856
(lp5943
sI3857
(lp5944
S'reviews'
p5945
asI3858
(lp5946
sI3859
(lp5947
sI3860
(lp5948
Vtimes
p5949
asI3861
(lp5950
Vbrand
p5951
asI3862
(lp5952
sI3863
(lp5953
sI3864
(lp5954
sI3865
(lp5955
sI3866
(lp5956
sI3867
(lp5957
Vdvd
p5958
asI3868
(lp5959
sI3869
(lp5960
sI3870
(lp5961
sI3871
(lp5962
sI3872
(lp5963
S'something'
p5964
asI3873
(lp5965
sI3874
(lp5966
Vbuttons
p5967
asI3875
(lp5968
sI3876
(lp5969
sI3877
(lp5970
sI3878
(lp5971
S'apex'
p5972
asI3879
(lp5973
sI3880
(lp5974
S'disc'
p5975
asI3881
(lp5976
sI3882
(lp5977
sI3883
(lp5978
Vreview
p5979
asI3884
(lp5980
sI3885
(lp5981
sI3886
(lp5982
sI3887
(lp5983
sI3888
(lp5984
sI3889
(lp5985
sI3890
(lp5986
sI3891
(lp5987
S'disc'
p5988
asI3892
(lp5989
Vreviews
p5990
asI3893
(lp5991
S'apex'
p5992
asI3894
(lp5993
sI3895
(lp5994
sI3896
(lp5995
sI3897
(lp5996
sI3898
(lp5997
sI3899
(lp5998
S'picture'
p5999
asI3900
(lp6000
sI3901
(lp6001
sI3902
(lp6002
sI3903
(lp6003
sI3904
(lp6004
sI3905
(lp6005
S'dvds'
p6006
aS'cds'
p6007
asI3906
(lp6008
S'media'
p6009
asI3907
(lp6010
Vformats
p6011
asI3908
(lp6012
Vplayer
p6013
asI3909
(lp6014
sI3910
(lp6015
sI3911
(lp6016
Vmodel
p6017
asI3912
(lp6018
Vmachine
p6019
asI3913
(lp6020
sI3914
(lp6021
sI3915
(lp6022
sI3916
(lp6023
sI3917
(lp6024
sI3918
(lp6025
S'quality'
p6026
aS'picture'
p6027
aS'sound'
p6028
asI3919
(lp6029
Vprice
p6030
asI3920
(lp6031
sI3921
(lp6032
Vplayer
p6033
asI3922
(lp6034
sI3923
(lp6035
S'everything'
p6036
asI3924
(lp6037
Vformats
p6038
asI3925
(lp6039
S'price'
p6040
asI3926
(lp6041
sI3927
(lp6042
S'things'
p6043
asI3928
(lp6044
Vproblem
p6045
asI3929
(lp6046
sI3930
(lp6047
sI3931
(lp6048
sI3932
(lp6049
sI3933
(lp6050
sI3934
(lp6051
sI3935
(lp6052
sI3936
(lp6053
Vbrands
p6054
asI3937
(lp6055
sI3938
(lp6056
sI3939
(lp6057
sI3940
(lp6058
sI3941
(lp6059
S'player'
p6060
asI3942
(lp6061
S'dvds'
p6062
asI3943
(lp6063
sI3944
(lp6064
s.